 System.Data.SQLite

 Timestamp is 53ec9a0f (Thu Aug 14 14:14:23 2014)

 Preferred load address is 10000000

 Start         Length     Name                   Class
 0001:00000000 0009e464H .text                   CODE
 0002:00000000 00000214H .idata$5                DATA
 0002:00000214 00000004H .CRT$XCA                DATA
 0002:00000218 00000004H .CRT$XCZ                DATA
 0002:0000021c 00000004H .CRT$XIA                DATA
 0002:00000220 00000004H .CRT$XIAA               DATA
 0002:00000224 00000008H .CRT$XIC                DATA
 0002:0000022c 00000004H .CRT$XIZ                DATA
 0002:00000230 000365c8H .rdata                  DATA
 0002:000367f8 00000084H .rdata$debug            DATA
 0002:00036880 00000004H .rdata$sxdata           DATA
 0002:00036884 00000004H .rtc$IAA                DATA
 0002:00036888 00000004H .rtc$IZZ                DATA
 0002:0003688c 00000004H .rtc$TAA                DATA
 0002:00036890 00000004H .rtc$TZZ                DATA
 0002:00036898 00000064H .xdata$x                DATA
 0002:000368fc 00000050H .idata$2                DATA
 0002:0003694c 00000014H .idata$3                DATA
 0002:00036960 00000214H .idata$4                DATA
 0002:00036b74 00000904H .idata$6                DATA
 0002:00037480 000023f4H .edata                  DATA
 0003:00000000 00001094H .data                   DATA
 0003:00001098 00001dfcH .bss                    DATA
 0004:00000000 00000200H CONST                   DATA
 0005:00000000 00000058H .rsrc$01                DATA
 0005:00000060 000005b8H .rsrc$02                DATA

  Address         Publics by Value              Rva+Base       Lib:Object

 0000:00000000       __except_list              00000000     <absolute>
 0000:00000001       ___safe_se_handler_count   00000001     <absolute>
 0000:00009876       __ldused                   00009876     <absolute>
 0000:00009876       __fltused                  00009876     <absolute>
 0000:00000000       ___ImageBase               10000000     <linker-defined>
 0001:00000000       _GetFullPathNameW@16       10001000 f   kernel32:KERNEL32.dll
 0001:00000006       _GetFullPathNameA@16       10001006 f   kernel32:KERNEL32.dll
 0001:0000000c       _HeapReAlloc@16            1000100c f   kernel32:KERNEL32.dll
 0001:00000012       _CreateFileA@28            10001012 f   kernel32:KERNEL32.dll
 0001:00000018       _GetFileSize@8             10001018 f   kernel32:KERNEL32.dll
 0001:0000001e       _CreateMutexW@12           1000101e f   kernel32:KERNEL32.dll
 0001:00000024       _HeapCompact@8             10001024 f   kernel32:KERNEL32.dll
 0001:0000002a       _SetFilePointer@16         1000102a f   kernel32:KERNEL32.dll
 0001:00000030       _MapViewOfFile@20          10001030 f   kernel32:KERNEL32.dll
 0001:00000036       _UnmapViewOfFile@4         10001036 f   kernel32:KERNEL32.dll
 0001:0000003c       _SetEndOfFile@4            1000103c f   kernel32:KERNEL32.dll
 0001:00000042       _FreeLibrary@4             10001042 f   kernel32:KERNEL32.dll
 0001:00000048       _HeapAlloc@12              10001048 f   kernel32:KERNEL32.dll
 0001:0000004e       _SystemTimeToFileTime@8    1000104e f   kernel32:KERNEL32.dll
 0001:00000054       _QueryPerformanceCounter@4 10001054 f   kernel32:KERNEL32.dll
 0001:0000005a       _HeapFree@12               1000105a f   kernel32:KERNEL32.dll
 0001:00000060       _WaitForSingleObject@8     10001060 f   kernel32:KERNEL32.dll
 0001:00000066       _UnlockFile@20             10001066 f   kernel32:KERNEL32.dll
 0001:0000006c       _LockFile@20               1000106c f   kernel32:KERNEL32.dll
 0001:00000072       _OutputDebugStringW@4      10001072 f   kernel32:KERNEL32.dll
 0001:00000078       _GetTickCount@0            10001078 f   kernel32:KERNEL32.dll
 0001:0000007e       _UnlockFileEx@20           1000107e f   kernel32:KERNEL32.dll
 0001:00000084       _GetProcessHeap@0          10001084 f   kernel32:KERNEL32.dll
 0001:0000008a       _GetSystemTimeAsFileTime@4 1000108a f   kernel32:KERNEL32.dll
 0001:00000090       _FormatMessageA@28         10001090 f   kernel32:KERNEL32.dll
 0001:00000096       _WriteFile@20              10001096 f   kernel32:KERNEL32.dll
 0001:0000009c       _WideCharToMultiByte@32    1000109c f   kernel32:KERNEL32.dll
 0001:000000a2       _LoadLibraryW@4            100010a2 f   kernel32:KERNEL32.dll
 0001:000000a8       _Sleep@4                   100010a8 f   kernel32:KERNEL32.dll
 0001:000000ae       _FormatMessageW@28         100010ae f   kernel32:KERNEL32.dll
 0001:000000b4       _GetVersionExW@4           100010b4 f   kernel32:KERNEL32.dll
 0001:000000ba       _HeapDestroy@4             100010ba f   kernel32:KERNEL32.dll
 0001:000000c0       _GetFileAttributesA@4      100010c0 f   kernel32:KERNEL32.dll
 0001:000000c6       _HeapCreate@12             100010c6 f   kernel32:KERNEL32.dll
 0001:000000cc       _HeapValidate@12           100010cc f   kernel32:KERNEL32.dll
 0001:000000d2       _GetFileAttributesW@4      100010d2 f   kernel32:KERNEL32.dll
 0001:000000d8       _ReadFile@20               100010d8 f   kernel32:KERNEL32.dll
 0001:000000de       _CreateFileW@28            100010de f   kernel32:KERNEL32.dll
 0001:000000e4       _MultiByteToWideChar@24    100010e4 f   kernel32:KERNEL32.dll
 0001:000000ea       _FlushFileBuffers@4        100010ea f   kernel32:KERNEL32.dll
 0001:000000f0       _GetTempPathW@8            100010f0 f   kernel32:KERNEL32.dll
 0001:000000f6       _GetLastError@0            100010f6 f   kernel32:KERNEL32.dll
 0001:000000fc       _GetProcAddress@8          100010fc f   kernel32:KERNEL32.dll
 0001:00000102       _HeapSize@12               10001102 f   kernel32:KERNEL32.dll
 0001:00000108       _LockFileEx@24             10001108 f   kernel32:KERNEL32.dll
 0001:0000010e       _GetDiskFreeSpaceW@20      1000110e f   kernel32:KERNEL32.dll
 0001:00000114       _LoadLibraryA@4            10001114 f   kernel32:KERNEL32.dll
 0001:0000011a       _CreateFileMappingA@24     1000111a f   kernel32:KERNEL32.dll
 0001:00000120       _CreateFileMappingW@24     10001120 f   kernel32:KERNEL32.dll
 0001:00000126       _GetDiskFreeSpaceA@20      10001126 f   kernel32:KERNEL32.dll
 0001:0000012c       _GetSystemInfo@4           1000112c f   kernel32:KERNEL32.dll
 0001:00000132       _GetFileAttributesExW@12   10001132 f   kernel32:KERNEL32.dll
 0001:00000138       _OutputDebugStringA@4      10001138 f   kernel32:KERNEL32.dll
 0001:0000013e       _GetVersionExA@4           1000113e f   kernel32:KERNEL32.dll
 0001:00000144       _CloseHandle@4             10001144 f   kernel32:KERNEL32.dll
 0001:0000014a       _DeleteFileW@4             1000114a f   kernel32:KERNEL32.dll
 0001:00000150       _GetCurrentProcessId@0     10001150 f   kernel32:KERNEL32.dll
 0001:00000156       _GetTempPathA@8            10001156 f   kernel32:KERNEL32.dll
 0001:0000015c       _LocalFree@4               1000115c f   kernel32:KERNEL32.dll
 0001:00000162       _GetSystemTime@4           10001162 f   kernel32:KERNEL32.dll
 0001:00000168       _AreFileApisANSI@0         10001168 f   kernel32:KERNEL32.dll
 0001:0000016e       _DeleteFileA@4             1000116e f   kernel32:KERNEL32.dll
 0001:00000174       @__security_check_cookie@4 10001174 f   MSVCRT:secchk.obj
 0001:00000183       ___raise_securityfailure   10001183 f   MSVCRT:gs_report.obj
 0001:000001c0       ___report_gsfailure        100011c0 f   MSVCRT:gs_report.obj
 0001:000002b9       ___report_rangecheckfailure 100012b9 f   MSVCRT:gs_report.obj
 0001:000002c5       ___report_securityfailure  100012c5 f   MSVCRT:gs_report.obj
 0001:000003df       __CRT_INIT@12              100013df f   MSVCRT:crtdll.obj
 0001:000005d4       __DllMainCRTStartup@12     100015d4 f   MSVCRT:crtdll.obj
 0001:0000072a       __crt_debugger_hook        1000172a f   MSVCRT:MSVCR110.dll
 0001:00000730       ___crtUnhandledException   10001730 f   MSVCRT:MSVCR110.dll
 0001:00000736       ___crtTerminateProcess     10001736 f   MSVCRT:MSVCR110.dll
 0001:0000073c       ___CppXcptFilter           1000173c f   MSVCRT:MSVCR110.dll
 0001:00000742       __amsg_exit                10001742 f   MSVCRT:MSVCR110.dll
 0001:00000750       __FindPESection            10001750 f   MSVCRT:pesect.obj
 0001:000007a0       __IsNonwritableInCurrentImage 100017a0 f   MSVCRT:pesect.obj
 0001:00000860       __ValidateImageBase        10001860 f   MSVCRT:pesect.obj
 0001:00000891       ___atonexitinit            10001891 f   MSVCRT:atonexit.obj
 0001:000008cd       __onexit                   100018cd f   MSVCRT:atonexit.obj
 0001:00000972       _atexit                    10001972 f   MSVCRT:atonexit.obj
 0001:00000987       ___security_init_cookie    10001987 f   MSVCRT:gs_support.obj
 0001:00000a21       _DllMain@12                10001a21 f   MSVCRT:dllmain.obj
 0001:00000a43       __RTC_Initialize           10001a43 f   MSVCRT:initsect.obj
 0001:00000a63       __RTC_Terminate            10001a63 f   MSVCRT:initsect.obj
 0001:00000a84       __initterm                 10001a84 f   MSVCRT:MSVCR110.dll
 0001:00000a8a       __initterm_e               10001a8a f   MSVCRT:MSVCR110.dll
 0001:00000a90       ___clean_type_info_names   10001a90 f   MSVCRT:tncleanup.obj
 0001:00000aa0       __SEH_prolog4              10001aa0 f   MSVCRT:sehprolg4.obj
 0001:00000ae5       __SEH_epilog4              10001ae5 f   MSVCRT:sehprolg4.obj
 0001:00000af9       __except_handler4          10001af9 f   MSVCRT:chandler4gs.obj
 0001:00000b1c       __lock                     10001b1c f   MSVCRT:MSVCR110.dll
 0001:00000b22       __unlock                   10001b22 f   MSVCRT:MSVCR110.dll
 0001:00000b28       ___dllonexit               10001b28 f   MSVCRT:MSVCR110.dll
 0001:00000b2e       ___clean_type_info_names_internal 10001b2e f   MSVCRT:MSVCR110.dll
 0001:00000b34       __except_handler4_common   10001b34 f   MSVCRT:MSVCR110.dll
 0001:00000b3a       _IsProcessorFeaturePresent@4 10001b3a f   kernel32:KERNEL32.dll
 0001:00000ba8       ?System.Data.SQLite.AssemblySourceIdAttribute..ctor@@2001010O 10001ba8 f   System.Data.SQLite.netmodule
 0001:00000bc4       ?System.Data.SQLite.AssemblySourceIdAttribute.get_SourceId@@20000O 10001bc4 f   System.Data.SQLite.netmodule
 0001:00000bd8       ?System.Data.SQLite.AssemblySourceTimeStampAttribute..ctor@@2001010O 10001bd8 f   System.Data.SQLite.netmodule
 0001:00000bf4       ?System.Data.SQLite.AssemblySourceTimeStampAttribute.get_SourceTimeStamp@@20000O 10001bf4 f   System.Data.SQLite.netmodule
 0001:00000c08       ?System.Data.SQLite.SQLiteConvert..ctor@@2003011180K41180850O 10001c08 f   System.Data.SQLite.netmodule
 0001:00000c30       ?System.Data.SQLite.SQLiteConvert.ToUTF8@@00011N050O 10001c30 f   System.Data.SQLite.netmodule
 0001:00000c6c       ?System.Data.SQLite.SQLiteConvert.ToUTF8@@20011N05117N 10001c6c f   System.Data.SQLite.netmodule
 0001:00000c88       ?System.Data.SQLite.SQLiteConvert.ToString@@20020O1808 10001c88 f   System.Data.SQLite.netmodule
 0001:00000c9c       ?System.Data.SQLite.SQLiteConvert.UTF8ToString@@00020O1808 10001c9c f   System.Data.SQLite.netmodule
 0001:00000cfc       ?System.Data.SQLite.SQLiteConvert.ToDateTime@@2001117N0O 10001cfc f   System.Data.SQLite.netmodule
 0001:00000d24       ?System.Data.SQLite.SQLiteConvert.ToDateTime@@0004117N0O1180K41180850O 10001d24 f   System.Data.SQLite.netmodule
 0001:00000e40       ?System.Data.SQLite.SQLiteConvert.ToDateTime@@2001117N0N 10001e40 f   System.Data.SQLite.netmodule
 0001:00000e5c       ?System.Data.SQLite.SQLiteConvert.ToDateTime@@0002117N0N118085 10001e5c f   System.Data.SQLite.netmodule
 0001:00000e7c       ?System.Data.SQLite.SQLiteConvert.ToDateTime@@0002117N08118085 10001e7c f   System.Data.SQLite.netmodule
 0001:00000ea0       ?System.Data.SQLite.SQLiteConvert.ToDateTime@@0002117N0K118085 10001ea0 f   System.Data.SQLite.netmodule
 0001:00000eb4       ?System.Data.SQLite.SQLiteConvert.ToJulianDay@@00010N117N 10001eb4 f   System.Data.SQLite.netmodule
 0001:00000ed0       ?System.Data.SQLite.SQLiteConvert.ToUnixEpoch@@00010K117N 10001ed0 f   System.Data.SQLite.netmodule
 0001:00000ef8       ?System.Data.SQLite.SQLiteConvert.GetDateTimeKindFormat@@00020O1180850O 10001ef8 f   System.Data.SQLite.netmodule
 0001:00000f1c       ?System.Data.SQLite.SQLiteConvert.ToString@@20010O117N 10001f1c f   System.Data.SQLite.netmodule
 0001:00000f44       ?System.Data.SQLite.SQLiteConvert.ToString@@00040O117N1180K41180850O 10001f44 f   System.Data.SQLite.netmodule
 0001:00001034       ?System.Data.SQLite.SQLiteConvert.ToDateTime@@2002117N1808 10002034 f   System.Data.SQLite.netmodule
 0001:00001050       ?System.Data.SQLite.SQLiteConvert.Split@@00021N0O0O03 10002050 f   System.Data.SQLite.netmodule
 0001:000011ac       ?System.Data.SQLite.SQLiteConvert.NewSplit@@00041N0O0O0302100O 100021ac f   System.Data.SQLite.netmodule
 0001:000012bc       ?System.Data.SQLite.SQLiteConvert.ToStringWithProvider@@00020O1M128089 100022bc f   System.Data.SQLite.netmodule
 0001:000012f8       ?System.Data.SQLite.SQLiteConvert.ToBoolean@@0003021M12808902 100022f8 f   System.Data.SQLite.netmodule
 0001:00001464       ?System.Data.SQLite.SQLiteConvert.ToBoolean@@0001021M 10002464 f   System.Data.SQLite.netmodule
 0001:00001490       ?System.Data.SQLite.SQLiteConvert.ToBoolean@@0001020O 10002490 f   System.Data.SQLite.netmodule
 0001:0000158c       ?System.Data.SQLite.SQLiteConvert.SQLiteTypeToType@@000112808N1280LM 1000258c f   System.Data.SQLite.netmodule
 0001:000015bc       ?System.Data.SQLite.SQLiteConvert.TypeToDbType@@0001117912808N 100025bc f   System.Data.SQLite.netmodule
 0001:00001608       ?System.Data.SQLite.SQLiteConvert.DbTypeToColumnSize@@0001081179 10002608 f   System.Data.SQLite.netmodule
 0001:0000161c       ?System.Data.SQLite.SQLiteConvert.DbTypeToNumericPrecision@@00011M1179 1000261c f   System.Data.SQLite.netmodule
 0001:00001630       ?System.Data.SQLite.SQLiteConvert.DbTypeToNumericScale@@00011M1179 10002630 f   System.Data.SQLite.netmodule
 0001:00001644       ?System.Data.SQLite.SQLiteConvert.GetDefaultTypeName@@00010O1248 10002644 f   System.Data.SQLite.netmodule
 0001:00001688       ?System.Data.SQLite.SQLiteConvert.DefaultTypeNameWarning@@000301117911300O 10002688 f   System.Data.SQLite.netmodule
 0001:000016cc       ?System.Data.SQLite.SQLiteConvert.DefaultDbTypeWarning@@0003010O113015118091011179 100026cc f   System.Data.SQLite.netmodule
 0001:00001718       ?System.Data.SQLite.SQLiteConvert.DbTypeToTypeName@@00030O124811791130 10002718 f   System.Data.SQLite.netmodule
 0001:00001808       ?System.Data.SQLite.SQLiteConvert.DbTypeToType@@000112808N1179 10002808 f   System.Data.SQLite.netmodule
 0001:0000181c       ?System.Data.SQLite.SQLiteConvert.TypeToAffinity@@000111809M12808N 1000281c f   System.Data.SQLite.netmodule
 0001:00001864       ?System.Data.SQLite.SQLiteConvert.GetSQLiteDbTypeMap@@00001280M0 10002864 f   System.Data.SQLite.netmodule
 0001:00001d20       ?System.Data.SQLite.SQLiteConvert.IsStringDbType@@0001021179 10002d20 f   System.Data.SQLite.netmodule
 0001:00001d50       ?System.Data.SQLite.SQLiteConvert.GetDefaultDbType@@000111791248 10002d50 f   System.Data.SQLite.netmodule
 0001:00001db0       ?System.Data.SQLite.SQLiteConvert.LooksLikeNull@@0001020O 10002db0 f   System.Data.SQLite.netmodule
 0001:00001dc4       ?System.Data.SQLite.SQLiteConvert.LooksLikeInt64@@0001020O 10002dc4 f   System.Data.SQLite.netmodule
 0001:00001df8       ?System.Data.SQLite.SQLiteConvert.LooksLikeDouble@@0001020O 10002df8 f   System.Data.SQLite.netmodule
 0001:00001e30       ?System.Data.SQLite.SQLiteConvert.LooksLikeDateTime@@00020212140O 10002e30 f   System.Data.SQLite.netmodule
 0001:00001e84       ?System.Data.SQLite.SQLiteConvert.TypeNameToDbType@@0003117912480O1130 10002e84 f   System.Data.SQLite.netmodule
 0001:00002024       ?System.Data.SQLite.SQLiteConvert..cctor@@000001 10003024 f   System.Data.SQLite.netmodule
 0001:000026b4       ?System.Data.SQLite.SQLiteBase..ctor@@2003011180K41180850O 100036b4 f   System.Data.SQLite.netmodule
 0001:000026cc       ?System.Data.SQLite.SQLiteBase.Dispose@@200001 100036cc f   System.Data.SQLite.netmodule
 0001:000026e8       ?System.Data.SQLite.SQLiteBase.CheckDisposed@@200001 100036e8 f   System.Data.SQLite.netmodule
 0001:00002714       ?System.Data.SQLite.SQLiteBase.Dispose@@20010102 10003714 f   System.Data.SQLite.netmodule
 0001:00002730       ?System.Data.SQLite.SQLiteBase.Finalize@@200001 10003730 f   System.Data.SQLite.netmodule
 0001:0000276c       ?System.Data.SQLite.SQLiteBase.FallbackGetErrorString@@00010O1180O0 1000376c f   System.Data.SQLite.netmodule
 0001:0000279c       ?System.Data.SQLite.SQLiteBase.GetErrorString@@00010O1180O0 1000379c f   System.Data.SQLite.netmodule
 0001:000027f0       ?System.Data.SQLite.SQLiteBase.GetLastError@@00020O1281LM18 100037f0 f   System.Data.SQLite.netmodule
 0001:00002894       ?System.Data.SQLite.SQLiteBase.FinishBackup@@0002011281LM18 10003894 f   System.Data.SQLite.netmodule
 0001:00002914       ?System.Data.SQLite.SQLiteBase.FinalizeStatement@@0002011281LM18 10003914 f   System.Data.SQLite.netmodule
 0001:00002994       ?System.Data.SQLite.SQLiteBase.CloseConnection@@0002011281LM18 10003994 f   System.Data.SQLite.netmodule
 0001:00002a1c       ?System.Data.SQLite.SQLiteBase.CloseConnectionV2@@0002011281LM18 10003a1c f   System.Data.SQLite.netmodule
 0001:00002aa4       ?System.Data.SQLite.SQLiteBase.ResetConnection@@0003021281LM1802 10003aa4 f   System.Data.SQLite.netmodule
 0001:00002bd0       ?System.Data.SQLite.SQLiteBase.IsAutocommit@@0002021281LM18 10003bd0 f   System.Data.SQLite.netmodule
 0001:00002c64       ?System.Data.SQLite.SQLiteBase..cctor@@000001 10003c64 f   System.Data.SQLite.netmodule
 0001:00002d7c       ?System.Data.SQLite.SQLite3..ctor@@2006011180K41180850O180O02 10003d7c f   System.Data.SQLite.netmodule
 0001:00002e08       ?System.Data.SQLite.SQLite3.CheckDisposed@@200001 10003e08 f   System.Data.SQLite.netmodule
 0001:00002e34       ?System.Data.SQLite.SQLite3.Dispose@@20010102 10003e34 f   System.Data.SQLite.netmodule
 0001:00002e84       ?System.Data.SQLite.SQLite3.DisposeModules@@200001 10003e84 f   System.Data.SQLite.netmodule
 0001:00002f00       ?System.Data.SQLite.SQLite3.Close@@20010102 10003f00 f   System.Data.SQLite.netmodule
 0001:00002f7c       ?System.Data.SQLite.SQLite3.Cancel@@200001 10003f7c f   System.Data.SQLite.netmodule
 0001:00002f9c       ?System.Data.SQLite.SQLite3.BindFunction@@2003011281101280O81130 10003f9c f   System.Data.SQLite.netmodule
 0001:00002fd4       ?System.Data.SQLite.SQLite3.get_Version@@20000O 10003fd4 f   System.Data.SQLite.netmodule
 0001:00002fe8       ?System.Data.SQLite.SQLite3.get_VersionNumber@@200008 10003fe8 f   System.Data.SQLite.netmodule
 0001:00002ffc       ?System.Data.SQLite.SQLite3.get_DefineConstants@@00000O 10003ffc f   System.Data.SQLite.netmodule
 0001:0000307c       ?System.Data.SQLite.SQLite3.get_SQLiteVersion@@00000O 1000407c f   System.Data.SQLite.netmodule
 0001:00003094       ?System.Data.SQLite.SQLite3.get_SQLiteVersionNumber@@000008 10004094 f   System.Data.SQLite.netmodule
 0001:000030a8       ?System.Data.SQLite.SQLite3.get_SQLiteSourceId@@00000O 100040a8 f   System.Data.SQLite.netmodule
 0001:000030c0       ?System.Data.SQLite.SQLite3.get_SQLiteCompileOptions@@00000O 100040c0 f   System.Data.SQLite.netmodule
 0001:00003120       ?System.Data.SQLite.SQLite3.get_InteropVersion@@00000O 10004120 f   System.Data.SQLite.netmodule
 0001:00003138       ?System.Data.SQLite.SQLite3.get_InteropSourceId@@00000O 10004138 f   System.Data.SQLite.netmodule
 0001:00003150       ?System.Data.SQLite.SQLite3.get_InteropCompileOptions@@00000O 10004150 f   System.Data.SQLite.netmodule
 0001:000031b0       ?System.Data.SQLite.SQLite3.get_AutoCommit@@200002 100041b0 f   System.Data.SQLite.netmodule
 0001:000031d4       ?System.Data.SQLite.SQLite3.get_LastInsertRowId@@20000K 100041d4 f   System.Data.SQLite.netmodule
 0001:000031f4       ?System.Data.SQLite.SQLite3.get_Changes@@200008 100041f4 f   System.Data.SQLite.netmodule
 0001:00003214       ?System.Data.SQLite.SQLite3.get_MemoryUsed@@20000K 10004214 f   System.Data.SQLite.netmodule
 0001:00003228       ?System.Data.SQLite.SQLite3.get_StaticMemoryUsed@@00000K 10004228 f   System.Data.SQLite.netmodule
 0001:0000323c       ?System.Data.SQLite.SQLite3.get_MemoryHighwater@@20000K 1000423c f   System.Data.SQLite.netmodule
 0001:00003250       ?System.Data.SQLite.SQLite3.get_StaticMemoryHighwater@@00000K 10004250 f   System.Data.SQLite.netmodule
 0001:00003264       ?System.Data.SQLite.SQLite3.get_OwnHandle@@200002 10004264 f   System.Data.SQLite.netmodule
 0001:00003290       ?System.Data.SQLite.SQLite3.SetMemoryStatus@@20011180O002 10004290 f   System.Data.SQLite.netmodule
 0001:000032a4       ?System.Data.SQLite.SQLite3.StaticSetMemoryStatus@@00011180O002 100042a4 f   System.Data.SQLite.netmodule
 0001:000032c4       ?System.Data.SQLite.SQLite3.ReleaseMemory@@20001180O0 100042c4 f   System.Data.SQLite.netmodule
 0001:000032e4       ?System.Data.SQLite.SQLite3.StaticReleaseMemory@@00061180O0080202100810021009 100042e4 f   System.Data.SQLite.netmodule
 0001:0000332c       ?System.Data.SQLite.SQLite3.Shutdown@@20001180O0 1000432c f   System.Data.SQLite.netmodule
 0001:00003340       ?System.Data.SQLite.SQLite3.StaticShutdown@@00011180O002 10004340 f   System.Data.SQLite.netmodule
 0001:00003374       ?System.Data.SQLite.SQLite3.IsOpen@@200002 10004374 f   System.Data.SQLite.netmodule
 0001:000033a8       ?System.Data.SQLite.SQLite3.Open@@2005010O1130112M0802 100043a8 f   System.Data.SQLite.netmodule
 0001:00003538       ?System.Data.SQLite.SQLite3.ClearPool@@200001 10004538 f   System.Data.SQLite.netmodule
 0001:00003550       ?System.Data.SQLite.SQLite3.CountPool@@200008 10004550 f   System.Data.SQLite.netmodule
 0001:0000357c       ?System.Data.SQLite.SQLite3.SetTimeout@@20010108 1000457c f   System.Data.SQLite.netmodule
 0001:000035c8       ?System.Data.SQLite.SQLite3.Step@@200102128138 100045c8 f   System.Data.SQLite.netmodule
 0001:00003670       ?System.Data.SQLite.SQLite3.Reset@@20011180O0128138 10004670 f   System.Data.SQLite.netmodule
 0001:00003720       ?System.Data.SQLite.SQLite3.GetLastError@@20000O 10004720 f   System.Data.SQLite.netmodule
 0001:00003734       ?System.Data.SQLite.SQLite3.GetLastError@@20010O0O 10004734 f   System.Data.SQLite.netmodule
 0001:00003764       ?System.Data.SQLite.SQLite3.Prepare@@200512813812480O12813809100O 10004764 f   System.Data.SQLite.netmodule
 0001:00003b24       ?System.Data.SQLite.SQLite3.LogBind@@0002011281M008 10004b24 f   System.Data.SQLite.netmodule
 0001:00003b68       ?System.Data.SQLite.SQLite3.LogBind@@0003011281M0081251 10004b68 f   System.Data.SQLite.netmodule
 0001:00003bb4       ?System.Data.SQLite.SQLite3.FormatDateTime@@00010O117N 10004bb4 f   System.Data.SQLite.netmodule
 0001:00003c14       ?System.Data.SQLite.SQLite3.LogBind@@0003011281M008117N 10004c14 f   System.Data.SQLite.netmodule
 0001:00003c68       ?System.Data.SQLite.SQLite3.LogBind@@0003011281M0080O 10004c68 f   System.Data.SQLite.netmodule
 0001:00003cc0       ?System.Data.SQLite.SQLite3.ToHexadecimalString@@00010O1N05 10004cc0 f   System.Data.SQLite.netmodule
 0001:00003d0c       ?System.Data.SQLite.SQLite3.LogBind@@0003011281M0081N05 10004d0c f   System.Data.SQLite.netmodule
 0001:00003d6c       ?System.Data.SQLite.SQLite3.Bind_Double@@2004011281381130080N 10004d6c f   System.Data.SQLite.netmodule
 0001:00003db4       ?System.Data.SQLite.SQLite3.Bind_Int32@@20040112813811300808 10004db4 f   System.Data.SQLite.netmodule
 0001:00003dfc       ?System.Data.SQLite.SQLite3.Bind_UInt32@@20040112813811300809 10004dfc f   System.Data.SQLite.netmodule
 0001:00003e60       ?System.Data.SQLite.SQLite3.Bind_Int64@@2004011281381130080K 10004e60 f   System.Data.SQLite.netmodule
 0001:00003ea8       ?System.Data.SQLite.SQLite3.Bind_UInt64@@2004011281381130080L 10004ea8 f   System.Data.SQLite.netmodule
 0001:00003ef0       ?System.Data.SQLite.SQLite3.Bind_Text@@2004011281381130080O 10004ef0 f   System.Data.SQLite.netmodule
 0001:00003f54       ?System.Data.SQLite.SQLite3.Bind_DateTime@@200401128138113008117N 10004f54 f   System.Data.SQLite.netmodule
 0001:000040b0       ?System.Data.SQLite.SQLite3.Bind_Blob@@2004011281381130081N05 100050b0 f   System.Data.SQLite.netmodule
 0001:000040fc       ?System.Data.SQLite.SQLite3.Bind_Null@@200301128138113008 100050fc f   System.Data.SQLite.netmodule
 0001:0000413c       ?System.Data.SQLite.SQLite3.Bind_ParamCount@@2002081281381130 1000513c f   System.Data.SQLite.netmodule
 0001:00004198       ?System.Data.SQLite.SQLite3.Bind_ParamName@@20030O128138113008 10005198 f   System.Data.SQLite.netmodule
 0001:00004204       ?System.Data.SQLite.SQLite3.Bind_ParamIndex@@20030812813811300O 10005204 f   System.Data.SQLite.netmodule
 0001:0000426c       ?System.Data.SQLite.SQLite3.ColumnCount@@200108128138 1000526c f   System.Data.SQLite.netmodule
 0001:0000428c       ?System.Data.SQLite.SQLite3.ColumnName@@20020O12813808 1000528c f   System.Data.SQLite.netmodule
 0001:000042d0       ?System.Data.SQLite.SQLite3.ColumnAffinity@@200211809M12813808 100052d0 f   System.Data.SQLite.netmodule
 0001:000042f0       ?System.Data.SQLite.SQLite3.ColumnType@@20030O128138081011809M 100052f0 f   System.Data.SQLite.netmodule
 0001:00004350       ?System.Data.SQLite.SQLite3.ColumnIndex@@2002081281380O 10005350 f   System.Data.SQLite.netmodule
 0001:00004388       ?System.Data.SQLite.SQLite3.ColumnOriginalName@@20020O12813808 10005388 f   System.Data.SQLite.netmodule
 0001:000043b0       ?System.Data.SQLite.SQLite3.ColumnDatabaseName@@20020O12813808 100053b0 f   System.Data.SQLite.netmodule
 0001:000043d8       ?System.Data.SQLite.SQLite3.ColumnTableName@@20020O12813808 100053d8 f   System.Data.SQLite.netmodule
 0001:00004400       ?System.Data.SQLite.SQLite3.ColumnMetaData@@2008010O0O0O100O100O100210021002 10005400 f   System.Data.SQLite.netmodule
 0001:0000447c       ?System.Data.SQLite.SQLite3.GetDouble@@20020N12813808 1000547c f   System.Data.SQLite.netmodule
 0001:0000449c       ?System.Data.SQLite.SQLite3.GetSByte@@20020412813808 1000549c f   System.Data.SQLite.netmodule
 0001:000044b8       ?System.Data.SQLite.SQLite3.GetByte@@20020512813808 100054b8 f   System.Data.SQLite.netmodule
 0001:000044d4       ?System.Data.SQLite.SQLite3.GetInt16@@20020612813808 100054d4 f   System.Data.SQLite.netmodule
 0001:000044f0       ?System.Data.SQLite.SQLite3.GetUInt16@@20020712813808 100054f0 f   System.Data.SQLite.netmodule
 0001:0000450c       ?System.Data.SQLite.SQLite3.GetInt32@@20020812813808 1000550c f   System.Data.SQLite.netmodule
 0001:0000452c       ?System.Data.SQLite.SQLite3.GetUInt32@@20020912813808 1000552c f   System.Data.SQLite.netmodule
 0001:00004544       ?System.Data.SQLite.SQLite3.GetInt64@@20020K12813808 10005544 f   System.Data.SQLite.netmodule
 0001:00004564       ?System.Data.SQLite.SQLite3.GetUInt64@@20020L12813808 10005564 f   System.Data.SQLite.netmodule
 0001:0000457c       ?System.Data.SQLite.SQLite3.GetText@@20020O12813808 1000557c f   System.Data.SQLite.netmodule
 0001:000045a4       ?System.Data.SQLite.SQLite3.GetDateTime@@2002117N12813808 100055a4 f   System.Data.SQLite.netmodule
 0001:00004624       ?System.Data.SQLite.SQLite3.GetBytes@@20060K12813808081N050808 10005624 f   System.Data.SQLite.netmodule
 0001:000046a0       ?System.Data.SQLite.SQLite3.GetChars@@20060K12813808081N030808 100056a0 f   System.Data.SQLite.netmodule
 0001:000046fc       ?System.Data.SQLite.SQLite3.IsNull@@20020212813808 100056fc f   System.Data.SQLite.netmodule
 0001:00004714       ?System.Data.SQLite.SQLite3.AggregateCount@@20010818 10005714 f   System.Data.SQLite.netmodule
 0001:00004728       ?System.Data.SQLite.SQLite3.CreateFunction@@2006010O08021280P81280P81280PM 10005728 f   System.Data.SQLite.netmodule
 0001:000047a0       ?System.Data.SQLite.SQLite3.CreateCollation@@2003010O128100128100 100057a0 f   System.Data.SQLite.netmodule
 0001:000047fc       ?System.Data.SQLite.SQLite3.ContextCollateCompare@@200408118108180O0O 100057fc f   System.Data.SQLite.netmodule
 0001:00004858       ?System.Data.SQLite.SQLite3.ContextCollateCompare@@200408118108181N031N03 10005858 f   System.Data.SQLite.netmodule
 0001:000048b4       ?System.Data.SQLite.SQLite3.GetCollationSequence@@200211810M1280O818 100058b4 f   System.Data.SQLite.netmodule
 0001:00004900       ?System.Data.SQLite.SQLite3.GetParamValueBytes@@20050K18081N050808 10005900 f   System.Data.SQLite.netmodule
 0001:00004960       ?System.Data.SQLite.SQLite3.GetParamValueDouble@@20010N18 10005960 f   System.Data.SQLite.netmodule
 0001:00004978       ?System.Data.SQLite.SQLite3.GetParamValueInt32@@20010818 10005978 f   System.Data.SQLite.netmodule
 0001:0000498c       ?System.Data.SQLite.SQLite3.GetParamValueInt64@@20010K18 1000598c f   System.Data.SQLite.netmodule
 0001:000049a4       ?System.Data.SQLite.SQLite3.GetParamValueText@@20010O18 100059a4 f   System.Data.SQLite.netmodule
 0001:000049c0       ?System.Data.SQLite.SQLite3.GetParamValueType@@200111809M18 100059c0 f   System.Data.SQLite.netmodule
 0001:000049d4       ?System.Data.SQLite.SQLite3.ReturnBlob@@200201181N05 100059d4 f   System.Data.SQLite.netmodule
 0001:000049f4       ?System.Data.SQLite.SQLite3.ReturnDouble@@200201180N 100059f4 f   System.Data.SQLite.netmodule
 0001:00004a08       ?System.Data.SQLite.SQLite3.ReturnError@@200201180O 10005a08 f   System.Data.SQLite.netmodule
 0001:00004a28       ?System.Data.SQLite.SQLite3.ReturnInt32@@2002011808 10005a28 f   System.Data.SQLite.netmodule
 0001:00004a3c       ?System.Data.SQLite.SQLite3.ReturnInt64@@200201180K 10005a3c f   System.Data.SQLite.netmodule
 0001:00004a50       ?System.Data.SQLite.SQLite3.ReturnNull@@20010118 10005a50 f   System.Data.SQLite.netmodule
 0001:00004a64       ?System.Data.SQLite.SQLite3.ReturnText@@200201180O 10005a64 f   System.Data.SQLite.netmodule
 0001:00004a90       ?System.Data.SQLite.SQLite3.CreateModule@@2002011282181130 10005a90 f   System.Data.SQLite.netmodule
 0001:00004b60       ?System.Data.SQLite.SQLite3.DisposeModule@@2002011282181130 10005b60 f   System.Data.SQLite.netmodule
 0001:00004b84       ?System.Data.SQLite.SQLite3.AggregateContext@@20011818 10005b84 f   System.Data.SQLite.netmodule
 0001:00004b98       ?System.Data.SQLite.SQLite3.DeclareVirtualTable@@20031180O01282180O100O 10005b98 f   System.Data.SQLite.netmodule
 0001:00004c28       ?System.Data.SQLite.SQLite3.DeclareVirtualFunction@@20041180O0128218080O100O 10005c28 f   System.Data.SQLite.netmodule
 0001:00004cb0       ?System.Data.SQLite.SQLite3.SetLoadExtension@@20010102 10005cb0 f   System.Data.SQLite.netmodule
 0001:00004ce8       ?System.Data.SQLite.SQLite3.LoadExtension@@2002010O0O 10005ce8 f   System.Data.SQLite.netmodule
 0001:00004d9c       ?System.Data.SQLite.SQLite3.SetExtendedResultCodes@@20010102 10005d9c f   System.Data.SQLite.netmodule
 0001:00004dd4       ?System.Data.SQLite.SQLite3.ResultCode@@20001180O0 10005dd4 f   System.Data.SQLite.netmodule
 0001:00004df4       ?System.Data.SQLite.SQLite3.ExtendedResultCode@@20001180O0 10005df4 f   System.Data.SQLite.netmodule
 0001:00004e14       ?System.Data.SQLite.SQLite3.LogMessage@@2002011180O00O 10005e14 f   System.Data.SQLite.netmodule
 0001:00004e28       ?System.Data.SQLite.SQLite3.StaticLogMessage@@0002011180O00O 10005e28 f   System.Data.SQLite.netmodule
 0001:00004e44       ?System.Data.SQLite.SQLite3.SetPassword@@2001011N05 10005e44 f   System.Data.SQLite.netmodule
 0001:00004e78       ?System.Data.SQLite.SQLite3.ChangePassword@@2001011N05 10005e78 f   System.Data.SQLite.netmodule
 0001:00004eb0       ?System.Data.SQLite.SQLite3.SetAuthorizerHook@@2001011250 10005eb0 f   System.Data.SQLite.netmodule
 0001:00004ed4       ?System.Data.SQLite.SQLite3.SetUpdateHook@@2001011254 10005ed4 f   System.Data.SQLite.netmodule
 0001:00004ef8       ?System.Data.SQLite.SQLite3.SetCommitHook@@2001011258 10005ef8 f   System.Data.SQLite.netmodule
 0001:00004f1c       ?System.Data.SQLite.SQLite3.SetTraceCallback@@200101125M 10005f1c f   System.Data.SQLite.netmodule
 0001:00004f40       ?System.Data.SQLite.SQLite3.SetRollbackHook@@2001011260 10005f40 f   System.Data.SQLite.netmodule
 0001:00004f64       ?System.Data.SQLite.SQLite3.SetLogCallback@@20011180O01210 10005f64 f   System.Data.SQLite.netmodule
 0001:00004f80       ?System.Data.SQLite.SQLite3.InitializeBackup@@2003122412480O0O 10005f80 f   System.Data.SQLite.netmodule
 0001:000050cc       ?System.Data.SQLite.SQLite3.StepBackup@@2003021224081002 100060cc f   System.Data.SQLite.netmodule
 0001:00005158       ?System.Data.SQLite.SQLite3.RemainingBackup@@2001081224 10006158 f   System.Data.SQLite.netmodule
 0001:000051b0       ?System.Data.SQLite.SQLite3.PageCountBackup@@2001081224 100061b0 f   System.Data.SQLite.netmodule
 0001:00005208       ?System.Data.SQLite.SQLite3.FinishBackup@@2001011224 10006208 f   System.Data.SQLite.netmodule
 0001:00005280       ?System.Data.SQLite.SQLite3.IsInitialized@@200002 10006280 f   System.Data.SQLite.netmodule
 0001:00005294       ?System.Data.SQLite.SQLite3.StaticIsInitialized@@000002 10006294 f   System.Data.SQLite.netmodule
 0001:00005318       ?System.Data.SQLite.SQLite3.GetValue@@20041M1281381130081280LM 10006318 f   System.Data.SQLite.netmodule
 0001:00005548       ?System.Data.SQLite.SQLite3.GetCursorForTable@@2003081281380808 10006548 f   System.Data.SQLite.netmodule
 0001:00005568       ?System.Data.SQLite.SQLite3.GetRowIdForCursor@@20020K12813808 10006568 f   System.Data.SQLite.netmodule
 0001:00005590       ?System.Data.SQLite.SQLite3.GetIndexColumnExtendedInfo@@2006010O0O0O10081008100O 10006590 f   System.Data.SQLite.netmodule
 0001:000055e0       ?System.Data.SQLite.SQLite3.FileControl@@20031180O00O0818 100065e0 f   System.Data.SQLite.netmodule
 0001:0000560c       ?System.Data.SQLite.SQLite3..cctor@@000001 1000660c f   System.Data.SQLite.netmodule
 0001:00005624       ?System.Data.SQLite.SQLite3_UTF16..ctor@@2006011180K41180850O180O02 10006624 f   System.Data.SQLite.netmodule
 0001:00005640       ?System.Data.SQLite.SQLite3_UTF16.CheckDisposed@@200001 10006640 f   System.Data.SQLite.netmodule
 0001:0000566c       ?System.Data.SQLite.SQLite3_UTF16.Dispose@@20010102 1000666c f   System.Data.SQLite.netmodule
 0001:000056b0       ?System.Data.SQLite.SQLite3_UTF16.ToString@@20020O1808 100066b0 f   System.Data.SQLite.netmodule
 0001:000056cc       ?System.Data.SQLite.SQLite3_UTF16.UTF16ToString@@00020O1808 100066cc f   System.Data.SQLite.netmodule
 0001:00005704       ?System.Data.SQLite.SQLite3_UTF16.Open@@2005010O1130112M0802 10006704 f   System.Data.SQLite.netmodule
 0001:000058a0       ?System.Data.SQLite.SQLite3_UTF16.Bind_DateTime@@200401128138113008117N 100068a0 f   System.Data.SQLite.netmodule
 0001:00005908       ?System.Data.SQLite.SQLite3_UTF16.Bind_Text@@2004011281381130080O 10006908 f   System.Data.SQLite.netmodule
 0001:0000595c       ?System.Data.SQLite.SQLite3_UTF16.GetDateTime@@2002117N12813808 1000695c f   System.Data.SQLite.netmodule
 0001:000059d0       ?System.Data.SQLite.SQLite3_UTF16.ColumnName@@20020O12813808 100069d0 f   System.Data.SQLite.netmodule
 0001:00005a14       ?System.Data.SQLite.SQLite3_UTF16.GetText@@20020O12813808 10006a14 f   System.Data.SQLite.netmodule
 0001:00005a3c       ?System.Data.SQLite.SQLite3_UTF16.ColumnOriginalName@@20020O12813808 10006a3c f   System.Data.SQLite.netmodule
 0001:00005a64       ?System.Data.SQLite.SQLite3_UTF16.ColumnDatabaseName@@20020O12813808 10006a64 f   System.Data.SQLite.netmodule
 0001:00005a8c       ?System.Data.SQLite.SQLite3_UTF16.ColumnTableName@@20020O12813808 10006a8c f   System.Data.SQLite.netmodule
 0001:00005ab4       ?System.Data.SQLite.SQLite3_UTF16.GetParamValueText@@20010O18 10006ab4 f   System.Data.SQLite.netmodule
 0001:00005ad0       ?System.Data.SQLite.SQLite3_UTF16.ReturnError@@200201180O 10006ad0 f   System.Data.SQLite.netmodule
 0001:00005aec       ?System.Data.SQLite.SQLite3_UTF16.ReturnText@@200201180O 10006aec f   System.Data.SQLite.netmodule
 0001:00005b10       ?System.Data.SQLite.SQLiteBackup..ctor@@20060112181281M4181N05181N05 10006b10 f   System.Data.SQLite.netmodule
 0001:00005b50       ?System.Data.SQLite.SQLiteBackup.Dispose@@200001 10006b50 f   System.Data.SQLite.netmodule
 0001:00005b6c       ?System.Data.SQLite.SQLiteBackup.CheckDisposed@@200001 10006b6c f   System.Data.SQLite.netmodule
 0001:00005b98       ?System.Data.SQLite.SQLiteBackup.Dispose@@20010102 10006b98 f   System.Data.SQLite.netmodule
 0001:00005bfc       ?System.Data.SQLite.SQLiteBackup.Finalize@@200001 10006bfc f   System.Data.SQLite.netmodule
 0001:00005c38       ?System.Data.SQLite.SQLiteCommand..ctor@@200001 10006c38 f   System.Data.SQLite.netmodule
 0001:00005c50       ?System.Data.SQLite.SQLiteCommand..ctor@@2001010O 10006c50 f   System.Data.SQLite.netmodule
 0001:00005c68       ?System.Data.SQLite.SQLiteCommand..ctor@@2002010O1248 10006c68 f   System.Data.SQLite.netmodule
 0001:00005c80       ?System.Data.SQLite.SQLiteCommand..ctor@@2001011248 10006c80 f   System.Data.SQLite.netmodule
 0001:00005c98       ?System.Data.SQLite.SQLiteCommand..ctor@@2001011238 10006c98 f   System.Data.SQLite.netmodule
 0001:00005d44       ?System.Data.SQLite.SQLiteCommand..ctor@@2003010O124812813M 10006d44 f   System.Data.SQLite.netmodule
 0001:00005db8       ?System.Data.SQLite.SQLiteCommand.Check@@0001011238 10006db8 f   System.Data.SQLite.netmodule
 0001:00005ddc       ?System.Data.SQLite.SQLiteCommand.CheckDisposed@@200001 10006ddc f   System.Data.SQLite.netmodule
 0001:00005e08       ?System.Data.SQLite.SQLiteCommand.Dispose@@20010102 10006e08 f   System.Data.SQLite.netmodule
 0001:00005ef4       ?System.Data.SQLite.SQLiteCommand.GetFlags@@000111301238 10006ef4 f   System.Data.SQLite.netmodule
 0001:00005f40       ?System.Data.SQLite.SQLiteCommand.DisposeStatements@@200001 10006f40 f   System.Data.SQLite.netmodule
 0001:00005f8c       ?System.Data.SQLite.SQLiteCommand.ClearCommands@@200001 10006f8c f   System.Data.SQLite.netmodule
 0001:00005ff8       ?System.Data.SQLite.SQLiteCommand.BuildNextCommand@@2000128138 10006ff8 f   System.Data.SQLite.netmodule
 0001:0000611c       ?System.Data.SQLite.SQLiteCommand.GetStatement@@200112813808 1000711c f   System.Data.SQLite.netmodule
 0001:00006170       ?System.Data.SQLite.SQLiteCommand.Cancel@@200001 10007170 f   System.Data.SQLite.netmodule
 0001:000061a8       ?System.Data.SQLite.SQLiteCommand.get_CommandText@@20000O 100071a8 f   System.Data.SQLite.netmodule
 0001:000061c4       ?System.Data.SQLite.SQLiteCommand.set_CommandText@@2001010O 100071c4 f   System.Data.SQLite.netmodule
 0001:0000621c       ?System.Data.SQLite.SQLiteCommand.get_CommandTimeout@@200008 1000721c f   System.Data.SQLite.netmodule
 0001:00006238       ?System.Data.SQLite.SQLiteCommand.set_CommandTimeout@@20010108 10007238 f   System.Data.SQLite.netmodule
 0001:00006254       ?System.Data.SQLite.SQLiteCommand.get_CommandType@@20001180K1 10007254 f   System.Data.SQLite.netmodule
 0001:00006268       ?System.Data.SQLite.SQLiteCommand.set_CommandType@@2001011180K1 10007268 f   System.Data.SQLite.netmodule
 0001:00006288       ?System.Data.SQLite.SQLiteCommand.CreateDbParameter@@20001255 10007288 f   System.Data.SQLite.netmodule
 0001:0000629c       ?System.Data.SQLite.SQLiteCommand.CreateParameter@@2000128130 1000729c f   System.Data.SQLite.netmodule
 0001:000062b4       ?System.Data.SQLite.SQLiteCommand.get_Connection@@20001248 100072b4 f   System.Data.SQLite.netmodule
 0001:000062d0       ?System.Data.SQLite.SQLiteCommand.set_Connection@@2001011248 100072d0 f   System.Data.SQLite.netmodule
 0001:00006334       ?System.Data.SQLite.SQLiteCommand.get_DbConnection@@20001229 10007334 f   System.Data.SQLite.netmodule
 0001:00006348       ?System.Data.SQLite.SQLiteCommand.set_DbConnection@@2001011229 10007348 f   System.Data.SQLite.netmodule
 0001:00006364       ?System.Data.SQLite.SQLiteCommand.get_Parameters@@2000128134 10007364 f   System.Data.SQLite.netmodule
 0001:00006380       ?System.Data.SQLite.SQLiteCommand.get_DbParameterCollection@@20001259 10007380 f   System.Data.SQLite.netmodule
 0001:00006394       ?System.Data.SQLite.SQLiteCommand.get_Transaction@@200012813M 10007394 f   System.Data.SQLite.netmodule
 0001:000063b0       ?System.Data.SQLite.SQLiteCommand.set_Transaction@@20010112813M 100073b0 f   System.Data.SQLite.netmodule
 0001:00006428       ?System.Data.SQLite.SQLiteCommand.get_DbTransaction@@2000125N 10007428 f   System.Data.SQLite.netmodule
 0001:0000643c       ?System.Data.SQLite.SQLiteCommand.set_DbTransaction@@200101125N 1000743c f   System.Data.SQLite.netmodule
 0001:00006458       ?System.Data.SQLite.SQLiteCommand.InitializeForReader@@200001 10007458 f   System.Data.SQLite.netmodule
 0001:000064e8       ?System.Data.SQLite.SQLiteCommand.ExecuteDbDataReader@@2001123N1180K5 100074e8 f   System.Data.SQLite.netmodule
 0001:000064fc       ?System.Data.SQLite.SQLiteCommand.Execute@@00041M0O1180L00O1N1M 100074fc f   System.Data.SQLite.netmodule
 0001:00006514       ?System.Data.SQLite.SQLiteCommand.Execute@@00051M0O1180L01180K50O1N1M 10007514 f   System.Data.SQLite.netmodule
 0001:00006624       ?System.Data.SQLite.SQLiteCommand.ExecuteReader@@20011280N01180K5 10007624 f   System.Data.SQLite.netmodule
 0001:00006654       ?System.Data.SQLite.SQLiteCommand.ExecuteReader@@20001280N0 10007654 f   System.Data.SQLite.netmodule
 0001:00006670       ?System.Data.SQLite.SQLiteCommand.ClearDataReader@@200001 10007670 f   System.Data.SQLite.netmodule
 0001:00006684       ?System.Data.SQLite.SQLiteCommand.ExecuteNonQuery@@200008 10007684 f   System.Data.SQLite.netmodule
 0001:000066a0       ?System.Data.SQLite.SQLiteCommand.ExecuteNonQuery@@2001081180K5 100076a0 f   System.Data.SQLite.netmodule
 0001:000066f8       ?System.Data.SQLite.SQLiteCommand.ExecuteScalar@@20001M 100076f8 f   System.Data.SQLite.netmodule
 0001:00006714       ?System.Data.SQLite.SQLiteCommand.ExecuteScalar@@20011M1180K5 10007714 f   System.Data.SQLite.netmodule
 0001:00006770       ?System.Data.SQLite.SQLiteCommand.Prepare@@200001 10007770 f   System.Data.SQLite.netmodule
 0001:00006784       ?System.Data.SQLite.SQLiteCommand.get_UpdatedRowSource@@200011809N 10007784 f   System.Data.SQLite.netmodule
 0001:000067a0       ?System.Data.SQLite.SQLiteCommand.set_UpdatedRowSource@@20010111809N 100077a0 f   System.Data.SQLite.netmodule
 0001:000067bc       ?System.Data.SQLite.SQLiteCommand.get_DesignTimeVisible@@200002 100077bc f   System.Data.SQLite.netmodule
 0001:000067d8       ?System.Data.SQLite.SQLiteCommand.set_DesignTimeVisible@@20010102 100077d8 f   System.Data.SQLite.netmodule
 0001:000067f8       ?System.Data.SQLite.SQLiteCommand.Clone@@20001M 100077f8 f   System.Data.SQLite.netmodule
 0001:00006814       ?System.Data.SQLite.SQLiteCommand..cctor@@000001 10007814 f   System.Data.SQLite.netmodule
 0001:0000682c       ?System.Data.SQLite.SQLiteCommandBuilder..ctor@@200001 1000782c f   System.Data.SQLite.netmodule
 0001:00006840       ?System.Data.SQLite.SQLiteCommandBuilder..ctor@@2001011280MM 10007840 f   System.Data.SQLite.netmodule
 0001:00006870       ?System.Data.SQLite.SQLiteCommandBuilder.CheckDisposed@@200001 10007870 f   System.Data.SQLite.netmodule
 0001:0000689c       ?System.Data.SQLite.SQLiteCommandBuilder.Dispose@@20010102 1000789c f   System.Data.SQLite.netmodule
 0001:000068e0       ?System.Data.SQLite.SQLiteCommandBuilder.ApplyParameterInfo@@20040112551280K91180KN02 100078e0 f   System.Data.SQLite.netmodule
 0001:0000690c       ?System.Data.SQLite.SQLiteCommandBuilder.GetParameterName@@20010O0O 1000790c f   System.Data.SQLite.netmodule
 0001:00006934       ?System.Data.SQLite.SQLiteCommandBuilder.GetParameterName@@20010O08 10007934 f   System.Data.SQLite.netmodule
 0001:00006964       ?System.Data.SQLite.SQLiteCommandBuilder.GetParameterPlaceholder@@20010O08 10007964 f   System.Data.SQLite.netmodule
 0001:00006978       ?System.Data.SQLite.SQLiteCommandBuilder.SetRowUpdatingHandler@@2001011239 10007978 f   System.Data.SQLite.netmodule
 0001:000069c0       ?System.Data.SQLite.SQLiteCommandBuilder.RowUpdatingEventHandler@@2002011M1280L1 100079c0 f   System.Data.SQLite.netmodule
 0001:000069d4       ?System.Data.SQLite.SQLiteCommandBuilder.get_DataAdapter@@20001280MM 100079d4 f   System.Data.SQLite.netmodule
 0001:000069f4       ?System.Data.SQLite.SQLiteCommandBuilder.set_DataAdapter@@2001011280MM 100079f4 f   System.Data.SQLite.netmodule
 0001:00006a10       ?System.Data.SQLite.SQLiteCommandBuilder.GetDeleteCommand@@20001238 10007a10 f   System.Data.SQLite.netmodule
 0001:00006a30       ?System.Data.SQLite.SQLiteCommandBuilder.GetDeleteCommand@@2001123802 10007a30 f   System.Data.SQLite.netmodule
 0001:00006a50       ?System.Data.SQLite.SQLiteCommandBuilder.GetUpdateCommand@@20001238 10007a50 f   System.Data.SQLite.netmodule
 0001:00006a70       ?System.Data.SQLite.SQLiteCommandBuilder.GetUpdateCommand@@2001123802 10007a70 f   System.Data.SQLite.netmodule
 0001:00006a90       ?System.Data.SQLite.SQLiteCommandBuilder.GetInsertCommand@@20001238 10007a90 f   System.Data.SQLite.netmodule
 0001:00006ab0       ?System.Data.SQLite.SQLiteCommandBuilder.GetInsertCommand@@2001123802 10007ab0 f   System.Data.SQLite.netmodule
 0001:00006ad0       ?System.Data.SQLite.SQLiteCommandBuilder.get_CatalogLocation@@20001180L5 10007ad0 f   System.Data.SQLite.netmodule
 0001:00006aec       ?System.Data.SQLite.SQLiteCommandBuilder.set_CatalogLocation@@2001011180L5 10007aec f   System.Data.SQLite.netmodule
 0001:00006b08       ?System.Data.SQLite.SQLiteCommandBuilder.get_CatalogSeparator@@20000O 10007b08 f   System.Data.SQLite.netmodule
 0001:00006b24       ?System.Data.SQLite.SQLiteCommandBuilder.set_CatalogSeparator@@2001010O 10007b24 f   System.Data.SQLite.netmodule
 0001:00006b40       ?System.Data.SQLite.SQLiteCommandBuilder.get_QuotePrefix@@20000O 10007b40 f   System.Data.SQLite.netmodule
 0001:00006b5c       ?System.Data.SQLite.SQLiteCommandBuilder.set_QuotePrefix@@2001010O 10007b5c f   System.Data.SQLite.netmodule
 0001:00006b78       ?System.Data.SQLite.SQLiteCommandBuilder.get_QuoteSuffix@@20000O 10007b78 f   System.Data.SQLite.netmodule
 0001:00006b94       ?System.Data.SQLite.SQLiteCommandBuilder.set_QuoteSuffix@@2001010O 10007b94 f   System.Data.SQLite.netmodule
 0001:00006bb0       ?System.Data.SQLite.SQLiteCommandBuilder.QuoteIdentifier@@20010O0O 10007bb0 f   System.Data.SQLite.netmodule
 0001:00006c18       ?System.Data.SQLite.SQLiteCommandBuilder.UnquoteIdentifier@@20010O0O 10007c18 f   System.Data.SQLite.netmodule
 0001:00006cbc       ?System.Data.SQLite.SQLiteCommandBuilder.get_SchemaSeparator@@20000O 10007cbc f   System.Data.SQLite.netmodule
 0001:00006cd8       ?System.Data.SQLite.SQLiteCommandBuilder.set_SchemaSeparator@@2001010O 10007cd8 f   System.Data.SQLite.netmodule
 0001:00006cf4       ?System.Data.SQLite.SQLiteCommandBuilder.GetSchemaTable@@20011280L91219 10007cf4 f   System.Data.SQLite.netmodule
 0001:00006d4c       ?System.Data.SQLite.SQLiteCommandBuilder.HasSchemaPrimaryKey@@2001021280L9 10007d4c f   System.Data.SQLite.netmodule
 0001:00006dd4       ?System.Data.SQLite.SQLiteCommandBuilder.ResetIsUniqueSchemaColumn@@2001011280L9 10007dd4 f   System.Data.SQLite.netmodule
 0001:00006e78       ?System.Data.SQLite.ConnectionEventArgs..ctor@@2008011180K01280LN1280M11280M51280M912610O1M 10007e78 f   System.Data.SQLite.netmodule
 0001:00006ec8       ?System.Data.SQLite.SQLiteConnection.add__handlers@@0001011244 10007ec8 f   System.Data.SQLite.netmodule
 0001:00006efc       ?System.Data.SQLite.SQLiteConnection.remove__handlers@@0001011244 10007efc f   System.Data.SQLite.netmodule
 0001:00006f30       ?System.Data.SQLite.SQLiteConnection.add__authorizerHandler@@2001011264 10007f30 f   System.Data.SQLite.netmodule
 0001:00006f68       ?System.Data.SQLite.SQLiteConnection.remove__authorizerHandler@@2001011264 10007f68 f   System.Data.SQLite.netmodule
 0001:00006fa0       ?System.Data.SQLite.SQLiteConnection.add__updateHandler@@200101126M 10007fa0 f   System.Data.SQLite.netmodule
 0001:00006fd8       ?System.Data.SQLite.SQLiteConnection.remove__updateHandler@@200101126M 10007fd8 f   System.Data.SQLite.netmodule
 0001:00007010       ?System.Data.SQLite.SQLiteConnection.add__commitHandler@@2001011268 10008010 f   System.Data.SQLite.netmodule
 0001:00007048       ?System.Data.SQLite.SQLiteConnection.remove__commitHandler@@2001011268 10008048 f   System.Data.SQLite.netmodule
 0001:00007080       ?System.Data.SQLite.SQLiteConnection.add__traceHandler@@2001011270 10008080 f   System.Data.SQLite.netmodule
 0001:000070b8       ?System.Data.SQLite.SQLiteConnection.remove__traceHandler@@2001011270 100080b8 f   System.Data.SQLite.netmodule
 0001:000070f0       ?System.Data.SQLite.SQLiteConnection.add__rollbackHandler@@2001011280N9 100080f0 f   System.Data.SQLite.netmodule
 0001:00007128       ?System.Data.SQLite.SQLiteConnection.remove__rollbackHandler@@2001011280N9 10008128 f   System.Data.SQLite.netmodule
 0001:00007160       ?System.Data.SQLite.SQLiteConnection.add_StateChange@@2001011280NN 10008160 f   System.Data.SQLite.netmodule
 0001:00007198       ?System.Data.SQLite.SQLiteConnection.remove_StateChange@@2001011280NN 10008198 f   System.Data.SQLite.netmodule
 0001:000071d0       ?System.Data.SQLite.SQLiteConnection..ctor@@200001 100081d0 f   System.Data.SQLite.netmodule
 0001:000071e4       ?System.Data.SQLite.SQLiteConnection..ctor@@2001010O 100081e4 f   System.Data.SQLite.netmodule
 0001:000071fc       ?System.Data.SQLite.SQLiteConnection..ctor@@200301180O02 100081fc f   System.Data.SQLite.netmodule
 0001:00007248       ?System.Data.SQLite.SQLiteConnection..ctor@@2002010O02 10008248 f   System.Data.SQLite.netmodule
 0001:000072b0       ?System.Data.SQLite.SQLiteConnection..ctor@@2001011248 100082b0 f   System.Data.SQLite.netmodule
 0001:00007400       ?System.Data.SQLite.SQLiteConnection.OnChanged@@00020112481240 10008400 f   System.Data.SQLite.netmodule
 0001:00007478       ?System.Data.SQLite.SQLiteConnection.add_Changed@@0001011244 10008478 f   System.Data.SQLite.netmodule
 0001:000074cc       ?System.Data.SQLite.SQLiteConnection.remove_Changed@@0001011244 100084cc f   System.Data.SQLite.netmodule
 0001:00007518       ?System.Data.SQLite.SQLiteConnection.get_ConnectionPool@@000012808M 10008518 f   System.Data.SQLite.netmodule
 0001:0000752c       ?System.Data.SQLite.SQLiteConnection.set_ConnectionPool@@00010112808M 1000852c f   System.Data.SQLite.netmodule
 0001:00007540       ?System.Data.SQLite.SQLiteConnection.CreateHandle@@00011M18 10008540 f   System.Data.SQLite.netmodule
 0001:000075ac       ?System.Data.SQLite.SQLiteConnection.BackupDatabase@@20060112480O0O08127408 100085ac f   System.Data.SQLite.netmodule
 0001:000076f4       ?System.Data.SQLite.SQLiteConnection.ClearTypeMappings@@200008 100086f4 f   System.Data.SQLite.netmodule
 0001:00007720       ?System.Data.SQLite.SQLiteConnection.GetTypeMappings@@2000151231020O1M 10008720 f   System.Data.SQLite.netmodule
 0001:00007804       ?System.Data.SQLite.SQLiteConnection.AddTypeMapping@@2003080O117902 10008804 f   System.Data.SQLite.netmodule
 0001:00007890       ?System.Data.SQLite.SQLiteConnection.BindFunction@@2002011281101280O8 10008890 f   System.Data.SQLite.netmodule
 0001:000078cc       ?System.Data.SQLite.SQLiteConnection.Check@@0001011248 100088cc f   System.Data.SQLite.netmodule
 0001:00007958       ?System.Data.SQLite.SQLiteConnection.ParseConnectionString@@0002151280O1020O0O0O02 10008958 f   System.Data.SQLite.netmodule
 0001:00007978       ?System.Data.SQLite.SQLiteConnection.SetupSQLiteBase@@200101151280O1020O0O 10008978 f   System.Data.SQLite.netmodule
 0001:00007a4c       ?System.Data.SQLite.SQLiteConnection.CheckDisposed@@200001 10008a4c f   System.Data.SQLite.netmodule
 0001:00007a78       ?System.Data.SQLite.SQLiteConnection.Dispose@@20010102 10008a78 f   System.Data.SQLite.netmodule
 0001:00007ac8       ?System.Data.SQLite.SQLiteConnection.Clone@@20001M 10008ac8 f   System.Data.SQLite.netmodule
 0001:00007ae4       ?System.Data.SQLite.SQLiteConnection.CreateFile@@0001010O 10008ae4 f   System.Data.SQLite.netmodule
 0001:00007b00       ?System.Data.SQLite.SQLiteConnection.OnStateChange@@2002011180N5101280LN 10008b00 f   System.Data.SQLite.netmodule
 0001:00007b40       ?System.Data.SQLite.SQLiteConnection.GetFallbackDefaultIsolationLevel@@00001180MN 10008b40 f   System.Data.SQLite.netmodule
 0001:00007b54       ?System.Data.SQLite.SQLiteConnection.GetDefaultIsolationLevel@@20001180MN 10008b54 f   System.Data.SQLite.netmodule
 0001:00007b68       ?System.Data.SQLite.SQLiteConnection.BeginTransaction@@200212813M1180MN02 10008b68 f   System.Data.SQLite.netmodule
 0001:00007b98       ?System.Data.SQLite.SQLiteConnection.BeginTransaction@@200112813M02 10008b98 f   System.Data.SQLite.netmodule
 0001:00007bc8       ?System.Data.SQLite.SQLiteConnection.BeginTransaction@@200112813M1180MN 10008bc8 f   System.Data.SQLite.netmodule
 0001:00007be8       ?System.Data.SQLite.SQLiteConnection.BeginTransaction@@200012813M 10008be8 f   System.Data.SQLite.netmodule
 0001:00007c0c       ?System.Data.SQLite.SQLiteConnection.BeginDbTransaction@@2001125N1180MN 10008c0c f   System.Data.SQLite.netmodule
 0001:00007c80       ?System.Data.SQLite.SQLiteConnection.ChangeDatabase@@2001010O 10008c80 f   System.Data.SQLite.netmodule
 0001:00007cac       ?System.Data.SQLite.SQLiteConnection.Close@@200001 10008cac f   System.Data.SQLite.netmodule
 0001:00007d9c       ?System.Data.SQLite.SQLiteConnection.get_PoolCount@@200008 10008d9c f   System.Data.SQLite.netmodule
 0001:00007dc0       ?System.Data.SQLite.SQLiteConnection.ClearPool@@0001011248 10008dc0 f   System.Data.SQLite.netmodule
 0001:00007de4       ?System.Data.SQLite.SQLiteConnection.ClearAllPools@@000001 10008de4 f   System.Data.SQLite.netmodule
 0001:00007df8       ?System.Data.SQLite.SQLiteConnection.get_ConnectionString@@20000O 10008df8 f   System.Data.SQLite.netmodule
 0001:00007e14       ?System.Data.SQLite.SQLiteConnection.set_ConnectionString@@2001010O 10008e14 f   System.Data.SQLite.netmodule
 0001:00007e48       ?System.Data.SQLite.SQLiteConnection.CreateCommand@@20001238 10008e48 f   System.Data.SQLite.netmodule
 0001:00007e64       ?System.Data.SQLite.SQLiteConnection.CreateDbCommand@@20001219 10008e64 f   System.Data.SQLite.netmodule
 0001:00007e78       ?System.Data.SQLite.SQLiteConnection.get_DataSource@@20000O 10008e78 f   System.Data.SQLite.netmodule
 0001:00007e94       ?System.Data.SQLite.SQLiteConnection.get_Database@@20000O 10008e94 f   System.Data.SQLite.netmodule
 0001:00007eac       ?System.Data.SQLite.SQLiteConnection.MapUriPath@@00010O0O 10008eac f   System.Data.SQLite.netmodule
 0001:00007f00       ?System.Data.SQLite.SQLiteConnection.ParseConnectionString@@0001151280O1020O0O0O 10008f00 f   System.Data.SQLite.netmodule
 0001:0000801c       ?System.Data.SQLite.SQLiteConnection.ParseConnectionStringViaFramework@@0002151280O1020O0O0O02 1000901c f   System.Data.SQLite.netmodule
 0001:000080dc       ?System.Data.SQLite.SQLiteConnection.EnlistTransaction@@2001011280O5 100090dc f   System.Data.SQLite.netmodule
 0001:0000819c       ?System.Data.SQLite.SQLiteConnection.FindKey@@00030O151280O1020O0O0O0O 1000919c f   System.Data.SQLite.netmodule
 0001:000081e0       ?System.Data.SQLite.SQLiteConnection.TryParseEnum@@00031M12808N0O02 100091e0 f   System.Data.SQLite.netmodule
 0001:00008224       ?System.Data.SQLite.SQLiteConnection.TryParseByte@@0003020O1180O91005 10009224 f   System.Data.SQLite.netmodule
 0001:0000823c       ?System.Data.SQLite.SQLiteConnection.EnableExtensions@@20010102 1000923c f   System.Data.SQLite.netmodule
 0001:000082b0       ?System.Data.SQLite.SQLiteConnection.LoadExtension@@2001010O 100092b0 f   System.Data.SQLite.netmodule
 0001:000082cc       ?System.Data.SQLite.SQLiteConnection.LoadExtension@@2002010O0O 100092cc f   System.Data.SQLite.netmodule
 0001:00008320       ?System.Data.SQLite.SQLiteConnection.CreateModule@@200101128218 10009320 f   System.Data.SQLite.netmodule
 0001:00008378       ?System.Data.SQLite.SQLiteConnection.FromHexString@@00011N050O 10009378 f   System.Data.SQLite.netmodule
 0001:00008390       ?System.Data.SQLite.SQLiteConnection.ToHexString@@00010O1N05 10009390 f   System.Data.SQLite.netmodule
 0001:000083d4       ?System.Data.SQLite.SQLiteConnection.FromHexString@@00021N050O100O 100093d4 f   System.Data.SQLite.netmodule
 0001:00008464       ?System.Data.SQLite.SQLiteConnection.GetDefaultPooling@@200002 10009464 f   System.Data.SQLite.netmodule
 0001:000084d0       ?System.Data.SQLite.SQLiteConnection.GetEffectiveIsolationLevel@@20011180MN1180MN 100094d0 f   System.Data.SQLite.netmodule
 0001:0000854c       ?System.Data.SQLite.SQLiteConnection.Open@@200001 1000954c f   System.Data.SQLite.netmodule
 0001:00008efc       ?System.Data.SQLite.SQLiteConnection.OpenAndReturn@@20001248 10009efc f   System.Data.SQLite.netmodule
 0001:00008f18       ?System.Data.SQLite.SQLiteConnection.get_DefaultTimeout@@200008 10009f18 f   System.Data.SQLite.netmodule
 0001:00008f34       ?System.Data.SQLite.SQLiteConnection.set_DefaultTimeout@@20010108 10009f34 f   System.Data.SQLite.netmodule
 0001:00008f50       ?System.Data.SQLite.SQLiteConnection.get_ParseViaFramework@@200002 10009f50 f   System.Data.SQLite.netmodule
 0001:00008f6c       ?System.Data.SQLite.SQLiteConnection.set_ParseViaFramework@@20010102 10009f6c f   System.Data.SQLite.netmodule
 0001:00008f88       ?System.Data.SQLite.SQLiteConnection.get_Flags@@20001130 10009f88 f   System.Data.SQLite.netmodule
 0001:00008fa4       ?System.Data.SQLite.SQLiteConnection.set_Flags@@2001011130 10009fa4 f   System.Data.SQLite.netmodule
 0001:00008fc0       ?System.Data.SQLite.SQLiteConnection.get_DefaultDbType@@200015118091011179 10009fc0 f   System.Data.SQLite.netmodule
 0001:00008fdc       ?System.Data.SQLite.SQLiteConnection.set_DefaultDbType@@20010115118091011179 10009fdc f   System.Data.SQLite.netmodule
 0001:00008ff8       ?System.Data.SQLite.SQLiteConnection.get_DefaultTypeName@@20000O 10009ff8 f   System.Data.SQLite.netmodule
 0001:00009014       ?System.Data.SQLite.SQLiteConnection.set_DefaultTypeName@@2001010O 1000a014 f   System.Data.SQLite.netmodule
 0001:00009030       ?System.Data.SQLite.SQLiteConnection.get_OwnHandle@@200002 1000a030 f   System.Data.SQLite.netmodule
 0001:00009064       ?System.Data.SQLite.SQLiteConnection.get_ServerVersion@@20000O 1000a064 f   System.Data.SQLite.netmodule
 0001:0000907c       ?System.Data.SQLite.SQLiteConnection.get_LastInsertRowId@@20000K 1000a07c f   System.Data.SQLite.netmodule
 0001:000090b0       ?System.Data.SQLite.SQLiteConnection.Cancel@@200001 1000a0b0 f   System.Data.SQLite.netmodule
 0001:000090e4       ?System.Data.SQLite.SQLiteConnection.get_Changes@@200008 1000a0e4 f   System.Data.SQLite.netmodule
 0001:00009118       ?System.Data.SQLite.SQLiteConnection.get_AutoCommit@@200002 1000a118 f   System.Data.SQLite.netmodule
 0001:0000914c       ?System.Data.SQLite.SQLiteConnection.get_MemoryUsed@@20000K 1000a14c f   System.Data.SQLite.netmodule
 0001:00009180       ?System.Data.SQLite.SQLiteConnection.get_MemoryHighwater@@20000K 1000a180 f   System.Data.SQLite.netmodule
 0001:000091b4       ?System.Data.SQLite.SQLiteConnection.GetMemoryStatistics@@00010110151280ON020O0K 1000a1b4 f   System.Data.SQLite.netmodule
 0001:000091f0       ?System.Data.SQLite.SQLiteConnection.ReleaseMemory@@200001 1000a1f0 f   System.Data.SQLite.netmodule
 0001:0000923c       ?System.Data.SQLite.SQLiteConnection.ReleaseMemory@@00061180O0080202100810021009 1000a23c f   System.Data.SQLite.netmodule
 0001:00009258       ?System.Data.SQLite.SQLiteConnection.SetMemoryStatus@@00011180O002 1000a258 f   System.Data.SQLite.netmodule
 0001:0000926c       ?System.Data.SQLite.SQLiteConnection.get_DefineConstants@@00000O 1000a26c f   System.Data.SQLite.netmodule
 0001:00009280       ?System.Data.SQLite.SQLiteConnection.get_SQLiteVersion@@00000O 1000a280 f   System.Data.SQLite.netmodule
 0001:00009294       ?System.Data.SQLite.SQLiteConnection.get_SQLiteSourceId@@00000O 1000a294 f   System.Data.SQLite.netmodule
 0001:000092a8       ?System.Data.SQLite.SQLiteConnection.get_SQLiteCompileOptions@@00000O 1000a2a8 f   System.Data.SQLite.netmodule
 0001:000092bc       ?System.Data.SQLite.SQLiteConnection.get_InteropVersion@@00000O 1000a2bc f   System.Data.SQLite.netmodule
 0001:000092d0       ?System.Data.SQLite.SQLiteConnection.get_InteropSourceId@@00000O 1000a2d0 f   System.Data.SQLite.netmodule
 0001:000092e4       ?System.Data.SQLite.SQLiteConnection.get_InteropCompileOptions@@00000O 1000a2e4 f   System.Data.SQLite.netmodule
 0001:000092f8       ?System.Data.SQLite.SQLiteConnection.get_ProviderVersion@@00000O 1000a2f8 f   System.Data.SQLite.netmodule
 0001:00009328       ?System.Data.SQLite.SQLiteConnection.get_ProviderSourceId@@00000O 1000a328 f   System.Data.SQLite.netmodule
 0001:000093e4       ?System.Data.SQLite.SQLiteConnection.get_SharedFlags@@00001130 1000a3e4 f   System.Data.SQLite.netmodule
 0001:00009430       ?System.Data.SQLite.SQLiteConnection.set_SharedFlags@@0001011130 1000a430 f   System.Data.SQLite.netmodule
 0001:0000947c       ?System.Data.SQLite.SQLiteConnection.get_State@@20001180N5 1000a47c f   System.Data.SQLite.netmodule
 0001:00009498       ?System.Data.SQLite.SQLiteConnection.Shutdown@@20001180O0 1000a498 f   System.Data.SQLite.netmodule
 0001:000094d8       ?System.Data.SQLite.SQLiteConnection.Shutdown@@0002010202 1000a4d8 f   System.Data.SQLite.netmodule
 0001:000094fc       ?System.Data.SQLite.SQLiteConnection.SetExtendedResultCodes@@20010102 1000a4fc f   System.Data.SQLite.netmodule
 0001:00009524       ?System.Data.SQLite.SQLiteConnection.ResultCode@@20001180O0 1000a524 f   System.Data.SQLite.netmodule
 0001:00009558       ?System.Data.SQLite.SQLiteConnection.ExtendedResultCode@@20001180O0 1000a558 f   System.Data.SQLite.netmodule
 0001:0000958c       ?System.Data.SQLite.SQLiteConnection.LogMessage@@2002011180O00O 1000a58c f   System.Data.SQLite.netmodule
 0001:000095c0       ?System.Data.SQLite.SQLiteConnection.LogMessage@@200201080O 1000a5c0 f   System.Data.SQLite.netmodule
 0001:000095f4       ?System.Data.SQLite.SQLiteConnection.ChangePassword@@2001010O 1000a5f4 f   System.Data.SQLite.netmodule
 0001:00009624       ?System.Data.SQLite.SQLiteConnection.ChangePassword@@2001011N05 1000a624 f   System.Data.SQLite.netmodule
 0001:00009658       ?System.Data.SQLite.SQLiteConnection.SetPassword@@2001010O 1000a658 f   System.Data.SQLite.netmodule
 0001:00009688       ?System.Data.SQLite.SQLiteConnection.SetPassword@@2001011N05 1000a688 f   System.Data.SQLite.netmodule
 0001:000096c0       ?System.Data.SQLite.SQLiteConnection.SetAvRetry@@20021180O010081008 1000a6c0 f   System.Data.SQLite.netmodule
 0001:00009760       ?System.Data.SQLite.SQLiteConnection.SetChunkSize@@20011180O008 1000a760 f   System.Data.SQLite.netmodule
 0001:000097e0       ?System.Data.SQLite.SQLiteConnection.UnwrapString@@00010O0O 1000a7e0 f   System.Data.SQLite.netmodule
 0001:0000983c       ?System.Data.SQLite.SQLiteConnection.ExpandFileName@@20020O0O02 1000a83c f   System.Data.SQLite.netmodule
 0001:00009904       ?System.Data.SQLite.SQLiteConnection.GetSchema@@20001280L9 1000a904 f   System.Data.SQLite.netmodule
 0001:00009924       ?System.Data.SQLite.SQLiteConnection.GetSchema@@20011280L90O 1000a924 f   System.Data.SQLite.netmodule
 0001:00009944       ?System.Data.SQLite.SQLiteConnection.GetSchema@@20021280L90O1N0O 1000a944 f   System.Data.SQLite.netmodule
 0001:00009b5c       ?System.Data.SQLite.SQLiteConnection.Schema_ReservedWords@@00001280L9 1000ab5c f   System.Data.SQLite.netmodule
 0001:00009c30       ?System.Data.SQLite.SQLiteConnection.Schema_MetaDataCollections@@00001280L9 1000ac30 f   System.Data.SQLite.netmodule
 0001:00009cd0       ?System.Data.SQLite.SQLiteConnection.Schema_DataSourceInformation@@20001280L9 1000acd0 f   System.Data.SQLite.netmodule
 0001:00009f94       ?System.Data.SQLite.SQLiteConnection.Schema_Columns@@20031280L90O0O0O 1000af94 f   System.Data.SQLite.netmodule
 0001:0000a6f0       ?System.Data.SQLite.SQLiteConnection.Schema_Indexes@@20031280L90O0O0O 1000b6f0 f   System.Data.SQLite.netmodule
 0001:0000af8c       ?System.Data.SQLite.SQLiteConnection.Schema_Triggers@@20031280L90O0O0O 1000bf8c f   System.Data.SQLite.netmodule
 0001:0000b188       ?System.Data.SQLite.SQLiteConnection.Schema_Tables@@20031280L90O0O0O 1000c188 f   System.Data.SQLite.netmodule
 0001:0000b400       ?System.Data.SQLite.SQLiteConnection.Schema_Views@@20021280L90O0O 1000c400 f   System.Data.SQLite.netmodule
 0001:0000b6a0       ?System.Data.SQLite.SQLiteConnection.Schema_Catalogs@@20011280L90O 1000c6a0 f   System.Data.SQLite.netmodule
 0001:0000b7f4       ?System.Data.SQLite.SQLiteConnection.Schema_DataTypes@@20001280L9 1000c7f4 f   System.Data.SQLite.netmodule
 0001:0000ba98       ?System.Data.SQLite.SQLiteConnection.Schema_IndexColumns@@20041280L90O0O0O0O 1000ca98 f   System.Data.SQLite.netmodule
 0001:0000c194       ?System.Data.SQLite.SQLiteConnection.Schema_ViewColumns@@20031280L90O0O0O 1000d194 f   System.Data.SQLite.netmodule
 0001:0000c960       ?System.Data.SQLite.SQLiteConnection.Schema_ForeignKeys@@20031280L90O0O0O 1000d960 f   System.Data.SQLite.netmodule
 0001:0000cf24       ?System.Data.SQLite.SQLiteConnection.add_Authorize@@2001011264 1000df24 f   System.Data.SQLite.netmodule
 0001:0000cf74       ?System.Data.SQLite.SQLiteConnection.remove_Authorize@@2001011264 1000df74 f   System.Data.SQLite.netmodule
 0001:0000cfb4       ?System.Data.SQLite.SQLiteConnection.add_Update@@200101126M 1000dfb4 f   System.Data.SQLite.netmodule
 0001:0000d004       ?System.Data.SQLite.SQLiteConnection.remove_Update@@200101126M 1000e004 f   System.Data.SQLite.netmodule
 0001:0000d044       ?System.Data.SQLite.SQLiteConnection.AuthorizerCallback@@20061180L8181180L418181818 1000e044 f   System.Data.SQLite.netmodule
 0001:0000d094       ?System.Data.SQLite.SQLiteConnection.UpdateCallback@@200501180818180K 1000e094 f   System.Data.SQLite.netmodule
 0001:0000d0c4       ?System.Data.SQLite.SQLiteConnection.add_Commit@@2001011268 1000e0c4 f   System.Data.SQLite.netmodule
 0001:0000d114       ?System.Data.SQLite.SQLiteConnection.remove_Commit@@2001011268 1000e114 f   System.Data.SQLite.netmodule
 0001:0000d154       ?System.Data.SQLite.SQLiteConnection.add_Trace@@2001011270 1000e154 f   System.Data.SQLite.netmodule
 0001:0000d1a4       ?System.Data.SQLite.SQLiteConnection.remove_Trace@@2001011270 1000e1a4 f   System.Data.SQLite.netmodule
 0001:0000d1e4       ?System.Data.SQLite.SQLiteConnection.TraceCallback@@2002011818 1000e1e4 f   System.Data.SQLite.netmodule
 0001:0000d20c       ?System.Data.SQLite.SQLiteConnection.add_RollBack@@2001011280N9 1000e20c f   System.Data.SQLite.netmodule
 0001:0000d25c       ?System.Data.SQLite.SQLiteConnection.remove_RollBack@@2001011280N9 1000e25c f   System.Data.SQLite.netmodule
 0001:0000d29c       ?System.Data.SQLite.SQLiteConnection.CommitCallback@@20010818 1000e29c f   System.Data.SQLite.netmodule
 0001:0000d2c8       ?System.Data.SQLite.SQLiteConnection.RollbackCallback@@20010118 1000e2c8 f   System.Data.SQLite.netmodule
 0001:0000d2e8       ?System.Data.SQLite.SQLiteConnection.get_DbProviderFactory@@20001249 1000e2e8 f   System.Data.SQLite.netmodule
 0001:0000d2fc       ?System.Data.SQLite.SQLiteConnection..cctor@@000001 1000e2fc f   System.Data.SQLite.netmodule
 0001:0000d328       ?System.Data.SQLite.AuthorizerEventArgs..ctor@@200001 1000e328 f   System.Data.SQLite.netmodule
 0001:0000d370       ?System.Data.SQLite.AuthorizerEventArgs..ctor@@200701181180L40O0O0O0O1180L8 1000e370 f   System.Data.SQLite.netmodule
 0001:0000d3b8       ?System.Data.SQLite.UpdateEventArgs..ctor@@2004010O0O117M0K 1000e3b8 f   System.Data.SQLite.netmodule
 0001:0000d3e8       ?System.Data.SQLite.CommitEventArgs..ctor@@200001 1000e3e8 f   System.Data.SQLite.netmodule
 0001:0000d3fc       ?System.Data.SQLite.TraceEventArgs..ctor@@2001010O 1000e3fc f   System.Data.SQLite.netmodule
 0001:0000d418       ?System.Data.SQLite.SQLiteConnectionPool.GetCounts@@0005010O10151231020O08100810081008 1000e418 f   System.Data.SQLite.netmodule
 0001:0000d554       ?System.Data.SQLite.SQLiteConnectionPool.ClearPool@@0001010O 1000e554 f   System.Data.SQLite.netmodule
 0001:0000d608       ?System.Data.SQLite.SQLiteConnectionPool.ClearAllPools@@000001 1000e608 f   System.Data.SQLite.netmodule
 0001:0000d720       ?System.Data.SQLite.SQLiteConnectionPool.Add@@0003010O1281LM08 1000e720 f   System.Data.SQLite.netmodule
 0001:0000d7cc       ?System.Data.SQLite.SQLiteConnectionPool.Remove@@00031281LM0O081008 1000e7cc f   System.Data.SQLite.netmodule
 0001:0000d9d4       ?System.Data.SQLite.SQLiteConnectionPool.GetConnectionPool@@000012808M 1000e9d4 f   System.Data.SQLite.netmodule
 0001:0000da20       ?System.Data.SQLite.SQLiteConnectionPool.SetConnectionPool@@00010112808M 1000ea20 f   System.Data.SQLite.netmodule
 0001:0000da6c       ?System.Data.SQLite.SQLiteConnectionPool.ResizePool@@00020112809402 1000ea6c f   System.Data.SQLite.netmodule
 0001:0000dac4       ?System.Data.SQLite.SQLiteConnectionPool..cctor@@000001 1000eac4 f   System.Data.SQLite.netmodule
 0001:0000db04       ?System.Data.SQLite.SQLiteConnectionPool.PoolQueue..ctor@@2002010808 1000eb04 f   System.Data.SQLite.netmodule
 0001:0000db30       ?System.Data.SQLite.SQLiteConnectionStringBuilder..ctor@@200001 1000eb30 f   System.Data.SQLite.netmodule
 0001:0000db4c       ?System.Data.SQLite.SQLiteConnectionStringBuilder..ctor@@2001010O 1000eb4c f   System.Data.SQLite.netmodule
 0001:0000db68       ?System.Data.SQLite.SQLiteConnectionStringBuilder.Initialize@@2001010O 1000eb68 f   System.Data.SQLite.netmodule
 0001:0000dbd0       ?System.Data.SQLite.SQLiteConnectionStringBuilder.get_Version@@200008 1000ebd0 f   System.Data.SQLite.netmodule
 0001:0000dbf8       ?System.Data.SQLite.SQLiteConnectionStringBuilder.set_Version@@20010108 1000ebf8 f   System.Data.SQLite.netmodule
 0001:0000dc20       ?System.Data.SQLite.SQLiteConnectionStringBuilder.get_SyncMode@@2000114M 1000ec20 f   System.Data.SQLite.netmodule
 0001:0000dc64       ?System.Data.SQLite.SQLiteConnectionStringBuilder.set_SyncMode@@200101114M 1000ec64 f   System.Data.SQLite.netmodule
 0001:0000dc84       ?System.Data.SQLite.SQLiteConnectionStringBuilder.get_UseUTF16Encoding@@200002 1000ec84 f   System.Data.SQLite.netmodule
 0001:0000dca8       ?System.Data.SQLite.SQLiteConnectionStringBuilder.set_UseUTF16Encoding@@20010102 1000eca8 f   System.Data.SQLite.netmodule
 0001:0000dcc8       ?System.Data.SQLite.SQLiteConnectionStringBuilder.get_Pooling@@200002 1000ecc8 f   System.Data.SQLite.netmodule
 0001:0000dcec       ?System.Data.SQLite.SQLiteConnectionStringBuilder.set_Pooling@@20010102 1000ecec f   System.Data.SQLite.netmodule
 0001:0000dd0c       ?System.Data.SQLite.SQLiteConnectionStringBuilder.get_BinaryGUID@@200002 1000ed0c f   System.Data.SQLite.netmodule
 0001:0000dd30       ?System.Data.SQLite.SQLiteConnectionStringBuilder.set_BinaryGUID@@20010102 1000ed30 f   System.Data.SQLite.netmodule
 0001:0000dd50       ?System.Data.SQLite.SQLiteConnectionStringBuilder.get_DataSource@@20000O 1000ed50 f   System.Data.SQLite.netmodule
 0001:0000dd74       ?System.Data.SQLite.SQLiteConnectionStringBuilder.set_DataSource@@2001010O 1000ed74 f   System.Data.SQLite.netmodule
 0001:0000dd90       ?System.Data.SQLite.SQLiteConnectionStringBuilder.get_Uri@@20000O 1000ed90 f   System.Data.SQLite.netmodule
 0001:0000ddb4       ?System.Data.SQLite.SQLiteConnectionStringBuilder.set_Uri@@2001010O 1000edb4 f   System.Data.SQLite.netmodule
 0001:0000ddd0       ?System.Data.SQLite.SQLiteConnectionStringBuilder.get_FullUri@@20000O 1000edd0 f   System.Data.SQLite.netmodule
 0001:0000ddf4       ?System.Data.SQLite.SQLiteConnectionStringBuilder.set_FullUri@@2001010O 1000edf4 f   System.Data.SQLite.netmodule
 0001:0000de10       ?System.Data.SQLite.SQLiteConnectionStringBuilder.get_DefaultTimeout@@200008 1000ee10 f   System.Data.SQLite.netmodule
 0001:0000de38       ?System.Data.SQLite.SQLiteConnectionStringBuilder.set_DefaultTimeout@@20010108 1000ee38 f   System.Data.SQLite.netmodule
 0001:0000de58       ?System.Data.SQLite.SQLiteConnectionStringBuilder.get_Enlist@@200002 1000ee58 f   System.Data.SQLite.netmodule
 0001:0000de7c       ?System.Data.SQLite.SQLiteConnectionStringBuilder.set_Enlist@@20010102 1000ee7c f   System.Data.SQLite.netmodule
 0001:0000de9c       ?System.Data.SQLite.SQLiteConnectionStringBuilder.get_FailIfMissing@@200002 1000ee9c f   System.Data.SQLite.netmodule
 0001:0000dec0       ?System.Data.SQLite.SQLiteConnectionStringBuilder.set_FailIfMissing@@20010102 1000eec0 f   System.Data.SQLite.netmodule
 0001:0000dee0       ?System.Data.SQLite.SQLiteConnectionStringBuilder.get_LegacyFormat@@200002 1000eee0 f   System.Data.SQLite.netmodule
 0001:0000df04       ?System.Data.SQLite.SQLiteConnectionStringBuilder.set_LegacyFormat@@20010102 1000ef04 f   System.Data.SQLite.netmodule
 0001:0000df24       ?System.Data.SQLite.SQLiteConnectionStringBuilder.get_ReadOnly@@200002 1000ef24 f   System.Data.SQLite.netmodule
 0001:0000df48       ?System.Data.SQLite.SQLiteConnectionStringBuilder.set_ReadOnly@@20010102 1000ef48 f   System.Data.SQLite.netmodule
 0001:0000df68       ?System.Data.SQLite.SQLiteConnectionStringBuilder.get_Password@@20000O 1000ef68 f   System.Data.SQLite.netmodule
 0001:0000df8c       ?System.Data.SQLite.SQLiteConnectionStringBuilder.set_Password@@2001010O 1000ef8c f   System.Data.SQLite.netmodule
 0001:0000dfa8       ?System.Data.SQLite.SQLiteConnectionStringBuilder.get_HexPassword@@20001N05 1000efa8 f   System.Data.SQLite.netmodule
 0001:0000dfe4       ?System.Data.SQLite.SQLiteConnectionStringBuilder.set_HexPassword@@2001011N05 1000efe4 f   System.Data.SQLite.netmodule
 0001:0000e004       ?System.Data.SQLite.SQLiteConnectionStringBuilder.get_PageSize@@200008 1000f004 f   System.Data.SQLite.netmodule
 0001:0000e02c       ?System.Data.SQLite.SQLiteConnectionStringBuilder.set_PageSize@@20010108 1000f02c f   System.Data.SQLite.netmodule
 0001:0000e04c       ?System.Data.SQLite.SQLiteConnectionStringBuilder.get_MaxPageCount@@200008 1000f04c f   System.Data.SQLite.netmodule
 0001:0000e074       ?System.Data.SQLite.SQLiteConnectionStringBuilder.set_MaxPageCount@@20010108 1000f074 f   System.Data.SQLite.netmodule
 0001:0000e094       ?System.Data.SQLite.SQLiteConnectionStringBuilder.get_CacheSize@@200008 1000f094 f   System.Data.SQLite.netmodule
 0001:0000e0bc       ?System.Data.SQLite.SQLiteConnectionStringBuilder.set_CacheSize@@20010108 1000f0bc f   System.Data.SQLite.netmodule
 0001:0000e0dc       ?System.Data.SQLite.SQLiteConnectionStringBuilder.get_DateTimeFormat@@20001180K4 1000f0dc f   System.Data.SQLite.netmodule
 0001:0000e128       ?System.Data.SQLite.SQLiteConnectionStringBuilder.set_DateTimeFormat@@2001011180K4 1000f128 f   System.Data.SQLite.netmodule
 0001:0000e148       ?System.Data.SQLite.SQLiteConnectionStringBuilder.get_DateTimeKind@@2000118085 1000f148 f   System.Data.SQLite.netmodule
 0001:0000e194       ?System.Data.SQLite.SQLiteConnectionStringBuilder.set_DateTimeKind@@200101118085 1000f194 f   System.Data.SQLite.netmodule
 0001:0000e1b4       ?System.Data.SQLite.SQLiteConnectionStringBuilder.get_DateTimeFormatString@@20000O 1000f1b4 f   System.Data.SQLite.netmodule
 0001:0000e1ec       ?System.Data.SQLite.SQLiteConnectionStringBuilder.set_DateTimeFormatString@@2001010O 1000f1ec f   System.Data.SQLite.netmodule
 0001:0000e208       ?System.Data.SQLite.SQLiteConnectionStringBuilder.get_BaseSchemaName@@20000O 1000f208 f   System.Data.SQLite.netmodule
 0001:0000e240       ?System.Data.SQLite.SQLiteConnectionStringBuilder.set_BaseSchemaName@@2001010O 1000f240 f   System.Data.SQLite.netmodule
 0001:0000e25c       ?System.Data.SQLite.SQLiteConnectionStringBuilder.get_JournalMode@@20001180K8 1000f25c f   System.Data.SQLite.netmodule
 0001:0000e2a0       ?System.Data.SQLite.SQLiteConnectionStringBuilder.set_JournalMode@@2001011180K8 1000f2a0 f   System.Data.SQLite.netmodule
 0001:0000e2c0       ?System.Data.SQLite.SQLiteConnectionStringBuilder.get_DefaultIsolationLevel@@20001180MN 1000f2c0 f   System.Data.SQLite.netmodule
 0001:0000e304       ?System.Data.SQLite.SQLiteConnectionStringBuilder.set_DefaultIsolationLevel@@2001011180MN 1000f304 f   System.Data.SQLite.netmodule
 0001:0000e324       ?System.Data.SQLite.SQLiteConnectionStringBuilder.get_DefaultDbType@@20001179 1000f324 f   System.Data.SQLite.netmodule
 0001:0000e370       ?System.Data.SQLite.SQLiteConnectionStringBuilder.set_DefaultDbType@@2001011179 1000f370 f   System.Data.SQLite.netmodule
 0001:0000e390       ?System.Data.SQLite.SQLiteConnectionStringBuilder.get_DefaultTypeName@@20000O 1000f390 f   System.Data.SQLite.netmodule
 0001:0000e3b4       ?System.Data.SQLite.SQLiteConnectionStringBuilder.set_DefaultTypeName@@2001010O 1000f3b4 f   System.Data.SQLite.netmodule
 0001:0000e3d0       ?System.Data.SQLite.SQLiteConnectionStringBuilder.get_ForeignKeys@@200002 1000f3d0 f   System.Data.SQLite.netmodule
 0001:0000e3f4       ?System.Data.SQLite.SQLiteConnectionStringBuilder.set_ForeignKeys@@20010102 1000f3f4 f   System.Data.SQLite.netmodule
 0001:0000e414       ?System.Data.SQLite.SQLiteConnectionStringBuilder.get_Flags@@20001130 1000f414 f   System.Data.SQLite.netmodule
 0001:0000e464       ?System.Data.SQLite.SQLiteConnectionStringBuilder.set_Flags@@2001011130 1000f464 f   System.Data.SQLite.netmodule
 0001:0000e484       ?System.Data.SQLite.SQLiteConnectionStringBuilder.get_SetDefaults@@200002 1000f484 f   System.Data.SQLite.netmodule
 0001:0000e4a8       ?System.Data.SQLite.SQLiteConnectionStringBuilder.set_SetDefaults@@20010102 1000f4a8 f   System.Data.SQLite.netmodule
 0001:0000e4c8       ?System.Data.SQLite.SQLiteConnectionStringBuilder.get_ToFullPath@@200002 1000f4c8 f   System.Data.SQLite.netmodule
 0001:0000e4ec       ?System.Data.SQLite.SQLiteConnectionStringBuilder.set_ToFullPath@@20010102 1000f4ec f   System.Data.SQLite.netmodule
 0001:0000e50c       ?System.Data.SQLite.SQLiteConnectionStringBuilder.get_NoSharedFlags@@200002 1000f50c f   System.Data.SQLite.netmodule
 0001:0000e530       ?System.Data.SQLite.SQLiteConnectionStringBuilder.set_NoSharedFlags@@20010102 1000f530 f   System.Data.SQLite.netmodule
 0001:0000e550       ?System.Data.SQLite.SQLiteConnectionStringBuilder.TryGetValue@@2002020O101M 1000f550 f   System.Data.SQLite.netmodule
 0001:0000e610       ?System.Data.SQLite.SQLiteConnectionStringBuilder.FallbackGetProperties@@2001011280P5 1000f610 f   System.Data.SQLite.netmodule
 0001:0000e69c       ?System.Data.SQLite.SQLiteType..ctor@@200001 1000f69c f   System.Data.SQLite.netmodule
 0001:0000e6b0       ?System.Data.SQLite.SQLiteType..ctor@@20020111809M1179 1000f6b0 f   System.Data.SQLite.netmodule
 0001:0000e6d4       ?System.Data.SQLite.SQLiteDbTypeMap..ctor@@200001 1000f6d4 f   System.Data.SQLite.netmodule
 0001:0000e6f8       ?System.Data.SQLite.SQLiteDbTypeMap..ctor@@200101151280P9011280M4 1000f6f8 f   System.Data.SQLite.netmodule
 0001:0000e714       ?System.Data.SQLite.SQLiteDbTypeMap.Clear@@200008 1000f714 f   System.Data.SQLite.netmodule
 0001:0000e754       ?System.Data.SQLite.SQLiteDbTypeMap.Add@@200101151280P9011280M4 1000f754 f   System.Data.SQLite.netmodule
 0001:0000e7b8       ?System.Data.SQLite.SQLiteDbTypeMap.Add@@2001011280M4 1000f7b8 f   System.Data.SQLite.netmodule
 0001:0000e810       ?System.Data.SQLite.SQLiteDbTypeMap.ContainsKey@@2001021179 1000f810 f   System.Data.SQLite.netmodule
 0001:0000e834       ?System.Data.SQLite.SQLiteDbTypeMap.TryGetValue@@2002021179101280M4 1000f834 f   System.Data.SQLite.netmodule
 0001:0000e85c       ?System.Data.SQLite.SQLiteDbTypeMap.Remove@@2001021179 1000f85c f   System.Data.SQLite.netmodule
 0001:0000e880       ?System.Data.SQLite.SQLiteDbTypeMapping..ctor@@2003010O117902 1000f880 f   System.Data.SQLite.netmodule
 0001:0000e8a8       ?System.Data.SQLite.TypeNameStringComparer.Equals@@2002020O0O 1000f8a8 f   System.Data.SQLite.netmodule
 0001:0000e8c0       ?System.Data.SQLite.TypeNameStringComparer.GetHashCode@@2001080O 1000f8c0 f   System.Data.SQLite.netmodule
 0001:0000e8e8       ?System.Data.SQLite.TypeNameStringComparer..ctor@@200001 1000f8e8 f   System.Data.SQLite.netmodule
 0001:0000e8fc       ?System.Data.SQLite.SQLiteDataAdapter..ctor@@200001 1000f8fc f   System.Data.SQLite.netmodule
 0001:0000e918       ?System.Data.SQLite.SQLiteDataAdapter..ctor@@2001011238 1000f918 f   System.Data.SQLite.netmodule
 0001:0000e940       ?System.Data.SQLite.SQLiteDataAdapter..ctor@@2002010O1248 1000f940 f   System.Data.SQLite.netmodule
 0001:0000e968       ?System.Data.SQLite.SQLiteDataAdapter..ctor@@2002010O0O 1000f968 f   System.Data.SQLite.netmodule
 0001:0000e980       ?System.Data.SQLite.SQLiteDataAdapter..ctor@@2003010O0O02 1000f980 f   System.Data.SQLite.netmodule
 0001:0000e9b0       ?System.Data.SQLite.SQLiteDataAdapter.CheckDisposed@@200001 1000f9b0 f   System.Data.SQLite.netmodule
 0001:0000e9dc       ?System.Data.SQLite.SQLiteDataAdapter.Dispose@@20010102 1000f9dc f   System.Data.SQLite.netmodule
 0001:0000ea94       ?System.Data.SQLite.SQLiteDataAdapter.add_RowUpdating@@200101151280PN011280L1 1000fa94 f   System.Data.SQLite.netmodule
 0001:0000eb00       ?System.Data.SQLite.SQLiteDataAdapter.remove_RowUpdating@@200101151280PN011280L1 1000fb00 f   System.Data.SQLite.netmodule
 0001:0000eb24       ?System.Data.SQLite.SQLiteDataAdapter.FindBuilder@@00011281011209 1000fb24 f   System.Data.SQLite.netmodule
 0001:0000eb60       ?System.Data.SQLite.SQLiteDataAdapter.add_RowUpdated@@200101151280PN01128105 1000fb60 f   System.Data.SQLite.netmodule
 0001:0000eb84       ?System.Data.SQLite.SQLiteDataAdapter.remove_RowUpdated@@200101151280PN01128105 1000fb84 f   System.Data.SQLite.netmodule
 0001:0000eba8       ?System.Data.SQLite.SQLiteDataAdapter.OnRowUpdating@@2001011280L1 1000fba8 f   System.Data.SQLite.netmodule
 0001:0000ebd8       ?System.Data.SQLite.SQLiteDataAdapter.OnRowUpdated@@200101128105 1000fbd8 f   System.Data.SQLite.netmodule
 0001:0000ec08       ?System.Data.SQLite.SQLiteDataAdapter.get_SelectCommand@@20001238 1000fc08 f   System.Data.SQLite.netmodule
 0001:0000ec28       ?System.Data.SQLite.SQLiteDataAdapter.set_SelectCommand@@2001011238 1000fc28 f   System.Data.SQLite.netmodule
 0001:0000ec44       ?System.Data.SQLite.SQLiteDataAdapter.get_InsertCommand@@20001238 1000fc44 f   System.Data.SQLite.netmodule
 0001:0000ec64       ?System.Data.SQLite.SQLiteDataAdapter.set_InsertCommand@@2001011238 1000fc64 f   System.Data.SQLite.netmodule
 0001:0000ec80       ?System.Data.SQLite.SQLiteDataAdapter.get_UpdateCommand@@20001238 1000fc80 f   System.Data.SQLite.netmodule
 0001:0000eca0       ?System.Data.SQLite.SQLiteDataAdapter.set_UpdateCommand@@2001011238 1000fca0 f   System.Data.SQLite.netmodule
 0001:0000ecbc       ?System.Data.SQLite.SQLiteDataAdapter.get_DeleteCommand@@20001238 1000fcbc f   System.Data.SQLite.netmodule
 0001:0000ecdc       ?System.Data.SQLite.SQLiteDataAdapter.set_DeleteCommand@@2001011238 1000fcdc f   System.Data.SQLite.netmodule
 0001:0000ecf8       ?System.Data.SQLite.SQLiteDataAdapter..cctor@@000001 1000fcf8 f   System.Data.SQLite.netmodule
 0001:0000ed1c       ?System.Data.SQLite.SQLiteDataReader..ctor@@20020112381180K5 1000fd1c f   System.Data.SQLite.netmodule
 0001:0000edc0       ?System.Data.SQLite.SQLiteDataReader.CheckDisposed@@200001 1000fdc0 f   System.Data.SQLite.netmodule
 0001:0000edf4       ?System.Data.SQLite.SQLiteDataReader.Dispose@@20010102 1000fdf4 f   System.Data.SQLite.netmodule
 0001:0000eedc       ?System.Data.SQLite.SQLiteDataReader.Cancel@@200001 1000fedc f   System.Data.SQLite.netmodule
 0001:0000eef4       ?System.Data.SQLite.SQLiteDataReader.Close@@200001 1000fef4 f   System.Data.SQLite.netmodule
 0001:0000f098       ?System.Data.SQLite.SQLiteDataReader.CheckClosed@@200001 10010098 f   System.Data.SQLite.netmodule
 0001:0000f10c       ?System.Data.SQLite.SQLiteDataReader.CheckValidRow@@200001 1001010c f   System.Data.SQLite.netmodule
 0001:0000f12c       ?System.Data.SQLite.SQLiteDataReader.GetEnumerator@@20001269 1001012c f   System.Data.SQLite.netmodule
 0001:0000f154       ?System.Data.SQLite.SQLiteDataReader.get_Depth@@200008 10010154 f   System.Data.SQLite.netmodule
 0001:0000f170       ?System.Data.SQLite.SQLiteDataReader.get_FieldCount@@200008 10010170 f   System.Data.SQLite.netmodule
 0001:0000f1ac       ?System.Data.SQLite.SQLiteDataReader.RefreshFlags@@200001 100101ac f   System.Data.SQLite.netmodule
 0001:0000f1d0       ?System.Data.SQLite.SQLiteDataReader.get_StepCount@@200008 100101d0 f   System.Data.SQLite.netmodule
 0001:0000f1f0       ?System.Data.SQLite.SQLiteDataReader.get_VisibleFieldCount@@200008 100101f0 f   System.Data.SQLite.netmodule
 0001:0000f210       ?System.Data.SQLite.SQLiteDataReader.VerifyType@@200211809M081179 10010210 f   System.Data.SQLite.netmodule
 0001:0000f2f0       ?System.Data.SQLite.SQLiteDataReader.GetBoolean@@20010208 100102f0 f   System.Data.SQLite.netmodule
 0001:0000f344       ?System.Data.SQLite.SQLiteDataReader.GetByte@@20010508 10010344 f   System.Data.SQLite.netmodule
 0001:0000f3a4       ?System.Data.SQLite.SQLiteDataReader.GetBytes@@20050K080K1N050808 100103a4 f   System.Data.SQLite.netmodule
 0001:0000f40c       ?System.Data.SQLite.SQLiteDataReader.GetChar@@20010308 1001040c f   System.Data.SQLite.netmodule
 0001:0000f46c       ?System.Data.SQLite.SQLiteDataReader.GetChars@@20050K080K1N030808 1001046c f   System.Data.SQLite.netmodule
 0001:0000f4d4       ?System.Data.SQLite.SQLiteDataReader.GetDataTypeName@@20010O08 100104d4 f   System.Data.SQLite.netmodule
 0001:0000f550       ?System.Data.SQLite.SQLiteDataReader.GetDateTime@@2001117N08 10010550 f   System.Data.SQLite.netmodule
 0001:0000f5a8       ?System.Data.SQLite.SQLiteDataReader.GetDecimal@@200111810908 100105a8 f   System.Data.SQLite.netmodule
 0001:0000f610       ?System.Data.SQLite.SQLiteDataReader.GetDouble@@20010N08 10010610 f   System.Data.SQLite.netmodule
 0001:0000f668       ?System.Data.SQLite.SQLiteDataReader.GetFieldType@@200112808N08 10010668 f   System.Data.SQLite.netmodule
 0001:0000f6b4       ?System.Data.SQLite.SQLiteDataReader.GetFloat@@20010M08 100106b4 f   System.Data.SQLite.netmodule
 0001:0000f714       ?System.Data.SQLite.SQLiteDataReader.GetGuid@@200111810N08 10010714 f   System.Data.SQLite.netmodule
 0001:0000f7a4       ?System.Data.SQLite.SQLiteDataReader.GetInt16@@20010608 100107a4 f   System.Data.SQLite.netmodule
 0001:0000f804       ?System.Data.SQLite.SQLiteDataReader.GetInt32@@20010808 10010804 f   System.Data.SQLite.netmodule
 0001:0000f860       ?System.Data.SQLite.SQLiteDataReader.GetInt64@@20010K08 10010860 f   System.Data.SQLite.netmodule
 0001:0000f8bc       ?System.Data.SQLite.SQLiteDataReader.GetName@@20010O08 100108bc f   System.Data.SQLite.netmodule
 0001:0000f90c       ?System.Data.SQLite.SQLiteDataReader.GetOrdinal@@2001080O 1001090c f   System.Data.SQLite.netmodule
 0001:0000f9a0       ?System.Data.SQLite.SQLiteDataReader.GetSchemaTable@@20001280L9 100109a0 f   System.Data.SQLite.netmodule
 0001:0000f9bc       ?System.Data.SQLite.SQLiteDataReader.GetStatementColumnParents@@00050112181281380810151231021280N41512809501081015123102081280N4 100109bc f   System.Data.SQLite.netmodule
 0001:0000fa68       ?System.Data.SQLite.SQLiteDataReader.GetSchemaTable@@20021280L90202 10010a68 f   System.Data.SQLite.netmodule
 0001:000104c8       ?System.Data.SQLite.SQLiteDataReader.GetString@@20010O08 100114c8 f   System.Data.SQLite.netmodule
 0001:00010524       ?System.Data.SQLite.SQLiteDataReader.GetValue@@20011M08 10011524 f   System.Data.SQLite.netmodule
 0001:00010610       ?System.Data.SQLite.SQLiteDataReader.GetValues@@2001081N1M 10011610 f   System.Data.SQLite.netmodule
 0001:0001064c       ?System.Data.SQLite.SQLiteDataReader.GetValues@@2000128111 1001164c f   System.Data.SQLite.netmodule
 0001:000106d0       ?System.Data.SQLite.SQLiteDataReader.get_HasRows@@200002 100116d0 f   System.Data.SQLite.netmodule
 0001:00010720       ?System.Data.SQLite.SQLiteDataReader.get_IsClosed@@200002 10011720 f   System.Data.SQLite.netmodule
 0001:0001073c       ?System.Data.SQLite.SQLiteDataReader.IsDBNull@@20010208 1001173c f   System.Data.SQLite.netmodule
 0001:0001078c       ?System.Data.SQLite.SQLiteDataReader.NextResult@@200002 1001178c f   System.Data.SQLite.netmodule
 0001:000109a8       ?System.Data.SQLite.SQLiteDataReader.GetConnection@@000112481280N0 100119a8 f   System.Data.SQLite.netmodule
 0001:000109f4       ?System.Data.SQLite.SQLiteDataReader.GetSQLiteType@@20021280LM1280LM0O 100119f4 f   System.Data.SQLite.netmodule
 0001:00010a58       ?System.Data.SQLite.SQLiteDataReader.GetSQLiteType@@20021280LM113008 10011a58 f   System.Data.SQLite.netmodule
 0001:00010af8       ?System.Data.SQLite.SQLiteDataReader.Read@@200002 10011af8 f   System.Data.SQLite.netmodule
 0001:00010b8c       ?System.Data.SQLite.SQLiteDataReader.get_RecordsAffected@@200008 10011b8c f   System.Data.SQLite.netmodule
 0001:00010bb0       ?System.Data.SQLite.SQLiteDataReader.get_Item@@20011M0O 10011bb0 f   System.Data.SQLite.netmodule
 0001:00010bd0       ?System.Data.SQLite.SQLiteDataReader.get_Item@@20011M08 10011bd0 f   System.Data.SQLite.netmodule
 0001:00010bec       ?System.Data.SQLite.SQLiteDataReader.LoadKeyInfo@@200001 10011bec f   System.Data.SQLite.netmodule
 0001:00010c30       ?System.Data.SQLite.SQLiteDataReader.ColumnParent..ctor@@200001 10011c30 f   System.Data.SQLite.netmodule
 0001:00010c44       ?System.Data.SQLite.SQLiteDataReader.ColumnParent..ctor@@2003010O0O0O 10011c44 f   System.Data.SQLite.netmodule
 0001:00010c6c       ?System.Data.SQLite.SQLiteDataReader.ColumnParent.Equals@@2002021280N41280N4 10011c6c f   System.Data.SQLite.netmodule
 0001:00010ccc       ?System.Data.SQLite.SQLiteDataReader.ColumnParent.GetHashCode@@2001081280N4 10011ccc f   System.Data.SQLite.netmodule
 0001:00010d28       ?System.Data.SQLite.SQLiteDefineConstants..cctor@@000001 10011d28 f   System.Data.SQLite.netmodule
 0001:00010dac       ?System.Data.SQLite.SQLiteException..ctor@@20020112811911811N 10011dac f   System.Data.SQLite.netmodule
 0001:00010dd4       ?System.Data.SQLite.SQLiteException..ctor@@2002011180O00O 10011dd4 f   System.Data.SQLite.netmodule
 0001:00010df8       ?System.Data.SQLite.SQLiteException..ctor@@2001010O 10011df8 f   System.Data.SQLite.netmodule
 0001:00010e10       ?System.Data.SQLite.SQLiteException..ctor@@200001 10011e10 f   System.Data.SQLite.netmodule
 0001:00010e24       ?System.Data.SQLite.SQLiteException..ctor@@2002010O128121 10011e24 f   System.Data.SQLite.netmodule
 0001:00010e3c       ?System.Data.SQLite.SQLiteException.GetObjectData@@20020112811911811N 10011e3c f   System.Data.SQLite.netmodule
 0001:00010e6c       ?System.Data.SQLite.SQLiteException.get_ResultCode@@20001180O0 10011e6c f   System.Data.SQLite.netmodule
 0001:00010e80       ?System.Data.SQLite.SQLiteException.get_ErrorCode@@200008 10011e80 f   System.Data.SQLite.netmodule
 0001:00010e94       ?System.Data.SQLite.SQLiteException.GetErrorString@@00010O1180O0 10011e94 f   System.Data.SQLite.netmodule
 0001:00010ed4       ?System.Data.SQLite.SQLiteException.GetStockErrorMessage@@00020O1180O00O 10011ed4 f   System.Data.SQLite.netmodule
 0001:00010efc       ?System.Data.SQLite.SQLiteFactory..ctor@@200001 10011efc f   System.Data.SQLite.netmodule
 0001:00010f10       ?System.Data.SQLite.SQLiteFactory.Dispose@@200001 10011f10 f   System.Data.SQLite.netmodule
 0001:00010f2c       ?System.Data.SQLite.SQLiteFactory.CheckDisposed@@200001 10011f2c f   System.Data.SQLite.netmodule
 0001:00010f58       ?System.Data.SQLite.SQLiteFactory.Dispose@@20010102 10011f58 f   System.Data.SQLite.netmodule
 0001:00010f74       ?System.Data.SQLite.SQLiteFactory.Finalize@@200001 10011f74 f   System.Data.SQLite.netmodule
 0001:00010fb0       ?System.Data.SQLite.SQLiteFactory.add_Log@@200101128124 10011fb0 f   System.Data.SQLite.netmodule
 0001:00010fcc       ?System.Data.SQLite.SQLiteFactory.remove_Log@@200101128124 10011fcc f   System.Data.SQLite.netmodule
 0001:00010fe8       ?System.Data.SQLite.SQLiteFactory.CreateCommand@@20001219 10011fe8 f   System.Data.SQLite.netmodule
 0001:00011000       ?System.Data.SQLite.SQLiteFactory.CreateCommandBuilder@@20001221 10012000 f   System.Data.SQLite.netmodule
 0001:00011018       ?System.Data.SQLite.SQLiteFactory.CreateConnection@@20001229 10012018 f   System.Data.SQLite.netmodule
 0001:00011030       ?System.Data.SQLite.SQLiteFactory.CreateConnectionStringBuilder@@2000122N 10012030 f   System.Data.SQLite.netmodule
 0001:00011048       ?System.Data.SQLite.SQLiteFactory.CreateDataAdapter@@20001239 10012048 f   System.Data.SQLite.netmodule
 0001:00011060       ?System.Data.SQLite.SQLiteFactory.CreateParameter@@20001255 10012060 f   System.Data.SQLite.netmodule
 0001:00011078       ?System.Data.SQLite.SQLiteFactory..cctor@@000001 10012078 f   System.Data.SQLite.netmodule
 0001:000110d4       ?System.Data.SQLite.SQLiteFactory.System.IServiceProvider.GetService@@20011M12808N 100120d4 f   System.Data.SQLite.netmodule
 0001:00011118       ?System.Data.SQLite.SQLiteFactory.GetSQLiteProviderServicesInstance@@20001M 10012118 f   System.Data.SQLite.netmodule
 0001:000111cc       ?System.Data.SQLite.SQLiteFunction..ctor@@200001 100121cc f   System.Data.SQLite.netmodule
 0001:000111ec       ?System.Data.SQLite.SQLiteFunction..ctor@@2004011180K41180850O02 100121ec f   System.Data.SQLite.netmodule
 0001:00011230       ?System.Data.SQLite.SQLiteFunction.Dispose@@200001 10012230 f   System.Data.SQLite.netmodule
 0001:0001124c       ?System.Data.SQLite.SQLiteFunction.CheckDisposed@@200001 1001224c f   System.Data.SQLite.netmodule
 0001:00011278       ?System.Data.SQLite.SQLiteFunction.Dispose@@20010102 10012278 f   System.Data.SQLite.netmodule
 0001:00011340       ?System.Data.SQLite.SQLiteFunction.Finalize@@200001 10012340 f   System.Data.SQLite.netmodule
 0001:0001137c       ?System.Data.SQLite.SQLiteFunction.get_SQLiteConvert@@20001214 1001237c f   System.Data.SQLite.netmodule
 0001:00011398       ?System.Data.SQLite.SQLiteFunction.Invoke@@20011M1N1M 10012398 f   System.Data.SQLite.netmodule
 0001:000113ac       ?System.Data.SQLite.SQLiteFunction.Step@@2003011N1M08101M 100123ac f   System.Data.SQLite.netmodule
 0001:000113c0       ?System.Data.SQLite.SQLiteFunction.Final@@20011M1M 100123c0 f   System.Data.SQLite.netmodule
 0001:000113d4       ?System.Data.SQLite.SQLiteFunction.Compare@@2002080O0O 100123d4 f   System.Data.SQLite.netmodule
 0001:000113e8       ?System.Data.SQLite.SQLiteFunction.ConvertParams@@20021N1M0818 100123e8 f   System.Data.SQLite.netmodule
 0001:00011554       ?System.Data.SQLite.SQLiteFunction.SetReturnValue@@200201181M 10012554 f   System.Data.SQLite.netmodule
 0001:00011654       ?System.Data.SQLite.SQLiteFunction.ScalarCallback@@200301180818 10012654 f   System.Data.SQLite.netmodule
 0001:000116ec       ?System.Data.SQLite.SQLiteFunction.CompareCallback@@2005081808180818 100126ec f   System.Data.SQLite.netmodule
 0001:000117a4       ?System.Data.SQLite.SQLiteFunction.CompareCallback16@@2005081808180818 100127a4 f   System.Data.SQLite.netmodule
 0001:0001185c       ?System.Data.SQLite.SQLiteFunction.StepCallback@@200301180818 1001285c f   System.Data.SQLite.netmodule
 0001:00011970       ?System.Data.SQLite.SQLiteFunction.FinalCallback@@20010118 10012970 f   System.Data.SQLite.netmodule
 0001:00011a74       ?System.Data.SQLite.SQLiteFunction..cctor@@000001 10012a74 f   System.Data.SQLite.netmodule
 0001:00011bd4       ?System.Data.SQLite.SQLiteFunction.RegisterFunction@@00010112808N 10012bd4 f   System.Data.SQLite.netmodule
 0001:00011c24       ?System.Data.SQLite.SQLiteFunction.BindFunctions@@0002151280P9011280O812181130 10012c24 f   System.Data.SQLite.netmodule
 0001:00011ca4       ?System.Data.SQLite.SQLiteFunction.BindFunction@@00040112181281101280O81130 10012ca4 f   System.Data.SQLite.netmodule
 0001:00011db8       ?System.Data.SQLite.SQLiteFunction.AggregateData..ctor@@200001 10012db8 f   System.Data.SQLite.netmodule
 0001:00011dd4       ?System.Data.SQLite.SQLiteFunctionEx.GetCollationSequence@@200011810M 10012dd4 f   System.Data.SQLite.netmodule
 0001:00011df4       ?System.Data.SQLite.SQLiteFunctionEx.CheckDisposed@@200001 10012df4 f   System.Data.SQLite.netmodule
 0001:00011e20       ?System.Data.SQLite.SQLiteFunctionEx.Dispose@@20010102 10012e20 f   System.Data.SQLite.netmodule
 0001:00011e64       ?System.Data.SQLite.SQLiteFunctionEx..ctor@@200001 10012e64 f   System.Data.SQLite.netmodule
 0001:00011e78       ?System.Data.SQLite.CollationSequence.Compare@@2002080O0O 10012e78 f   System.Data.SQLite.netmodule
 0001:00011ea8       ?System.Data.SQLite.CollationSequence.Compare@@2002081N031N03 10012ea8 f   System.Data.SQLite.netmodule
 0001:00011ed8       ?System.Data.SQLite.SQLiteFunctionAttribute..ctor@@200001 10012ed8 f   System.Data.SQLite.netmodule
 0001:00011ef4       ?System.Data.SQLite.SQLiteFunctionAttribute..ctor@@2003010O081180P4 10012ef4 f   System.Data.SQLite.netmodule
 0001:00011f24       ?System.Data.SQLite.SQLiteFunctionAttribute.get_Name@@20000O 10012f24 f   System.Data.SQLite.netmodule
 0001:00011f38       ?System.Data.SQLite.SQLiteFunctionAttribute.set_Name@@2001010O 10012f38 f   System.Data.SQLite.netmodule
 0001:00011f4c       ?System.Data.SQLite.SQLiteFunctionAttribute.get_Arguments@@200008 10012f4c f   System.Data.SQLite.netmodule
 0001:00011f60       ?System.Data.SQLite.SQLiteFunctionAttribute.set_Arguments@@20010108 10012f60 f   System.Data.SQLite.netmodule
 0001:00011f74       ?System.Data.SQLite.SQLiteFunctionAttribute.get_FuncType@@20001180P4 10012f74 f   System.Data.SQLite.netmodule
 0001:00011f88       ?System.Data.SQLite.SQLiteFunctionAttribute.set_FuncType@@2001011180P4 10012f88 f   System.Data.SQLite.netmodule
 0001:00011f9c       ?System.Data.SQLite.SQLiteFunctionAttribute.get_InstanceType@@200012808N 10012f9c f   System.Data.SQLite.netmodule
 0001:00011fb0       ?System.Data.SQLite.SQLiteFunctionAttribute.set_InstanceType@@20010112808N 10012fb0 f   System.Data.SQLite.netmodule
 0001:00011fc4       ?System.Data.SQLite.SQLiteKeyReader..ctor@@20030112481280N0128138 10012fc4 f   System.Data.SQLite.netmodule
 0001:0001267c       ?System.Data.SQLite.SQLiteKeyReader.Dispose@@200001 1001367c f   System.Data.SQLite.netmodule
 0001:00012698       ?System.Data.SQLite.SQLiteKeyReader.CheckDisposed@@200001 10013698 f   System.Data.SQLite.netmodule
 0001:000126c4       ?System.Data.SQLite.SQLiteKeyReader.Dispose@@20010102 100136c4 f   System.Data.SQLite.netmodule
 0001:00012738       ?System.Data.SQLite.SQLiteKeyReader.Finalize@@200001 10013738 f   System.Data.SQLite.netmodule
 0001:00012774       ?System.Data.SQLite.SQLiteKeyReader.get_Count@@200008 10013774 f   System.Data.SQLite.netmodule
 0001:00012794       ?System.Data.SQLite.SQLiteKeyReader.Sync@@20010108 10013794 f   System.Data.SQLite.netmodule
 0001:000127c4       ?System.Data.SQLite.SQLiteKeyReader.Sync@@200001 100137c4 f   System.Data.SQLite.netmodule
 0001:00012860       ?System.Data.SQLite.SQLiteKeyReader.Reset@@200001 10013860 f   System.Data.SQLite.netmodule
 0001:000128bc       ?System.Data.SQLite.SQLiteKeyReader.GetDataTypeName@@20010O08 100138bc f   System.Data.SQLite.netmodule
 0001:00012914       ?System.Data.SQLite.SQLiteKeyReader.GetFieldType@@200112808N08 10013914 f   System.Data.SQLite.netmodule
 0001:00012974       ?System.Data.SQLite.SQLiteKeyReader.GetName@@20010O08 10013974 f   System.Data.SQLite.netmodule
 0001:00012994       ?System.Data.SQLite.SQLiteKeyReader.GetOrdinal@@2001080O 10013994 f   System.Data.SQLite.netmodule
 0001:000129d4       ?System.Data.SQLite.SQLiteKeyReader.GetBoolean@@20010208 100139d4 f   System.Data.SQLite.netmodule
 0001:00012a30       ?System.Data.SQLite.SQLiteKeyReader.GetByte@@20010508 10013a30 f   System.Data.SQLite.netmodule
 0001:00012a8c       ?System.Data.SQLite.SQLiteKeyReader.GetBytes@@20050K080K1N050808 10013a8c f   System.Data.SQLite.netmodule
 0001:00012aec       ?System.Data.SQLite.SQLiteKeyReader.GetChar@@20010308 10013aec f   System.Data.SQLite.netmodule
 0001:00012b48       ?System.Data.SQLite.SQLiteKeyReader.GetChars@@20050K080K1N030808 10013b48 f   System.Data.SQLite.netmodule
 0001:00012ba8       ?System.Data.SQLite.SQLiteKeyReader.GetDateTime@@2001117N08 10013ba8 f   System.Data.SQLite.netmodule
 0001:00012c04       ?System.Data.SQLite.SQLiteKeyReader.GetDecimal@@200111810908 10013c04 f   System.Data.SQLite.netmodule
 0001:00012c60       ?System.Data.SQLite.SQLiteKeyReader.GetDouble@@20010N08 10013c60 f   System.Data.SQLite.netmodule
 0001:00012cbc       ?System.Data.SQLite.SQLiteKeyReader.GetFloat@@20010M08 10013cbc f   System.Data.SQLite.netmodule
 0001:00012d18       ?System.Data.SQLite.SQLiteKeyReader.GetGuid@@200111810N08 10013d18 f   System.Data.SQLite.netmodule
 0001:00012d74       ?System.Data.SQLite.SQLiteKeyReader.GetInt16@@20010608 10013d74 f   System.Data.SQLite.netmodule
 0001:00012e04       ?System.Data.SQLite.SQLiteKeyReader.GetInt32@@20010808 10013e04 f   System.Data.SQLite.netmodule
 0001:00012e94       ?System.Data.SQLite.SQLiteKeyReader.GetInt64@@20010K08 10013e94 f   System.Data.SQLite.netmodule
 0001:00012f24       ?System.Data.SQLite.SQLiteKeyReader.GetString@@20010O08 10013f24 f   System.Data.SQLite.netmodule
 0001:00012f80       ?System.Data.SQLite.SQLiteKeyReader.GetValue@@20011M08 10013f80 f   System.Data.SQLite.netmodule
 0001:0001300c       ?System.Data.SQLite.SQLiteKeyReader.IsDBNull@@20010208 1001400c f   System.Data.SQLite.netmodule
 0001:000130a4       ?System.Data.SQLite.SQLiteKeyReader.AppendSchemaTable@@2001011280L9 100140a4 f   System.Data.SQLite.netmodule
 0001:000133a8       ?System.Data.SQLite.SQLiteKeyReader.KeyQuery..ctor@@20040112480O0O1N0O 100143a8 f   System.Data.SQLite.netmodule
 0001:00013464       ?System.Data.SQLite.SQLiteKeyReader.KeyQuery.set_IsValid@@20010102 10014464 f   System.Data.SQLite.netmodule
 0001:00013494       ?System.Data.SQLite.SQLiteKeyReader.KeyQuery.Sync@@2001010K 10014494 f   System.Data.SQLite.netmodule
 0001:000134e4       ?System.Data.SQLite.SQLiteKeyReader.KeyQuery.Dispose@@200001 100144e4 f   System.Data.SQLite.netmodule
 0001:00013500       ?System.Data.SQLite.SQLiteKeyReader.KeyQuery.CheckDisposed@@200001 10014500 f   System.Data.SQLite.netmodule
 0001:0001352c       ?System.Data.SQLite.SQLiteKeyReader.KeyQuery.Dispose@@20010102 1001452c f   System.Data.SQLite.netmodule
 0001:0001356c       ?System.Data.SQLite.SQLiteKeyReader.KeyQuery.Finalize@@200001 1001456c f   System.Data.SQLite.netmodule
 0001:000135a8       ?System.Data.SQLite.LogEventArgs..ctor@@200401181M0O1M 100145a8 f   System.Data.SQLite.netmodule
 0001:000135d4       ?System.Data.SQLite.SQLiteLog.add__handlers@@000101128124 100145d4 f   System.Data.SQLite.netmodule
 0001:00013608       ?System.Data.SQLite.SQLiteLog.remove__handlers@@000101128124 10014608 f   System.Data.SQLite.netmodule
 0001:0001363c       ?System.Data.SQLite.SQLiteLog.Initialize@@000001 1001463c f   System.Data.SQLite.netmodule
 0001:00013728       ?System.Data.SQLite.SQLiteLog.DomainUnload@@0002011M1225 10014728 f   System.Data.SQLite.netmodule
 0001:000137e0       ?System.Data.SQLite.SQLiteLog.add_Log@@000101128124 100147e0 f   System.Data.SQLite.netmodule
 0001:00013834       ?System.Data.SQLite.SQLiteLog.remove_Log@@000101128124 10014834 f   System.Data.SQLite.netmodule
 0001:00013880       ?System.Data.SQLite.SQLiteLog.get_Enabled@@000002 10014880 f   System.Data.SQLite.netmodule
 0001:000138cc       ?System.Data.SQLite.SQLiteLog.set_Enabled@@00010102 100148cc f   System.Data.SQLite.netmodule
 0001:00013918       ?System.Data.SQLite.SQLiteLog.LogMessage@@0001010O 10014918 f   System.Data.SQLite.netmodule
 0001:0001392c       ?System.Data.SQLite.SQLiteLog.LogMessage@@0002011180O00O 1001492c f   System.Data.SQLite.netmodule
 0001:00013948       ?System.Data.SQLite.SQLiteLog.LogMessage@@000201080O 10014948 f   System.Data.SQLite.netmodule
 0001:00013964       ?System.Data.SQLite.SQLiteLog.LogMessage@@0002011M0O 10014964 f   System.Data.SQLite.netmodule
 0001:000139e4       ?System.Data.SQLite.SQLiteLog.InitializeDefaultHandler@@000001 100149e4 f   System.Data.SQLite.netmodule
 0001:00013a44       ?System.Data.SQLite.SQLiteLog.AddDefaultHandler@@000001 10014a44 f   System.Data.SQLite.netmodule
 0001:00013a60       ?System.Data.SQLite.SQLiteLog.RemoveDefaultHandler@@000001 10014a60 f   System.Data.SQLite.netmodule
 0001:00013a7c       ?System.Data.SQLite.SQLiteLog.LogCallback@@000301180818 10014a7c f   System.Data.SQLite.netmodule
 0001:00013b04       ?System.Data.SQLite.SQLiteLog.LogEventHandler@@0002011M128120 10014b04 f   System.Data.SQLite.netmodule
 0001:00013c10       ?System.Data.SQLite.SQLiteLog..cctor@@000001 10014c10 f   System.Data.SQLite.netmodule
 0001:00013c28       ?System.Data.SQLite.SQLiteMetaDataCollectionNames..cctor@@000001 10014c28 f   System.Data.SQLite.netmodule
 0001:00013c90       ?System.Data.SQLite.SQLiteParameter..ctor@@200001 10014c90 f   System.Data.SQLite.netmodule
 0001:00013cac       ?System.Data.SQLite.SQLiteParameter..ctor@@2001010O 10014cac f   System.Data.SQLite.netmodule
 0001:00013cc8       ?System.Data.SQLite.SQLiteParameter..ctor@@2002010O1M 10014cc8 f   System.Data.SQLite.netmodule
 0001:00013cec       ?System.Data.SQLite.SQLiteParameter..ctor@@2002010O1179 10014cec f   System.Data.SQLite.netmodule
 0001:00013d08       ?System.Data.SQLite.SQLiteParameter..ctor@@2003010O11790O 10014d08 f   System.Data.SQLite.netmodule
 0001:00013d24       ?System.Data.SQLite.SQLiteParameter..ctor@@2004010O11790O118129 10014d24 f   System.Data.SQLite.netmodule
 0001:00013d40       ?System.Data.SQLite.SQLiteParameter..ctor@@2001011179 10014d40 f   System.Data.SQLite.netmodule
 0001:00013d5c       ?System.Data.SQLite.SQLiteParameter..ctor@@20020111791M 10014d5c f   System.Data.SQLite.netmodule
 0001:00013d80       ?System.Data.SQLite.SQLiteParameter..ctor@@20020111790O 10014d80 f   System.Data.SQLite.netmodule
 0001:00013d9c       ?System.Data.SQLite.SQLiteParameter..ctor@@20030111790O118129 10014d9c f   System.Data.SQLite.netmodule
 0001:00013db4       ?System.Data.SQLite.SQLiteParameter..ctor@@2003010O117908 10014db4 f   System.Data.SQLite.netmodule
 0001:00013dd0       ?System.Data.SQLite.SQLiteParameter..ctor@@2004010O1179080O 10014dd0 f   System.Data.SQLite.netmodule
 0001:00013df0       ?System.Data.SQLite.SQLiteParameter..ctor@@2005010O1179080O118129 10014df0 f   System.Data.SQLite.netmodule
 0001:00013e30       ?System.Data.SQLite.SQLiteParameter..ctor@@200101128130 10014e30 f   System.Data.SQLite.netmodule
 0001:00013e7c       ?System.Data.SQLite.SQLiteParameter..ctor@@200K010O11790811812N0205050O1181291M 10014e7c f   System.Data.SQLite.netmodule
 0001:00013eb0       ?System.Data.SQLite.SQLiteParameter..ctor@@200K010O11790811812N05050O118129021M 10014eb0 f   System.Data.SQLite.netmodule
 0001:00013ee4       ?System.Data.SQLite.SQLiteParameter..ctor@@200201117908 10014ee4 f   System.Data.SQLite.netmodule
 0001:00013f00       ?System.Data.SQLite.SQLiteParameter..ctor@@2003011179080O 10014f00 f   System.Data.SQLite.netmodule
 0001:00013f1c       ?System.Data.SQLite.SQLiteParameter..ctor@@2004011179080O118129 10014f1c f   System.Data.SQLite.netmodule
 0001:00013f38       ?System.Data.SQLite.SQLiteParameter.get_IsNullable@@200002 10014f38 f   System.Data.SQLite.netmodule
 0001:00013f4c       ?System.Data.SQLite.SQLiteParameter.set_IsNullable@@20010102 10014f4c f   System.Data.SQLite.netmodule
 0001:00013f60       ?System.Data.SQLite.SQLiteParameter.get_DbType@@20001179 10014f60 f   System.Data.SQLite.netmodule
 0001:00013fa8       ?System.Data.SQLite.SQLiteParameter.set_DbType@@2001011179 10014fa8 f   System.Data.SQLite.netmodule
 0001:00013fbc       ?System.Data.SQLite.SQLiteParameter.get_Direction@@200011812N 10014fbc f   System.Data.SQLite.netmodule
 0001:00013fcc       ?System.Data.SQLite.SQLiteParameter.set_Direction@@20010111812N 10014fcc f   System.Data.SQLite.netmodule
 0001:00013fe4       ?System.Data.SQLite.SQLiteParameter.get_ParameterName@@20000O 10014fe4 f   System.Data.SQLite.netmodule
 0001:00013ff8       ?System.Data.SQLite.SQLiteParameter.set_ParameterName@@2001010O 10014ff8 f   System.Data.SQLite.netmodule
 0001:0001400c       ?System.Data.SQLite.SQLiteParameter.ResetDbType@@200001 1001500c f   System.Data.SQLite.netmodule
 0001:00014020       ?System.Data.SQLite.SQLiteParameter.get_Size@@200008 10015020 f   System.Data.SQLite.netmodule
 0001:00014034       ?System.Data.SQLite.SQLiteParameter.set_Size@@20010108 10015034 f   System.Data.SQLite.netmodule
 0001:00014048       ?System.Data.SQLite.SQLiteParameter.get_SourceColumn@@20000O 10015048 f   System.Data.SQLite.netmodule
 0001:0001405c       ?System.Data.SQLite.SQLiteParameter.set_SourceColumn@@2001010O 1001505c f   System.Data.SQLite.netmodule
 0001:00014070       ?System.Data.SQLite.SQLiteParameter.get_SourceColumnNullMapping@@200002 10015070 f   System.Data.SQLite.netmodule
 0001:00014084       ?System.Data.SQLite.SQLiteParameter.set_SourceColumnNullMapping@@20010102 10015084 f   System.Data.SQLite.netmodule
 0001:00014098       ?System.Data.SQLite.SQLiteParameter.get_SourceVersion@@2000118129 10015098 f   System.Data.SQLite.netmodule
 0001:000140ac       ?System.Data.SQLite.SQLiteParameter.set_SourceVersion@@200101118129 100150ac f   System.Data.SQLite.netmodule
 0001:000140c0       ?System.Data.SQLite.SQLiteParameter.get_Value@@20001M 100150c0 f   System.Data.SQLite.netmodule
 0001:000140d4       ?System.Data.SQLite.SQLiteParameter.set_Value@@2001011M 100150d4 f   System.Data.SQLite.netmodule
 0001:0001411c       ?System.Data.SQLite.SQLiteParameter.Clone@@20001M 1001511c f   System.Data.SQLite.netmodule
 0001:00014134       ?System.Data.SQLite.SQLiteParameterCollection..ctor@@2001011238 10015134 f   System.Data.SQLite.netmodule
 0001:00014160       ?System.Data.SQLite.SQLiteParameterCollection.get_IsSynchronized@@200002 10015160 f   System.Data.SQLite.netmodule
 0001:00014170       ?System.Data.SQLite.SQLiteParameterCollection.get_IsFixedSize@@200002 10015170 f   System.Data.SQLite.netmodule
 0001:00014180       ?System.Data.SQLite.SQLiteParameterCollection.get_IsReadOnly@@200002 10015180 f   System.Data.SQLite.netmodule
 0001:00014190       ?System.Data.SQLite.SQLiteParameterCollection.get_SyncRoot@@20001M 10015190 f   System.Data.SQLite.netmodule
 0001:000141a0       ?System.Data.SQLite.SQLiteParameterCollection.GetEnumerator@@20001269 100151a0 f   System.Data.SQLite.netmodule
 0001:000141c0       ?System.Data.SQLite.SQLiteParameterCollection.Add@@20041281300O1179080O 100151c0 f   System.Data.SQLite.netmodule
 0001:000141e4       ?System.Data.SQLite.SQLiteParameterCollection.Add@@20031281300O117908 100151e4 f   System.Data.SQLite.netmodule
 0001:00014204       ?System.Data.SQLite.SQLiteParameterCollection.Add@@20021281300O1179 10015204 f   System.Data.SQLite.netmodule
 0001:00014224       ?System.Data.SQLite.SQLiteParameterCollection.Add@@200108128130 10015224 f   System.Data.SQLite.netmodule
 0001:00014274       ?System.Data.SQLite.SQLiteParameterCollection.Add@@2001081M 10015274 f   System.Data.SQLite.netmodule
 0001:00014290       ?System.Data.SQLite.SQLiteParameterCollection.AddWithValue@@20021281300O1M 10015290 f   System.Data.SQLite.netmodule
 0001:000142b0       ?System.Data.SQLite.SQLiteParameterCollection.AddRange@@2001011N128130 100152b0 f   System.Data.SQLite.netmodule
 0001:000142d8       ?System.Data.SQLite.SQLiteParameterCollection.AddRange@@200101128131 100152d8 f   System.Data.SQLite.netmodule
 0001:0001430c       ?System.Data.SQLite.SQLiteParameterCollection.Clear@@200001 1001530c f   System.Data.SQLite.netmodule
 0001:0001432c       ?System.Data.SQLite.SQLiteParameterCollection.Contains@@2001020O 1001532c f   System.Data.SQLite.netmodule
 0001:00014348       ?System.Data.SQLite.SQLiteParameterCollection.Contains@@2001021M 10015348 f   System.Data.SQLite.netmodule
 0001:00014368       ?System.Data.SQLite.SQLiteParameterCollection.CopyTo@@20020112813108 10015368 f   System.Data.SQLite.netmodule
 0001:0001437c       ?System.Data.SQLite.SQLiteParameterCollection.get_Count@@200008 1001537c f   System.Data.SQLite.netmodule
 0001:00014394       ?System.Data.SQLite.SQLiteParameterCollection.get_Item@@20011281300O 10015394 f   System.Data.SQLite.netmodule
 0001:000143b0       ?System.Data.SQLite.SQLiteParameterCollection.set_Item@@2002010O128130 100153b0 f   System.Data.SQLite.netmodule
 0001:000143c8       ?System.Data.SQLite.SQLiteParameterCollection.get_Item@@200112813008 100153c8 f   System.Data.SQLite.netmodule
 0001:000143e4       ?System.Data.SQLite.SQLiteParameterCollection.set_Item@@20020108128130 100153e4 f   System.Data.SQLite.netmodule
 0001:000143fc       ?System.Data.SQLite.SQLiteParameterCollection.GetParameter@@200112550O 100153fc f   System.Data.SQLite.netmodule
 0001:00014418       ?System.Data.SQLite.SQLiteParameterCollection.GetParameter@@2001125508 10015418 f   System.Data.SQLite.netmodule
 0001:00014434       ?System.Data.SQLite.SQLiteParameterCollection.IndexOf@@2001080O 10015434 f   System.Data.SQLite.netmodule
 0001:00014478       ?System.Data.SQLite.SQLiteParameterCollection.IndexOf@@2001081M 10015478 f   System.Data.SQLite.netmodule
 0001:00014498       ?System.Data.SQLite.SQLiteParameterCollection.Insert@@200201081M 10015498 f   System.Data.SQLite.netmodule
 0001:000144c0       ?System.Data.SQLite.SQLiteParameterCollection.Remove@@2001011M 100154c0 f   System.Data.SQLite.netmodule
 0001:000144e8       ?System.Data.SQLite.SQLiteParameterCollection.RemoveAt@@2001010O 100154e8 f   System.Data.SQLite.netmodule
 0001:00014504       ?System.Data.SQLite.SQLiteParameterCollection.RemoveAt@@20010108 10015504 f   System.Data.SQLite.netmodule
 0001:00014524       ?System.Data.SQLite.SQLiteParameterCollection.SetParameter@@2002010O1255 10015524 f   System.Data.SQLite.netmodule
 0001:00014540       ?System.Data.SQLite.SQLiteParameterCollection.SetParameter@@200201081255 10015540 f   System.Data.SQLite.netmodule
 0001:00014568       ?System.Data.SQLite.SQLiteParameterCollection.Unbind@@200001 10015568 f   System.Data.SQLite.netmodule
 0001:0001457c       ?System.Data.SQLite.SQLiteParameterCollection.MapParameters@@200101128138 1001557c f   System.Data.SQLite.netmodule
 0001:00014708       ?System.Data.SQLite.SQLiteStatement..ctor@@200501121811301281M00O128138 10015708 f   System.Data.SQLite.netmodule
 0001:000147ec       ?System.Data.SQLite.SQLiteStatement.Dispose@@200001 100157ec f   System.Data.SQLite.netmodule
 0001:00014808       ?System.Data.SQLite.SQLiteStatement.CheckDisposed@@200001 10015808 f   System.Data.SQLite.netmodule
 0001:00014834       ?System.Data.SQLite.SQLiteStatement.Dispose@@20010102 10015834 f   System.Data.SQLite.netmodule
 0001:0001488c       ?System.Data.SQLite.SQLiteStatement.Finalize@@200001 1001588c f   System.Data.SQLite.netmodule
 0001:000148c8       ?System.Data.SQLite.SQLiteStatement.TryGetChanges@@2001021008 100158c8 f   System.Data.SQLite.netmodule
 0001:000148fc       ?System.Data.SQLite.SQLiteStatement.MapParameter@@2002020O128130 100158fc f   System.Data.SQLite.netmodule
 0001:00014984       ?System.Data.SQLite.SQLiteStatement.BindParameters@@200001 10015984 f   System.Data.SQLite.netmodule
 0001:000149c0       ?System.Data.SQLite.SQLiteStatement.BindParameter@@20020108128130 100159c0 f   System.Data.SQLite.netmodule
 0001:00014d70       ?System.Data.SQLite.SQLiteStatement.get_TypeDefinitions@@20001N0O 10015d70 f   System.Data.SQLite.netmodule
 0001:00014d84       ?System.Data.SQLite.SQLiteStatement.SetTypes@@2001010O 10015d84 f   System.Data.SQLite.netmodule
 0001:00014e54       ?System.Data.SQLite.SQLiteTransaction..ctor@@200201124802 10015e54 f   System.Data.SQLite.netmodule
 0001:00014f3c       ?System.Data.SQLite.SQLiteTransaction.CheckDisposed@@200001 10015f3c f   System.Data.SQLite.netmodule
 0001:00014f68       ?System.Data.SQLite.SQLiteTransaction.Dispose@@20010102 10015f68 f   System.Data.SQLite.netmodule
 0001:00014fc0       ?System.Data.SQLite.SQLiteTransaction.Commit@@200001 10015fc0 f   System.Data.SQLite.netmodule
 0001:0001504c       ?System.Data.SQLite.SQLiteTransaction.get_Connection@@20001248 1001604c f   System.Data.SQLite.netmodule
 0001:00015068       ?System.Data.SQLite.SQLiteTransaction.get_DbConnection@@20001229 10016068 f   System.Data.SQLite.netmodule
 0001:0001507c       ?System.Data.SQLite.SQLiteTransaction.get_IsolationLevel@@20001180MN 1001607c f   System.Data.SQLite.netmodule
 0001:00015098       ?System.Data.SQLite.SQLiteTransaction.Rollback@@200001 10016098 f   System.Data.SQLite.netmodule
 0001:000150bc       ?System.Data.SQLite.SQLiteTransaction.IssueRollback@@20010102 100160bc f   System.Data.SQLite.netmodule
 0001:00015144       ?System.Data.SQLite.SQLiteTransaction.IsValid@@20010202 10016144 f   System.Data.SQLite.netmodule
 0001:000151e8       ?System.Data.SQLite.UnsafeNativeMethods..cctor@@000001 100161e8 f   System.Data.SQLite.netmodule
 0001:0001523c       ?System.Data.SQLite.UnsafeNativeMethods.Initialize@@000001 1001623c f   System.Data.SQLite.netmodule
 0001:000152e8       ?System.Data.SQLite.UnsafeNativeMethods.GetXmlConfigFileName@@00000O 100162e8 f   System.Data.SQLite.netmodule
 0001:00015334       ?System.Data.SQLite.UnsafeNativeMethods.GetSettingValue@@00020O0O0O 10016334 f   System.Data.SQLite.netmodule
 0001:00015468       ?System.Data.SQLite.UnsafeNativeMethods.ListToString@@00010O15128115010O 10016468 f   System.Data.SQLite.netmodule
 0001:000154e4       ?System.Data.SQLite.UnsafeNativeMethods.CheckForArchitecturesAndPlatforms@@0002080O1015128095010O 100164e4 f   System.Data.SQLite.netmodule
 0001:000155e0       ?System.Data.SQLite.UnsafeNativeMethods.CheckAssemblyCodeBase@@0002021280N1100O 100165e0 f   System.Data.SQLite.netmodule
 0001:000156d0       ?System.Data.SQLite.UnsafeNativeMethods.GetAssemblyDirectory@@00000O 100166d0 f   System.Data.SQLite.netmodule
 0001:0001578c       ?System.Data.SQLite.UnsafeNativeMethods.sqlite3_index_constraint..ctor@@2001011281O0 1001678c f   System.Data.SQLite.netmodule
 0001:000157d4       ?System.Data.SQLite.UnsafeNativeMethods.sqlite3_index_orderby..ctor@@2001011281O4 100167d4 f   System.Data.SQLite.netmodule
 0001:00015804       ?System.Data.SQLite.UnsafeNativeMethods.sqlite3_index_constraint_usage..ctor@@2001011281O8 10016804 f   System.Data.SQLite.netmodule
 0001:00015834       ?System.Data.SQLite.SQLiteConnectionHandle.op_Implicit@@0001181281LM 10016834 f   System.Data.SQLite.netmodule
 0001:00015850       ?System.Data.SQLite.SQLiteConnectionHandle..ctor@@2002011802 10016850 f   System.Data.SQLite.netmodule
 0001:00015874       ?System.Data.SQLite.SQLiteConnectionHandle..ctor@@20010102 10016874 f   System.Data.SQLite.netmodule
 0001:0001588c       ?System.Data.SQLite.SQLiteConnectionHandle.ReleaseHandle@@200002 1001688c f   System.Data.SQLite.netmodule
 0001:0001590c       ?System.Data.SQLite.SQLiteConnectionHandle.get_OwnHandle@@200002 1001690c f   System.Data.SQLite.netmodule
 0001:00015920       ?System.Data.SQLite.SQLiteConnectionHandle.get_IsInvalid@@200002 10016920 f   System.Data.SQLite.netmodule
 0001:00015940       ?System.Data.SQLite.SQLiteStatementHandle.op_Implicit@@0001181281M0 10016940 f   System.Data.SQLite.netmodule
 0001:0001595c       ?System.Data.SQLite.SQLiteStatementHandle..ctor@@2002011281LM18 1001695c f   System.Data.SQLite.netmodule
 0001:00015980       ?System.Data.SQLite.SQLiteStatementHandle..ctor@@200001 10016980 f   System.Data.SQLite.netmodule
 0001:00015998       ?System.Data.SQLite.SQLiteStatementHandle.ReleaseHandle@@200002 10016998 f   System.Data.SQLite.netmodule
 0001:00015a14       ?System.Data.SQLite.SQLiteStatementHandle.get_IsInvalid@@200002 10016a14 f   System.Data.SQLite.netmodule
 0001:00015a34       ?System.Data.SQLite.SQLiteBackupHandle.op_Implicit@@0001181281M4 10016a34 f   System.Data.SQLite.netmodule
 0001:00015a50       ?System.Data.SQLite.SQLiteBackupHandle..ctor@@2002011281LM18 10016a50 f   System.Data.SQLite.netmodule
 0001:00015a74       ?System.Data.SQLite.SQLiteBackupHandle..ctor@@200001 10016a74 f   System.Data.SQLite.netmodule
 0001:00015a8c       ?System.Data.SQLite.SQLiteBackupHandle.ReleaseHandle@@200002 10016a8c f   System.Data.SQLite.netmodule
 0001:00015b08       ?System.Data.SQLite.SQLiteBackupHandle.get_IsInvalid@@200002 10016b08 f   System.Data.SQLite.netmodule
 0001:00015b28       ?System.Data.SQLite.SR..ctor@@200001 10016b28 f   System.Data.SQLite.netmodule
 0001:00015b3c       ?System.Data.SQLite.SR.get_ResourceManager@@0000128135 10016b3c f   System.Data.SQLite.netmodule
 0001:00015b7c       ?System.Data.SQLite.SR.get_Culture@@0000128139 10016b7c f   System.Data.SQLite.netmodule
 0001:00015b90       ?System.Data.SQLite.SR.set_Culture@@000101128139 10016b90 f   System.Data.SQLite.netmodule
 0001:00015ba4       ?System.Data.SQLite.SR.get_DataTypes@@00000O 10016ba4 f   System.Data.SQLite.netmodule
 0001:00015bc8       ?System.Data.SQLite.SR.get_Keywords@@00000O 10016bc8 f   System.Data.SQLite.netmodule
 0001:00015bec       ?System.Data.SQLite.SR.get_MetaDataCollections@@00000O 10016bec f   System.Data.SQLite.netmodule
 0001:00015c10       ?System.Data.SQLite.SQLiteEnlistment..ctor@@20050112481280O51180MN0202 10016c10 f   System.Data.SQLite.netmodule
 0001:00015c54       ?System.Data.SQLite.SQLiteEnlistment.GetSystemDataIsolationLevel@@20051180MN12481280O51180MN0202 10016c54 f   System.Data.SQLite.netmodule
 0001:00015d00       ?System.Data.SQLite.SQLiteEnlistment.Cleanup@@2001011248 10016d00 f   System.Data.SQLite.netmodule
 0001:00015d2c       ?System.Data.SQLite.SQLiteEnlistment.Dispose@@200001 10016d2c f   System.Data.SQLite.netmodule
 0001:00015d48       ?System.Data.SQLite.SQLiteEnlistment.CheckDisposed@@200001 10016d48 f   System.Data.SQLite.netmodule
 0001:00015d74       ?System.Data.SQLite.SQLiteEnlistment.Dispose@@20010102 10016d74 f   System.Data.SQLite.netmodule
 0001:00015dc4       ?System.Data.SQLite.SQLiteEnlistment.Finalize@@200001 10016dc4 f   System.Data.SQLite.netmodule
 0001:00015e00       ?System.Data.SQLite.SQLiteEnlistment.Commit@@20010112813N 10016e00 f   System.Data.SQLite.netmodule
 0001:00015e7c       ?System.Data.SQLite.SQLiteEnlistment.InDoubt@@20010112813N 10016e7c f   System.Data.SQLite.netmodule
 0001:00015e98       ?System.Data.SQLite.SQLiteEnlistment.Prepare@@200101128141 10016e98 f   System.Data.SQLite.netmodule
 0001:00015ec8       ?System.Data.SQLite.SQLiteEnlistment.Rollback@@20010112813N 10016ec8 f   System.Data.SQLite.netmodule
 0001:00015f28       ?System.Data.SQLite.SQLiteContext..ctor@@20010118 10016f28 f   System.Data.SQLite.netmodule
 0001:00015f44       ?System.Data.SQLite.SQLiteContext.get_NativeHandle@@200018 10016f44 f   System.Data.SQLite.netmodule
 0001:00015f58       ?System.Data.SQLite.SQLiteContext.SetNull@@200001 10016f58 f   System.Data.SQLite.netmodule
 0001:00015f88       ?System.Data.SQLite.SQLiteContext.SetDouble@@2001010N 10016f88 f   System.Data.SQLite.netmodule
 0001:00015fbc       ?System.Data.SQLite.SQLiteContext.SetInt@@20010108 10016fbc f   System.Data.SQLite.netmodule
 0001:00015ff0       ?System.Data.SQLite.SQLiteContext.SetInt64@@2001010K 10016ff0 f   System.Data.SQLite.netmodule
 0001:00016024       ?System.Data.SQLite.SQLiteContext.SetString@@2001010O 10017024 f   System.Data.SQLite.netmodule
 0001:00016074       ?System.Data.SQLite.SQLiteContext.SetError@@2001010O 10017074 f   System.Data.SQLite.netmodule
 0001:000160c0       ?System.Data.SQLite.SQLiteContext.SetErrorCode@@2001011180O0 100170c0 f   System.Data.SQLite.netmodule
 0001:000160f4       ?System.Data.SQLite.SQLiteContext.SetErrorTooBig@@200001 100170f4 f   System.Data.SQLite.netmodule
 0001:00016124       ?System.Data.SQLite.SQLiteContext.SetErrorNoMemory@@200001 10017124 f   System.Data.SQLite.netmodule
 0001:00016154       ?System.Data.SQLite.SQLiteContext.SetBlob@@2001011N05 10017154 f   System.Data.SQLite.netmodule
 0001:0001619c       ?System.Data.SQLite.SQLiteContext.SetZeroBlob@@20010108 1001719c f   System.Data.SQLite.netmodule
 0001:000161d0       ?System.Data.SQLite.SQLiteContext.SetValue@@2001011281N8 100171d0 f   System.Data.SQLite.netmodule
 0001:00016214       ?System.Data.SQLite.SQLiteValue..ctor@@20010118 10017214 f   System.Data.SQLite.netmodule
 0001:00016230       ?System.Data.SQLite.SQLiteValue.PreventNativeAccess@@200001 10017230 f   System.Data.SQLite.netmodule
 0001:00016248       ?System.Data.SQLite.SQLiteValue.ArrayFromSizeAndIntPtr@@00021N1281N80818 10017248 f   System.Data.SQLite.netmodule
 0001:000162ac       ?System.Data.SQLite.SQLiteValue.get_NativeHandle@@200018 100172ac f   System.Data.SQLite.netmodule
 0001:000162c0       ?System.Data.SQLite.SQLiteValue.get_Persisted@@200002 100172c0 f   System.Data.SQLite.netmodule
 0001:000162d4       ?System.Data.SQLite.SQLiteValue.get_Value@@20001M 100172d4 f   System.Data.SQLite.netmodule
 0001:000162fc       ?System.Data.SQLite.SQLiteValue.GetTypeAffinity@@200011809M 100172fc f   System.Data.SQLite.netmodule
 0001:0001632c       ?System.Data.SQLite.SQLiteValue.GetBytes@@200008 1001732c f   System.Data.SQLite.netmodule
 0001:00016358       ?System.Data.SQLite.SQLiteValue.GetInt@@200008 10017358 f   System.Data.SQLite.netmodule
 0001:00016384       ?System.Data.SQLite.SQLiteValue.GetInt64@@20000K 10017384 f   System.Data.SQLite.netmodule
 0001:000163b4       ?System.Data.SQLite.SQLiteValue.GetDouble@@20000N 100173b4 f   System.Data.SQLite.netmodule
 0001:000163e8       ?System.Data.SQLite.SQLiteValue.GetString@@20000O 100173e8 f   System.Data.SQLite.netmodule
 0001:0001641c       ?System.Data.SQLite.SQLiteValue.GetBlob@@20001N05 1001741c f   System.Data.SQLite.netmodule
 0001:00016450       ?System.Data.SQLite.SQLiteValue.Persist@@200002 10017450 f   System.Data.SQLite.netmodule
 0001:00016548       ?System.Data.SQLite.SQLiteIndexConstraint..ctor@@2001011181KM 10017548 f   System.Data.SQLite.netmodule
 0001:00016578       ?System.Data.SQLite.SQLiteIndexConstraint..ctor@@200401081181NM0508 10017578 f   System.Data.SQLite.netmodule
 0001:000165a8       ?System.Data.SQLite.SQLiteIndexOrderBy..ctor@@2001011181L0 100175a8 f   System.Data.SQLite.netmodule
 0001:000165cc       ?System.Data.SQLite.SQLiteIndexOrderBy..ctor@@2002010805 100175cc f   System.Data.SQLite.netmodule
 0001:000165f0       ?System.Data.SQLite.SQLiteIndexConstraintUsage..ctor@@2001011181L4 100175f0 f   System.Data.SQLite.netmodule
 0001:00016614       ?System.Data.SQLite.SQLiteIndexConstraintUsage..ctor@@2002010805 10017614 f   System.Data.SQLite.netmodule
 0001:00016638       ?System.Data.SQLite.SQLiteIndexInputs..ctor@@2002010808 10017638 f   System.Data.SQLite.netmodule
 0001:00016664       ?System.Data.SQLite.SQLiteIndexInputs.get_Constraints@@20001N1281O0 10017664 f   System.Data.SQLite.netmodule
 0001:00016678       ?System.Data.SQLite.SQLiteIndexInputs.get_OrderBys@@20001N1281O4 10017678 f   System.Data.SQLite.netmodule
 0001:0001668c       ?System.Data.SQLite.SQLiteIndexOutputs..ctor@@20010108 1001768c f   System.Data.SQLite.netmodule
 0001:000166ac       ?System.Data.SQLite.SQLiteIndexOutputs.CanUseEstimatedRows@@200002 100176ac f   System.Data.SQLite.netmodule
 0001:000166c8       ?System.Data.SQLite.SQLiteIndexOutputs.get_ConstraintUsages@@20001N1281O8 100176c8 f   System.Data.SQLite.netmodule
 0001:000166dc       ?System.Data.SQLite.SQLiteIndexOutputs.get_IndexNumber@@200008 100176dc f   System.Data.SQLite.netmodule
 0001:000166f0       ?System.Data.SQLite.SQLiteIndexOutputs.set_IndexNumber@@20010108 100176f0 f   System.Data.SQLite.netmodule
 0001:00016704       ?System.Data.SQLite.SQLiteIndexOutputs.get_IndexString@@20000O 10017704 f   System.Data.SQLite.netmodule
 0001:00016718       ?System.Data.SQLite.SQLiteIndexOutputs.set_IndexString@@2001010O 10017718 f   System.Data.SQLite.netmodule
 0001:0001672c       ?System.Data.SQLite.SQLiteIndexOutputs.get_NeedToFreeIndexString@@200008 1001772c f   System.Data.SQLite.netmodule
 0001:00016740       ?System.Data.SQLite.SQLiteIndexOutputs.set_NeedToFreeIndexString@@20010108 10017740 f   System.Data.SQLite.netmodule
 0001:00016754       ?System.Data.SQLite.SQLiteIndexOutputs.get_OrderByConsumed@@200008 10017754 f   System.Data.SQLite.netmodule
 0001:00016768       ?System.Data.SQLite.SQLiteIndexOutputs.set_OrderByConsumed@@20010108 10017768 f   System.Data.SQLite.netmodule
 0001:0001677c       ?System.Data.SQLite.SQLiteIndexOutputs.get_EstimatedCost@@200015118091010N 1001777c f   System.Data.SQLite.netmodule
 0001:00016790       ?System.Data.SQLite.SQLiteIndexOutputs.set_EstimatedCost@@20010115118091010N 10017790 f   System.Data.SQLite.netmodule
 0001:000167a4       ?System.Data.SQLite.SQLiteIndexOutputs.get_EstimatedRows@@200015118091010K 100177a4 f   System.Data.SQLite.netmodule
 0001:000167b8       ?System.Data.SQLite.SQLiteIndexOutputs.set_EstimatedRows@@20010115118091010K 100177b8 f   System.Data.SQLite.netmodule
 0001:000167cc       ?System.Data.SQLite.SQLiteIndex..ctor@@2002010808 100177cc f   System.Data.SQLite.netmodule
 0001:000167f8       ?System.Data.SQLite.SQLiteIndex.FromIntPtr@@00020118101281P4 100177f8 f   System.Data.SQLite.netmodule
 0001:00016910       ?System.Data.SQLite.SQLiteIndex.ToIntPtr@@0002011281P418 10017910 f   System.Data.SQLite.netmodule
 0001:00016af8       ?System.Data.SQLite.SQLiteIndex.get_Inputs@@20001281OM 10017af8 f   System.Data.SQLite.netmodule
 0001:00016b0c       ?System.Data.SQLite.SQLiteIndex.get_Outputs@@20001281P0 10017b0c f   System.Data.SQLite.netmodule
 0001:00016b20       ?System.Data.SQLite.SQLiteVirtualTable..ctor@@2001011N0O 10017b20 f   System.Data.SQLite.netmodule
 0001:00016b3c       ?System.Data.SQLite.SQLiteVirtualTable.get_Arguments@@20001N0O 10017b3c f   System.Data.SQLite.netmodule
 0001:00016b58       ?System.Data.SQLite.SQLiteVirtualTable.get_ModuleName@@20000O 10017b58 f   System.Data.SQLite.netmodule
 0001:00016b80       ?System.Data.SQLite.SQLiteVirtualTable.get_DatabaseName@@20000O 10017b80 f   System.Data.SQLite.netmodule
 0001:00016ba8       ?System.Data.SQLite.SQLiteVirtualTable.get_TableName@@20000O 10017ba8 f   System.Data.SQLite.netmodule
 0001:00016bd0       ?System.Data.SQLite.SQLiteVirtualTable.get_Index@@20001281P4 10017bd0 f   System.Data.SQLite.netmodule
 0001:00016bec       ?System.Data.SQLite.SQLiteVirtualTable.BestIndex@@2001021281P4 10017bec f   System.Data.SQLite.netmodule
 0001:00016c08       ?System.Data.SQLite.SQLiteVirtualTable.Rename@@2001020O 10017c08 f   System.Data.SQLite.netmodule
 0001:00016c3c       ?System.Data.SQLite.SQLiteVirtualTable.get_NativeHandle@@200018 10017c3c f   System.Data.SQLite.netmodule
 0001:00016c58       ?System.Data.SQLite.SQLiteVirtualTable.set_NativeHandle@@20010118 10017c58 f   System.Data.SQLite.netmodule
 0001:00016c6c       ?System.Data.SQLite.SQLiteVirtualTable.Dispose@@200001 10017c6c f   System.Data.SQLite.netmodule
 0001:00016c88       ?System.Data.SQLite.SQLiteVirtualTable.CheckDisposed@@200001 10017c88 f   System.Data.SQLite.netmodule
 0001:00016cb4       ?System.Data.SQLite.SQLiteVirtualTable.Dispose@@20010102 10017cb4 f   System.Data.SQLite.netmodule
 0001:00016cd0       ?System.Data.SQLite.SQLiteVirtualTable.Finalize@@200001 10017cd0 f   System.Data.SQLite.netmodule
 0001:00016d0c       ?System.Data.SQLite.SQLiteVirtualTableCursor..ctor@@2001011281P8 10017d0c f   System.Data.SQLite.netmodule
 0001:00016d28       ?System.Data.SQLite.SQLiteVirtualTableCursor..ctor@@200001 10017d28 f   System.Data.SQLite.netmodule
 0001:00016d48       ?System.Data.SQLite.SQLiteVirtualTableCursor.get_Table@@20001281P8 10017d48 f   System.Data.SQLite.netmodule
 0001:00016d64       ?System.Data.SQLite.SQLiteVirtualTableCursor.get_IndexNumber@@200008 10017d64 f   System.Data.SQLite.netmodule
 0001:00016d80       ?System.Data.SQLite.SQLiteVirtualTableCursor.get_IndexString@@20000O 10017d80 f   System.Data.SQLite.netmodule
 0001:00016d9c       ?System.Data.SQLite.SQLiteVirtualTableCursor.get_Values@@20001N1281N8 10017d9c f   System.Data.SQLite.netmodule
 0001:00016db8       ?System.Data.SQLite.SQLiteVirtualTableCursor.TryPersistValues@@2001081N1281N8 10017db8 f   System.Data.SQLite.netmodule
 0001:00016df0       ?System.Data.SQLite.SQLiteVirtualTableCursor.Filter@@200301080O1N1281N8 10017df0 f   System.Data.SQLite.netmodule
 0001:00016e34       ?System.Data.SQLite.SQLiteVirtualTableCursor.GetRowIndex@@200008 10017e34 f   System.Data.SQLite.netmodule
 0001:00016e48       ?System.Data.SQLite.SQLiteVirtualTableCursor.NextRowIndex@@200001 10017e48 f   System.Data.SQLite.netmodule
 0001:00016e64       ?System.Data.SQLite.SQLiteVirtualTableCursor.get_NativeHandle@@200018 10017e64 f   System.Data.SQLite.netmodule
 0001:00016e80       ?System.Data.SQLite.SQLiteVirtualTableCursor.set_NativeHandle@@20010118 10017e80 f   System.Data.SQLite.netmodule
 0001:00016e94       ?System.Data.SQLite.SQLiteVirtualTableCursor.Dispose@@200001 10017e94 f   System.Data.SQLite.netmodule
 0001:00016eb0       ?System.Data.SQLite.SQLiteVirtualTableCursor.CheckDisposed@@200001 10017eb0 f   System.Data.SQLite.netmodule
 0001:00016edc       ?System.Data.SQLite.SQLiteVirtualTableCursor.Dispose@@20010102 10017edc f   System.Data.SQLite.netmodule
 0001:00016ef8       ?System.Data.SQLite.SQLiteVirtualTableCursor.Finalize@@200001 10017ef8 f   System.Data.SQLite.netmodule
 0001:00016f34       ?System.Data.SQLite.SQLiteVirtualTableCursor..cctor@@000001 10017f34 f   System.Data.SQLite.netmodule
 0001:00016f44       ?System.Data.SQLite.SQLiteMemory.Allocate@@00011808 10017f44 f   System.Data.SQLite.netmodule
 0001:00016f5c       ?System.Data.SQLite.SQLiteMemory.Size@@00010818 10017f5c f   System.Data.SQLite.netmodule
 0001:00016f70       ?System.Data.SQLite.SQLiteMemory.Free@@00010118 10017f70 f   System.Data.SQLite.netmodule
 0001:00016f84       ?System.Data.SQLite.SQLiteString.GetUtf8BytesFromString@@00011N050O 10017f84 f   System.Data.SQLite.netmodule
 0001:00016fa4       ?System.Data.SQLite.SQLiteString.GetStringFromUtf8Bytes@@00010O1N05 10017fa4 f   System.Data.SQLite.netmodule
 0001:00016fc4       ?System.Data.SQLite.SQLiteString.ProbeForUtf8ByteLength@@0002081808 10017fc4 f   System.Data.SQLite.netmodule
 0001:00016ff8       ?System.Data.SQLite.SQLiteString.StringFromUtf8IntPtr@@00010O18 10017ff8 f   System.Data.SQLite.netmodule
 0001:00017018       ?System.Data.SQLite.SQLiteString.StringFromUtf8IntPtr@@00020O1808 10018018 f   System.Data.SQLite.netmodule
 0001:00017054       ?System.Data.SQLite.SQLiteString.Utf8IntPtrFromString@@0001180O 10018054 f   System.Data.SQLite.netmodule
 0001:000170b4       ?System.Data.SQLite.SQLiteString.StringArrayFromUtf8SizeAndIntPtr@@00021N0O0818 100180b4 f   System.Data.SQLite.netmodule
 0001:00017118       ?System.Data.SQLite.SQLiteString.Utf8IntPtrArrayFromStringArray@@00011N181N0O 10018118 f   System.Data.SQLite.netmodule
 0001:00017158       ?System.Data.SQLite.SQLiteString..cctor@@000001 10018158 f   System.Data.SQLite.netmodule
 0001:0001717c       ?System.Data.SQLite.SQLiteBytes.FromIntPtr@@00021N051808 1001817c f   System.Data.SQLite.netmodule
 0001:000171b4       ?System.Data.SQLite.SQLiteBytes.ToIntPtr@@0001181N05 100181b4 f   System.Data.SQLite.netmodule
 0001:000171fc       ?System.Data.SQLite.SQLiteMarshal.IntPtrForOffset@@0002181808 100181fc f   System.Data.SQLite.netmodule
 0001:00017218       ?System.Data.SQLite.SQLiteMarshal.RoundUp@@0002080808 10018218 f   System.Data.SQLite.netmodule
 0001:00017230       ?System.Data.SQLite.SQLiteMarshal.NextOffsetOf@@000308080808 10018230 f   System.Data.SQLite.netmodule
 0001:00017248       ?System.Data.SQLite.SQLiteMarshal.ReadInt32@@0002081808 10018248 f   System.Data.SQLite.netmodule
 0001:0001725c       ?System.Data.SQLite.SQLiteMarshal.ReadDouble@@00020N1808 1001825c f   System.Data.SQLite.netmodule
 0001:00017278       ?System.Data.SQLite.SQLiteMarshal.ReadIntPtr@@0002181808 10018278 f   System.Data.SQLite.netmodule
 0001:0001728c       ?System.Data.SQLite.SQLiteMarshal.WriteInt32@@000301180808 1001828c f   System.Data.SQLite.netmodule
 0001:000172a4       ?System.Data.SQLite.SQLiteMarshal.WriteInt64@@00030118080K 100182a4 f   System.Data.SQLite.netmodule
 0001:000172bc       ?System.Data.SQLite.SQLiteMarshal.WriteDouble@@00030118080N 100182bc f   System.Data.SQLite.netmodule
 0001:000172d8       ?System.Data.SQLite.SQLiteMarshal.WriteIntPtr@@000301180818 100182d8 f   System.Data.SQLite.netmodule
 0001:000172f0       ?System.Data.SQLite.SQLiteMarshal.GetHashCode@@0002081M02 100182f0 f   System.Data.SQLite.netmodule
 0001:00017314       ?System.Data.SQLite.SQLiteModule..ctor@@2001010O 10018314 f   System.Data.SQLite.netmodule
 0001:00017360       ?System.Data.SQLite.SQLiteModule.CreateDisposableModule@@20010218 10018360 f   System.Data.SQLite.netmodule
 0001:00017410       ?System.Data.SQLite.SQLiteModule.xDestroyModule@@20010118 10018410 f   System.Data.SQLite.netmodule
 0001:00017428       ?System.Data.SQLite.SQLiteModule.AllocateNativeModule@@20001181K0 10018428 f   System.Data.SQLite.netmodule
 0001:00017444       ?System.Data.SQLite.SQLiteModule.AllocateNativeModule@@20011181K0128200 10018444 f   System.Data.SQLite.netmodule
 0001:00017888       ?System.Data.SQLite.SQLiteModule.CopyNativeModule@@20011181K01181K0 10018888 f   System.Data.SQLite.netmodule
 0001:00017ccc       ?System.Data.SQLite.SQLiteModule.CreateOrConnect@@20071180O0021818081810181018 10018ccc f   System.Data.SQLite.netmodule
 0001:00017dc0       ?System.Data.SQLite.SQLiteModule.DestroyOrDisconnect@@20021180O00218 10018dc0 f   System.Data.SQLite.netmodule
 0001:00017eac       ?System.Data.SQLite.SQLiteModule.SetTableError@@0005021282181802020O 10018eac f   System.Data.SQLite.netmodule
 0001:00018024       ?System.Data.SQLite.SQLiteModule.SetTableError@@0005021282181281P802020O 10019024 f   System.Data.SQLite.netmodule
 0001:00018058       ?System.Data.SQLite.SQLiteModule.SetCursorError@@0005021282181802020O 10019058 f   System.Data.SQLite.netmodule
 0001:00018098       ?System.Data.SQLite.SQLiteModule.SetCursorError@@0005021282181281PM02020O 10019098 f   System.Data.SQLite.netmodule
 0001:000180cc       ?System.Data.SQLite.SQLiteModule.GetNativeModuleImpl@@2000128200 100190cc f   System.Data.SQLite.netmodule
 0001:000180dc       ?System.Data.SQLite.SQLiteModule.CreateNativeModuleImpl@@2000128200 100190dc f   System.Data.SQLite.netmodule
 0001:000180f0       ?System.Data.SQLite.SQLiteModule.AllocateTable@@200018 100190f0 f   System.Data.SQLite.netmodule
 0001:00018114       ?System.Data.SQLite.SQLiteModule.ZeroTable@@20010118 10019114 f   System.Data.SQLite.netmodule
 0001:0001816c       ?System.Data.SQLite.SQLiteModule.FreeTable@@20010118 1001916c f   System.Data.SQLite.netmodule
 0001:00018188       ?System.Data.SQLite.SQLiteModule.AllocateCursor@@200018 10019188 f   System.Data.SQLite.netmodule
 0001:000181ac       ?System.Data.SQLite.SQLiteModule.FreeCursor@@20010118 100191ac f   System.Data.SQLite.netmodule
 0001:000181c0       ?System.Data.SQLite.SQLiteModule.TableFromCursor@@00021812821818 100191c0 f   System.Data.SQLite.netmodule
 0001:000181e8       ?System.Data.SQLite.SQLiteModule.TableFromCursor@@20011818 100191e8 f   System.Data.SQLite.netmodule
 0001:000181fc       ?System.Data.SQLite.SQLiteModule.TableFromIntPtr@@20011281P818 100191fc f   System.Data.SQLite.netmodule
 0001:00018268       ?System.Data.SQLite.SQLiteModule.TableToIntPtr@@2001181281P8 10019268 f   System.Data.SQLite.netmodule
 0001:000182fc       ?System.Data.SQLite.SQLiteModule.CursorFromIntPtr@@20021281PM1818 100192fc f   System.Data.SQLite.netmodule
 0001:00018368       ?System.Data.SQLite.SQLiteModule.CursorToIntPtr@@2001181281PM 10019368 f   System.Data.SQLite.netmodule
 0001:000183f8       ?System.Data.SQLite.SQLiteModule.GetFunctionKey@@20030O080O1280O8 100193f8 f   System.Data.SQLite.netmodule
 0001:00018418       ?System.Data.SQLite.SQLiteModule.DeclareTable@@20031180O012480O100O 10019418 f   System.Data.SQLite.netmodule
 0001:0001845c       ?System.Data.SQLite.SQLiteModule.DeclareFunction@@20041180O01248080O100O 1001945c f   System.Data.SQLite.netmodule
 0001:00018498       ?System.Data.SQLite.SQLiteModule.get_LogErrorsNoThrow@@200002 10019498 f   System.Data.SQLite.netmodule
 0001:000184ac       ?System.Data.SQLite.SQLiteModule.set_LogErrorsNoThrow@@20010102 100194ac f   System.Data.SQLite.netmodule
 0001:000184c0       ?System.Data.SQLite.SQLiteModule.get_LogExceptionsNoThrow@@200002 100194c0 f   System.Data.SQLite.netmodule
 0001:000184d4       ?System.Data.SQLite.SQLiteModule.set_LogExceptionsNoThrow@@20010102 100194d4 f   System.Data.SQLite.netmodule
 0001:000184e8       ?System.Data.SQLite.SQLiteModule.SetTableError@@200202180O 100194e8 f   System.Data.SQLite.netmodule
 0001:0001850c       ?System.Data.SQLite.SQLiteModule.SetTableError@@2002021281P80O 1001950c f   System.Data.SQLite.netmodule
 0001:00018530       ?System.Data.SQLite.SQLiteModule.SetCursorError@@2002021281PM0O 10019530 f   System.Data.SQLite.netmodule
 0001:00018554       ?System.Data.SQLite.SQLiteModule.SetEstimatedCost@@2002021281P415118091010N 10019554 f   System.Data.SQLite.netmodule
 0001:0001857c       ?System.Data.SQLite.SQLiteModule.SetEstimatedCost@@2001021281P4 1001957c f   System.Data.SQLite.netmodule
 0001:0001859c       ?System.Data.SQLite.SQLiteModule.SetEstimatedRows@@2002021281P415118091010K 1001959c f   System.Data.SQLite.netmodule
 0001:000185c4       ?System.Data.SQLite.SQLiteModule.SetEstimatedRows@@2001021281P4 100195c4 f   System.Data.SQLite.netmodule
 0001:000185e4       ?System.Data.SQLite.SQLiteModule.get_LogErrors@@200002 100195e4 f   System.Data.SQLite.netmodule
 0001:00018600       ?System.Data.SQLite.SQLiteModule.set_LogErrors@@20010102 10019600 f   System.Data.SQLite.netmodule
 0001:0001861c       ?System.Data.SQLite.SQLiteModule.get_LogExceptions@@200002 1001961c f   System.Data.SQLite.netmodule
 0001:00018638       ?System.Data.SQLite.SQLiteModule.set_LogExceptions@@20010102 10019638 f   System.Data.SQLite.netmodule
 0001:00018654       ?System.Data.SQLite.SQLiteModule.xCreate@@20061180O01818081810181018 10019654 f   System.Data.SQLite.netmodule
 0001:00018674       ?System.Data.SQLite.SQLiteModule.xConnect@@20061180O01818081810181018 10019674 f   System.Data.SQLite.netmodule
 0001:00018694       ?System.Data.SQLite.SQLiteModule.xBestIndex@@20021180O01818 10019694 f   System.Data.SQLite.netmodule
 0001:00018700       ?System.Data.SQLite.SQLiteModule.xDisconnect@@20011180O018 10019700 f   System.Data.SQLite.netmodule
 0001:00018718       ?System.Data.SQLite.SQLiteModule.xDestroy@@20011180O018 10019718 f   System.Data.SQLite.netmodule
 0001:00018730       ?System.Data.SQLite.SQLiteModule.xOpen@@20021180O0181018 10019730 f   System.Data.SQLite.netmodule
 0001:000187cc       ?System.Data.SQLite.SQLiteModule.xClose@@20011180O018 100197cc f   System.Data.SQLite.netmodule
 0001:0001886c       ?System.Data.SQLite.SQLiteModule.xFilter@@20051180O01808180818 1001986c f   System.Data.SQLite.netmodule
 0001:000188e4       ?System.Data.SQLite.SQLiteModule.xNext@@20011180O018 100198e4 f   System.Data.SQLite.netmodule
 0001:0001894c       ?System.Data.SQLite.SQLiteModule.xEof@@20010818 1001994c f   System.Data.SQLite.netmodule
 0001:000189b8       ?System.Data.SQLite.SQLiteModule.xColumn@@20031180O0181808 100199b8 f   System.Data.SQLite.netmodule
 0001:00018a28       ?System.Data.SQLite.SQLiteModule.xRowId@@20021180O018100K 10019a28 f   System.Data.SQLite.netmodule
 0001:00018a8c       ?System.Data.SQLite.SQLiteModule.xUpdate@@20041180O0180818100K 10019a8c f   System.Data.SQLite.netmodule
 0001:00018aec       ?System.Data.SQLite.SQLiteModule.xBegin@@20011180O018 10019aec f   System.Data.SQLite.netmodule
 0001:00018b40       ?System.Data.SQLite.SQLiteModule.xSync@@20011180O018 10019b40 f   System.Data.SQLite.netmodule
 0001:00018b94       ?System.Data.SQLite.SQLiteModule.xCommit@@20011180O018 10019b94 f   System.Data.SQLite.netmodule
 0001:00018be8       ?System.Data.SQLite.SQLiteModule.xRollback@@20011180O018 10019be8 f   System.Data.SQLite.netmodule
 0001:00018c3c       ?System.Data.SQLite.SQLiteModule.xFindFunction@@200508180818101280P81018 10019c3c f   System.Data.SQLite.netmodule
 0001:00018cdc       ?System.Data.SQLite.SQLiteModule.xRename@@20021180O01818 10019cdc f   System.Data.SQLite.netmodule
 0001:00018d38       ?System.Data.SQLite.SQLiteModule.xSavepoint@@20021180O01808 10019d38 f   System.Data.SQLite.netmodule
 0001:00018d90       ?System.Data.SQLite.SQLiteModule.xRelease@@20021180O01808 10019d90 f   System.Data.SQLite.netmodule
 0001:00018de8       ?System.Data.SQLite.SQLiteModule.xRollbackTo@@20021180O01808 10019de8 f   System.Data.SQLite.netmodule
 0001:00018e40       ?System.Data.SQLite.SQLiteModule.get_Declared@@200002 10019e40 f   System.Data.SQLite.netmodule
 0001:00018e5c       ?System.Data.SQLite.SQLiteModule.set_Declared@@20010102 10019e5c f   System.Data.SQLite.netmodule
 0001:00018e70       ?System.Data.SQLite.SQLiteModule.get_Name@@20000O 10019e70 f   System.Data.SQLite.netmodule
 0001:00018e8c       ?System.Data.SQLite.SQLiteModule.Dispose@@200001 10019e8c f   System.Data.SQLite.netmodule
 0001:00018ea8       ?System.Data.SQLite.SQLiteModule.CheckDisposed@@200001 10019ea8 f   System.Data.SQLite.netmodule
 0001:00018ed4       ?System.Data.SQLite.SQLiteModule.Dispose@@20010102 10019ed4 f   System.Data.SQLite.netmodule
 0001:00018fa0       ?System.Data.SQLite.SQLiteModule.Finalize@@200001 10019fa0 f   System.Data.SQLite.netmodule
 0001:00018fdc       ?System.Data.SQLite.SQLiteModule..cctor@@000001 10019fdc f   System.Data.SQLite.netmodule
 0001:00018ff0       ?System.Data.SQLite.SQLiteModule.SQLiteNativeModule..ctor@@200101128218 10019ff0 f   System.Data.SQLite.netmodule
 0001:0001900c       ?System.Data.SQLite.SQLiteModule.SQLiteNativeModule.ModuleNotAvailableTableError@@00011180O018 1001a00c f   System.Data.SQLite.netmodule
 0001:0001902c       ?System.Data.SQLite.SQLiteModule.SQLiteNativeModule.ModuleNotAvailableCursorError@@00011180O018 1001a02c f   System.Data.SQLite.netmodule
 0001:0001904c       ?System.Data.SQLite.SQLiteModule.SQLiteNativeModule.xCreate@@20061180O01818081810181018 1001a04c f   System.Data.SQLite.netmodule
 0001:00019088       ?System.Data.SQLite.SQLiteModule.SQLiteNativeModule.xConnect@@20061180O01818081810181018 1001a088 f   System.Data.SQLite.netmodule
 0001:000190c4       ?System.Data.SQLite.SQLiteModule.SQLiteNativeModule.xBestIndex@@20021180O01818 1001a0c4 f   System.Data.SQLite.netmodule
 0001:000190f0       ?System.Data.SQLite.SQLiteModule.SQLiteNativeModule.xDisconnect@@20011180O018 1001a0f0 f   System.Data.SQLite.netmodule
 0001:00019118       ?System.Data.SQLite.SQLiteModule.SQLiteNativeModule.xDestroy@@20011180O018 1001a118 f   System.Data.SQLite.netmodule
 0001:00019140       ?System.Data.SQLite.SQLiteModule.SQLiteNativeModule.xOpen@@20021180O0181018 1001a140 f   System.Data.SQLite.netmodule
 0001:0001916c       ?System.Data.SQLite.SQLiteModule.SQLiteNativeModule.xClose@@20011180O018 1001a16c f   System.Data.SQLite.netmodule
 0001:00019194       ?System.Data.SQLite.SQLiteModule.SQLiteNativeModule.xFilter@@20051180O01808180818 1001a194 f   System.Data.SQLite.netmodule
 0001:000191c4       ?System.Data.SQLite.SQLiteModule.SQLiteNativeModule.xNext@@20011180O018 1001a1c4 f   System.Data.SQLite.netmodule
 0001:000191ec       ?System.Data.SQLite.SQLiteModule.SQLiteNativeModule.xEof@@20010818 1001a1ec f   System.Data.SQLite.netmodule
 0001:00019218       ?System.Data.SQLite.SQLiteModule.SQLiteNativeModule.xColumn@@20031180O0181808 1001a218 f   System.Data.SQLite.netmodule
 0001:00019244       ?System.Data.SQLite.SQLiteModule.SQLiteNativeModule.xRowId@@20021180O018100K 1001a244 f   System.Data.SQLite.netmodule
 0001:00019270       ?System.Data.SQLite.SQLiteModule.SQLiteNativeModule.xUpdate@@20041180O0180818100K 1001a270 f   System.Data.SQLite.netmodule
 0001:0001929c       ?System.Data.SQLite.SQLiteModule.SQLiteNativeModule.xBegin@@20011180O018 1001a29c f   System.Data.SQLite.netmodule
 0001:000192c4       ?System.Data.SQLite.SQLiteModule.SQLiteNativeModule.xSync@@20011180O018 1001a2c4 f   System.Data.SQLite.netmodule
 0001:000192ec       ?System.Data.SQLite.SQLiteModule.SQLiteNativeModule.xCommit@@20011180O018 1001a2ec f   System.Data.SQLite.netmodule
 0001:00019314       ?System.Data.SQLite.SQLiteModule.SQLiteNativeModule.xRollback@@20011180O018 1001a314 f   System.Data.SQLite.netmodule
 0001:0001933c       ?System.Data.SQLite.SQLiteModule.SQLiteNativeModule.xFindFunction@@200508180818101280P81018 1001a33c f   System.Data.SQLite.netmodule
 0001:0001936c       ?System.Data.SQLite.SQLiteModule.SQLiteNativeModule.xRename@@20021180O01818 1001a36c f   System.Data.SQLite.netmodule
 0001:00019398       ?System.Data.SQLite.SQLiteModule.SQLiteNativeModule.xSavepoint@@20021180O01808 1001a398 f   System.Data.SQLite.netmodule
 0001:000193c4       ?System.Data.SQLite.SQLiteModule.SQLiteNativeModule.xRelease@@20021180O01808 1001a3c4 f   System.Data.SQLite.netmodule
 0001:000193f0       ?System.Data.SQLite.SQLiteModule.SQLiteNativeModule.xRollbackTo@@20021180O01808 1001a3f0 f   System.Data.SQLite.netmodule
 0001:0001941c       ?System.Data.SQLite.SQLiteModule.SQLiteNativeModule.Dispose@@200001 1001a41c f   System.Data.SQLite.netmodule
 0001:00019438       ?System.Data.SQLite.SQLiteModule.SQLiteNativeModule.CheckDisposed@@200001 1001a438 f   System.Data.SQLite.netmodule
 0001:00019464       ?System.Data.SQLite.SQLiteModule.SQLiteNativeModule.Dispose@@20010102 1001a464 f   System.Data.SQLite.netmodule
 0001:00019490       ?System.Data.SQLite.SQLiteModule.SQLiteNativeModule.Finalize@@200001 1001a490 f   System.Data.SQLite.netmodule
 0001:000194cc       ?System.Data.SQLite.SQLiteVirtualTableCursorEnumerator..ctor@@2002011281P81269 1001a4cc f   System.Data.SQLite.netmodule
 0001:000194f0       ?System.Data.SQLite.SQLiteVirtualTableCursorEnumerator.MoveNext@@200002 1001a4f0 f   System.Data.SQLite.netmodule
 0001:00019540       ?System.Data.SQLite.SQLiteVirtualTableCursorEnumerator.get_Current@@20001M 1001a540 f   System.Data.SQLite.netmodule
 0001:00019570       ?System.Data.SQLite.SQLiteVirtualTableCursorEnumerator.Reset@@200001 1001a570 f   System.Data.SQLite.netmodule
 0001:000195a0       ?System.Data.SQLite.SQLiteVirtualTableCursorEnumerator.get_EndOfEnumerator@@200002 1001a5a0 f   System.Data.SQLite.netmodule
 0001:000195c0       ?System.Data.SQLite.SQLiteVirtualTableCursorEnumerator.get_IsOpen@@200002 1001a5c0 f   System.Data.SQLite.netmodule
 0001:000195e0       ?System.Data.SQLite.SQLiteVirtualTableCursorEnumerator.Close@@200001 1001a5e0 f   System.Data.SQLite.netmodule
 0001:000195fc       ?System.Data.SQLite.SQLiteVirtualTableCursorEnumerator.CheckClosed@@200001 1001a5fc f   System.Data.SQLite.netmodule
 0001:00019624       ?System.Data.SQLite.SQLiteVirtualTableCursorEnumerator.CheckDisposed@@200001 1001a624 f   System.Data.SQLite.netmodule
 0001:00019650       ?System.Data.SQLite.SQLiteVirtualTableCursorEnumerator.Dispose@@20010102 1001a650 f   System.Data.SQLite.netmodule
 0001:00019698       ?System.Data.SQLite.SQLiteModuleNoop..ctor@@2001010O 1001a698 f   System.Data.SQLite.netmodule
 0001:000196b8       ?System.Data.SQLite.SQLiteModuleNoop.GetDefaultResultCode@@20001180O0 1001a6b8 f   System.Data.SQLite.netmodule
 0001:000196c8       ?System.Data.SQLite.SQLiteModuleNoop.ResultCodeToEofResult@@2001021180O0 1001a6c8 f   System.Data.SQLite.netmodule
 0001:000196dc       ?System.Data.SQLite.SQLiteModuleNoop.ResultCodeToFindFunctionResult@@2001021180O0 1001a6dc f   System.Data.SQLite.netmodule
 0001:000196f0       ?System.Data.SQLite.SQLiteModuleNoop.GetMethodResultCode@@20011180O00O 1001a6f0 f   System.Data.SQLite.netmodule
 0001:00019730       ?System.Data.SQLite.SQLiteModuleNoop.SetMethodResultCode@@2002020O1180O0 1001a730 f   System.Data.SQLite.netmodule
 0001:00019758       ?System.Data.SQLite.SQLiteModuleNoop.Create@@20051180O01248181N0O101281P8100O 1001a758 f   System.Data.SQLite.netmodule
 0001:00019778       ?System.Data.SQLite.SQLiteModuleNoop.Connect@@20051180O01248181N0O101281P8100O 1001a778 f   System.Data.SQLite.netmodule
 0001:00019798       ?System.Data.SQLite.SQLiteModuleNoop.BestIndex@@20021180O01281P81281P4 1001a798 f   System.Data.SQLite.netmodule
 0001:000197b8       ?System.Data.SQLite.SQLiteModuleNoop.Disconnect@@20011180O01281P8 1001a7b8 f   System.Data.SQLite.netmodule
 0001:000197d8       ?System.Data.SQLite.SQLiteModuleNoop.Destroy@@20011180O01281P8 1001a7d8 f   System.Data.SQLite.netmodule
 0001:000197f8       ?System.Data.SQLite.SQLiteModuleNoop.Open@@20021180O01281P8101281PM 1001a7f8 f   System.Data.SQLite.netmodule
 0001:00019818       ?System.Data.SQLite.SQLiteModuleNoop.Close@@20011180O01281PM 1001a818 f   System.Data.SQLite.netmodule
 0001:00019838       ?System.Data.SQLite.SQLiteModuleNoop.Filter@@20041180O01281PM080O1N1281N8 1001a838 f   System.Data.SQLite.netmodule
 0001:00019858       ?System.Data.SQLite.SQLiteModuleNoop.Next@@20011180O01281PM 1001a858 f   System.Data.SQLite.netmodule
 0001:00019878       ?System.Data.SQLite.SQLiteModuleNoop.Eof@@2001021281PM 1001a878 f   System.Data.SQLite.netmodule
 0001:0001989c       ?System.Data.SQLite.SQLiteModuleNoop.Column@@20031180O01281PM1281N408 1001a89c f   System.Data.SQLite.netmodule
 0001:000198bc       ?System.Data.SQLite.SQLiteModuleNoop.RowId@@20021180O01281PM100K 1001a8bc f   System.Data.SQLite.netmodule
 0001:000198dc       ?System.Data.SQLite.SQLiteModuleNoop.Update@@20031180O01281P81N1281N8100K 1001a8dc f   System.Data.SQLite.netmodule
 0001:000198fc       ?System.Data.SQLite.SQLiteModuleNoop.Begin@@20011180O01281P8 1001a8fc f   System.Data.SQLite.netmodule
 0001:0001991c       ?System.Data.SQLite.SQLiteModuleNoop.Sync@@20011180O01281P8 1001a91c f   System.Data.SQLite.netmodule
 0001:0001993c       ?System.Data.SQLite.SQLiteModuleNoop.Commit@@20011180O01281P8 1001a93c f   System.Data.SQLite.netmodule
 0001:0001995c       ?System.Data.SQLite.SQLiteModuleNoop.Rollback@@20011180O01281P8 1001a95c f   System.Data.SQLite.netmodule
 0001:0001997c       ?System.Data.SQLite.SQLiteModuleNoop.FindFunction@@2005021281P8080O101280O81018 1001a97c f   System.Data.SQLite.netmodule
 0001:000199a0       ?System.Data.SQLite.SQLiteModuleNoop.Rename@@20021180O01281P80O 1001a9a0 f   System.Data.SQLite.netmodule
 0001:000199c0       ?System.Data.SQLite.SQLiteModuleNoop.Savepoint@@20021180O01281P808 1001a9c0 f   System.Data.SQLite.netmodule
 0001:000199e0       ?System.Data.SQLite.SQLiteModuleNoop.Release@@20021180O01281P808 1001a9e0 f   System.Data.SQLite.netmodule
 0001:00019a00       ?System.Data.SQLite.SQLiteModuleNoop.RollbackTo@@20021180O01281P808 1001aa00 f   System.Data.SQLite.netmodule
 0001:00019a20       ?System.Data.SQLite.SQLiteModuleNoop.CheckDisposed@@200001 1001aa20 f   System.Data.SQLite.netmodule
 0001:00019a4c       ?System.Data.SQLite.SQLiteModuleNoop.Dispose@@20010102 1001aa4c f   System.Data.SQLite.netmodule
 0001:00019a90       ?System.Data.SQLite.SQLiteModuleEnumerable..ctor@@2002010O128145 1001aa90 f   System.Data.SQLite.netmodule
 0001:00019aa8       ?System.Data.SQLite.SQLiteModuleEnumerable..ctor@@2003010O12814502 1001aaa8 f   System.Data.SQLite.netmodule
 0001:00019ad8       ?System.Data.SQLite.SQLiteModuleEnumerable.GetSqlForDeclareTable@@20000O 1001aad8 f   System.Data.SQLite.netmodule
 0001:00019aec       ?System.Data.SQLite.SQLiteModuleEnumerable.CursorTypeMismatchError@@20011180O01281PM 1001aaec f   System.Data.SQLite.netmodule
 0001:00019b08       ?System.Data.SQLite.SQLiteModuleEnumerable.CursorEndOfEnumeratorError@@20011180O01281PM 1001ab08 f   System.Data.SQLite.netmodule
 0001:00019b24       ?System.Data.SQLite.SQLiteModuleEnumerable.GetStringFromObject@@20020O1281PM1M 1001ab24 f   System.Data.SQLite.netmodule
 0001:00019b4c       ?System.Data.SQLite.SQLiteModuleEnumerable.MakeRowId@@20020K0808 1001ab4c f   System.Data.SQLite.netmodule
 0001:00019b68       ?System.Data.SQLite.SQLiteModuleEnumerable.GetRowIdFromObject@@20020K1281PM1M 1001ab68 f   System.Data.SQLite.netmodule
 0001:00019b98       ?System.Data.SQLite.SQLiteModuleEnumerable.Create@@20051180O01248181N0O101281P8100O 1001ab98 f   System.Data.SQLite.netmodule
 0001:00019bc8       ?System.Data.SQLite.SQLiteModuleEnumerable.Connect@@20051180O01248181N0O101281P8100O 1001abc8 f   System.Data.SQLite.netmodule
 0001:00019bf8       ?System.Data.SQLite.SQLiteModuleEnumerable.BestIndex@@20021180O01281P81281P4 1001abf8 f   System.Data.SQLite.netmodule
 0001:00019c40       ?System.Data.SQLite.SQLiteModuleEnumerable.Disconnect@@20011180O01281P8 1001ac40 f   System.Data.SQLite.netmodule
 0001:00019c5c       ?System.Data.SQLite.SQLiteModuleEnumerable.Destroy@@20011180O01281P8 1001ac5c f   System.Data.SQLite.netmodule
 0001:00019c78       ?System.Data.SQLite.SQLiteModuleEnumerable.Open@@20021180O01281P8101281PM 1001ac78 f   System.Data.SQLite.netmodule
 0001:00019ca0       ?System.Data.SQLite.SQLiteModuleEnumerable.Close@@20011180O01281PM 1001aca0 f   System.Data.SQLite.netmodule
 0001:00019ccc       ?System.Data.SQLite.SQLiteModuleEnumerable.Filter@@20041180O01281PM080O1N1281N8 1001accc f   System.Data.SQLite.netmodule
 0001:00019d0c       ?System.Data.SQLite.SQLiteModuleEnumerable.Next@@20011180O01281PM 1001ad0c f   System.Data.SQLite.netmodule
 0001:00019d4c       ?System.Data.SQLite.SQLiteModuleEnumerable.Eof@@2001021281PM 1001ad4c f   System.Data.SQLite.netmodule
 0001:00019d80       ?System.Data.SQLite.SQLiteModuleEnumerable.Column@@20031180O01281PM1281N408 1001ad80 f   System.Data.SQLite.netmodule
 0001:00019dd8       ?System.Data.SQLite.SQLiteModuleEnumerable.RowId@@20021180O01281PM100K 1001add8 f   System.Data.SQLite.netmodule
 0001:00019e20       ?System.Data.SQLite.SQLiteModuleEnumerable.Update@@20031180O01281P81N1281N8100K 1001ae20 f   System.Data.SQLite.netmodule
 0001:00019e5c       ?System.Data.SQLite.SQLiteModuleEnumerable.Rename@@20021180O01281P80O 1001ae5c f   System.Data.SQLite.netmodule
 0001:00019ea8       ?System.Data.SQLite.SQLiteModuleEnumerable.CheckDisposed@@200001 1001aea8 f   System.Data.SQLite.netmodule
 0001:00019ed4       ?System.Data.SQLite.SQLiteModuleEnumerable.Dispose@@20010102 1001aed4 f   System.Data.SQLite.netmodule
 0001:00019f18       ?System.Data.SQLite.SQLiteModuleEnumerable..cctor@@000001 1001af18 f   System.Data.SQLite.netmodule
 0001:00019f54       ?System.Data.SQLite.Generic.SQLiteVirtualTableCursorEnumerator`1..ctor@@2002011281P815126N011300 1001af54 f   System.Data.SQLite.netmodule
 0001:00019f70       ?System.Data.SQLite.Generic.SQLiteVirtualTableCursorEnumerator`1.System.Collections.Generic.IEnumerator<T>.get_Current@@20001300 1001af70 f   System.Data.SQLite.netmodule
 0001:00019fa8       ?System.Data.SQLite.Generic.SQLiteVirtualTableCursorEnumerator`1.Close@@200001 1001afa8 f   System.Data.SQLite.netmodule
 0001:00019fcc       ?System.Data.SQLite.Generic.SQLiteVirtualTableCursorEnumerator`1.CheckDisposed@@200001 1001afcc f   System.Data.SQLite.netmodule
 0001:00019ff8       ?System.Data.SQLite.Generic.SQLiteVirtualTableCursorEnumerator`1.Dispose@@20010102 1001aff8 f   System.Data.SQLite.netmodule
 0001:0001a040       ?System.Data.SQLite.Generic.SQLiteModuleEnumerable`1..ctor@@2002010O151280P9011300 1001b040 f   System.Data.SQLite.netmodule
 0001:0001a05c       ?System.Data.SQLite.Generic.SQLiteModuleEnumerable`1.Open@@20021180O01281P8101281PM 1001b05c f   System.Data.SQLite.netmodule
 0001:0001a084       ?System.Data.SQLite.Generic.SQLiteModuleEnumerable`1.Column@@20031180O01281PM1281N408 1001b084 f   System.Data.SQLite.netmodule
 0001:0001a0e4       ?System.Data.SQLite.Generic.SQLiteModuleEnumerable`1.CheckDisposed@@200001 1001b0e4 f   System.Data.SQLite.netmodule
 0001:0001a110       ?System.Data.SQLite.Generic.SQLiteModuleEnumerable`1.Dispose@@20010102 1001b110 f   System.Data.SQLite.netmodule
 0001:0001a160       _sqlite3_context_collseq_interop@16 1001b160 f   interop.obj
 0001:0001a1d0       _sqlite3_context_collcompare_interop@20 1001b1d0 f   interop.obj
 0001:0001a210       _interop_sourceid@0        1001b210 f   interop.obj
 0001:0001a220       _interop_libversion@0      1001b220 f   interop.obj
 0001:0001a230       _interop_compileoption_get@4 1001b230 f   interop.obj
 0001:0001a250       _sqlite3Codec              1001b250 f   interop.obj
 0001:0001a3a0       _sqlite3_activate_see      1001b3a0 f   interop.obj
 0001:0001a3d0       _double_cmp                1001b3d0 f   interop.obj
 0001:0001a410       _int_cmp                   1001b410 f   interop.obj
 0001:0001a460       _node_iterate              1001b460 f   interop.obj
 0001:0001a4a0       _xfree                     1001b4a0 f   interop.obj
 0001:0001a4b0       _xcalloc                   1001b4b0 f   interop.obj
 0001:0001a4c0       _map_make                  1001b4c0 f   interop.obj
 0001:0001a720       _isblank                   1001b720 f   interop.obj
 0001:0001aca0       _sqlite3_vtshim_init       1001bca0 f   interop.obj
 0001:0001acb0       _sqlite3_dispose_module    1001bcb0 f   interop.obj
 0001:0001c8d0       _sqlite3_thread_cleanup    1001d8d0 f   interop.obj
 0001:0001c8e0       _sqlite3_get_autocommit    1001d8e0 f   interop.obj
 0001:0001c8f0       _sqlite3_global_recover    1001d8f0 f   interop.obj
 0001:0001c900       _sqlite3_limit             1001d900 f   interop.obj
 0001:0001c950       _sqlite3_interrupt         1001d950 f   interop.obj
 0001:0001c9d0       _sqlite3_total_changes     1001d9d0 f   interop.obj
 0001:0001c9e0       _sqlite3_changes           1001d9e0 f   interop.obj
 0001:0001c9f0       _sqlite3_last_insert_rowid 1001d9f0 f   interop.obj
 0001:0001ca20       _sqlite3_db_mutex          1001da20 f   interop.obj
 0001:0001ca30       _sqlite3_threadsafe        1001da30 f   interop.obj
 0001:0001ca40       _sqlite3_libversion_number 1001da40 f   interop.obj
 0001:0001ca50       _sqlite3_sourceid          1001da50 f   interop.obj
 0001:0001ca60       _sqlite3_libversion        1001da60 f   interop.obj
 0001:0001d120       _sqlite3_vtab_on_conflict  1001e120 f   interop.obj
 0001:0001d420       _sqlite3_prepare_v2        1001e420 f   interop.obj
 0001:0001d440       _sqlite3_prepare           1001e440 f   interop.obj
 0001:0001e6b0       _sqlite3_blob_bytes        1001f6b0 f   interop.obj
 0001:0001e6d0       _sqlite3_stmt_status       1001f6d0 f   interop.obj
 0001:0001e6f0       _sqlite3_stmt_busy         1001f6f0 f   interop.obj
 0001:0001e720       _sqlite3_stmt_readonly     1001f720 f   interop.obj
 0001:0001e740       _sqlite3_db_handle         1001f740 f   interop.obj
 0001:0001e7d0       _sqlite3_bind_parameter_name 1001f7d0 f   interop.obj
 0001:0001e800       _sqlite3_bind_parameter_count 1001f800 f   interop.obj
 0001:0001e830       _sqlite3_data_count        1001f830 f   interop.obj
 0001:0001e850       _sqlite3_column_count      1001f850 f   interop.obj
 0001:0001e870       _sqlite3_aggregate_count   1001f870 f   interop.obj
 0001:0001e880       _sqlite3_get_auxdata       1001f880 f   interop.obj
 0001:0001e8c0       _sqlite3_context_db_handle 1001f8c0 f   interop.obj
 0001:0001e8d0       _sqlite3_user_data         1001f8d0 f   interop.obj
 0001:0001e8e0       _sqlite3_value_type        1001f8e0 f   interop.obj
 0001:0001e900       _sqlite3_expired           1001f900 f   interop.obj
 0001:0001ee70       _sqlite3_sql               1001fe70 f   interop.obj
 0001:0001ef60       _sqlite3_backup_pagecount  1001ff60 f   interop.obj
 0001:0001ef70       _sqlite3_backup_remaining  1001ff70 f   interop.obj
 0001:0001f320       _sqlite3_enable_shared_cache 10020320 f   interop.obj
 0001:000201b0       _sqlite3_os_end            100211b0 f   interop.obj
 0001:000203f0       _sqlite3_win32_sleep       100213f0 f   interop.obj
 0001:00020400       _sqlite3_win32_write_debug 10021400 f   interop.obj
 0001:00021470       _sqlite3_strnicmp          10022470 f   interop.obj
 0001:000214d0       _sqlite3_stricmp           100224d0 f   interop.obj
 0001:000219d0       _sqlite3_mutex_leave       100229d0 f   interop.obj
 0001:000219f0       _sqlite3_mutex_try         100229f0 f   interop.obj
 0001:00021a10       _sqlite3_mutex_enter       10022a10 f   interop.obj
 0001:00021a30       _sqlite3_mutex_free        10022a30 f   interop.obj
 0001:00021a70       _sqlite3_mutex_alloc       10022a70 f   interop.obj
 0001:00021b10       _sqlite3_vfs_find          10022b10 f   interop.obj
 0001:00022270       _sqlite3_compileoption_get 10023270 f   interop.obj
 0001:00022290       _sqlite3_compileoption_used 10023290 f   interop.obj
 0001:00022310       _sqlite3_table_cursor_interop@12 10023310 f   interop.obj
 0001:00022390       _sqlite3_last_insert_rowid_interop@8 10023390 f   interop.obj
 0001:000223b0       _sqlite3_bind_parameter_name_interop@12 100233b0 f   interop.obj
 0001:00022410       _sqlite3_prepare_interop@24 10023410 f   interop.obj
 0001:00022470       _sqlite3_changes_interop@4 10023470 f   interop.obj
 0001:00022480       _sqlite3_malloc_size_interop@4 10023480 f   interop.obj
 0001:000224a0       _interop_compileoption_used@4 100234a0 f   interop.obj
 0001:00022540       _sqlite3CodecGetKey        10023540 f   interop.obj
 0001:00022610       _node_destroy              10023610 f   interop.obj
 0001:00022650       _map_iterate               10023650 f   interop.obj
 0001:00022670       _node_insert               10023670 f   interop.obj
 0001:00024310       _sqlite3_uri_parameter     10025310 f   interop.obj
 0001:000243c0       _sqlite3_extended_result_codes 100253c0 f   interop.obj
 0001:00024400       _sqlite3_sleep             10025400 f   interop.obj
 0001:00024440       _sqlite3_collation_needed16 10025440 f   interop.obj
 0001:00024490       _sqlite3_collation_needed  10025490 f   interop.obj
 0001:000244e0       _sqlite3_errstr            100254e0 f   interop.obj
 0001:00024510       _sqlite3_wal_hook          10025510 f   interop.obj
 0001:00024560       _sqlite3_rollback_hook     10025560 f   interop.obj
 0001:000245b0       _sqlite3_update_hook       100255b0 f   interop.obj
 0001:00024600       _sqlite3_commit_hook       10025600 f   interop.obj
 0001:00024650       _sqlite3_profile           10025650 f   interop.obj
 0001:000246a0       _sqlite3_trace             100256a0 f   interop.obj
 0001:000246f0       _sqlite3_progress_handler  100256f0 f   interop.obj
 0001:00024760       _sqlite3_busy_handler      10025760 f   interop.obj
 0001:00024970       _sqlite3_complete          10025970 f   interop.obj
 0001:00025650       _sqlite3_cancel_auto_extension 10026650 f   interop.obj
 0001:000256d0       _sqlite3_enable_load_extension 100266d0 f   interop.obj
 0001:00025ec0       _sqlite3_set_authorizer    10026ec0 f   interop.obj
 0001:000265f0       _sqlite3_next_stmt         100275f0 f   interop.obj
 0001:00026630       _sqlite3_bind_parameter_index 10027630 f   interop.obj
 0001:00028cf0       _sqlite3_randomness        10029cf0 f   interop.obj
 0001:00028e60       _sqlite3_free              10029e60 f   interop.obj
 0001:00029120       _sqlite3_vfs_unregister    1002a120 f   interop.obj
 0001:00029170       _sqlite3_vfs_register      1002a170 f   interop.obj
 0001:00029520       _map_destroy               1002a520 f   interop.obj
 0001:00029530       _map_insert                1002a530 f   interop.obj
 0001:00029540       _sqlite3re_free            1002a540 f   interop.obj
 0001:0002ad80       _sqlite3_db_readonly       1002bd80 f   interop.obj
 0001:0002adb0       _sqlite3_db_filename       1002bdb0 f   interop.obj
 0001:0002ade0       _sqlite3_uri_int64         1002bde0 f   interop.obj
 0001:0002ae40       _sqlite3_busy_timeout      1002be40 f   interop.obj
 0001:0002b5a0       _sqlite3_free_table        1002c5a0 f   interop.obj
 0001:0002b870       _sqlite3_strglob           1002c870 f   interop.obj
 0001:0002bf50       _sqlite3_value_double      1002cf50 f   interop.obj
 0001:0002d960       _sqlite3_memory_alarm      1002e960 f   interop.obj
 0001:0002dad0       _sqlite3_value_double_interop@8 1002ead0 f   interop.obj
 0001:0002e3b0       _sqlite3_file_control      1002f3b0 f   interop.obj
 0001:0002ef00       _sqlite3_value_numeric_type 1002ff00 f   interop.obj
 0001:0002ef40       _sqlite3_value_int64       1002ff40 f   interop.obj
 0001:0002ef50       _sqlite3_value_int         1002ff50 f   interop.obj
 0001:0002ff10       _sqlite3_index_column_info_interop@32 10030f10 f   interop.obj
 0001:0002fff0       _sqlite3_value_int64_interop@8 10030ff0 f   interop.obj
 0001:000304a0       _sqlite3_uri_boolean       100314a0 f   interop.obj
 0001:00030570       _sqlite3_db_release_memory 10031570 f   interop.obj
 0001:00031800       _sqlite3_release_memory    10032800 f   interop.obj
 0001:00031ad0       _sqlite3_db_config         10032ad0 f   interop.obj
 0001:000324a0       _sqlite3_set_auxdata       100334a0 f   interop.obj
 0001:00032570       _sqlite3_result_error_nomem 10033570 f   interop.obj
 0001:000325a0       _sqlite3_result_null       100335a0 f   interop.obj
 0001:00033940       _sqlite3_realloc           10034940 f   interop.obj
 0001:00034ee0       _sqlite3_clear_bindings    10035ee0 f   interop.obj
 0001:00036060       _sqlite3_win32_utf8_to_mbcs 10037060 f   interop.obj
 0001:000360a0       _sqlite3_win32_mbcs_to_utf8 100370a0 f   interop.obj
 0001:000360e0       _sqlite3_vsnprintf         100370e0 f   interop.obj
 0001:00037600       _sqlite3_result_zeroblob   10038600 f   interop.obj
 0001:00037640       _sqlite3_result_int64      10038640 f   interop.obj
 0001:00037670       _sqlite3_result_int        10038670 f   interop.obj
 0001:000376a0       _sqlite3_result_double     100386a0 f   interop.obj
 0001:00037ce0       _sqlite3_snprintf          10038ce0 f   interop.obj
 0001:00037e30       _sqlite3_result_int64_interop@8 10038e30 f   interop.obj
 0001:00037e70       _sqlite3_result_double_interop@8 10038e70 f   interop.obj
 0001:00038e20       _sqlite3_transfer_bindings 10039e20 f   interop.obj
 0001:0003ae40       _sqlite3_aggregate_context 1003be40 f   interop.obj
 0001:0003f290       _sqlite3_result_error_toobig 10040290 f   interop.obj
 0001:0003f2c0       _sqlite3_result_error_code 100402c0 f   interop.obj
 0001:0003f330       _sqlite3_result_value      10040330 f   interop.obj
 0001:0003f350       _sqlite3_result_error16    10040350 f   interop.obj
 0001:0003f380       _sqlite3_result_error      10040380 f   interop.obj
 0001:0003f700       _sqlite3_db_status         10040700 f   interop.obj
 0001:00041aa0       _sqlite3_result_text16le   10042aa0 f   interop.obj
 0001:00041af0       _sqlite3_result_text16be   10042af0 f   interop.obj
 0001:00041b40       _sqlite3_result_text16     10042b40 f   interop.obj
 0001:00041b90       _sqlite3_result_text       10042b90 f   interop.obj
 0001:00041be0       _sqlite3_result_blob       10042be0 f   interop.obj
 0001:00043230       _sqlite3_value_text16le    10044230 f   interop.obj
 0001:00043240       _sqlite3_value_text16be    10044240 f   interop.obj
 0001:00043250       _sqlite3_value_text16      10044250 f   interop.obj
 0001:00043260       _sqlite3_value_text        10044260 f   interop.obj
 0001:00043280       _sqlite3_value_blob        10044280 f   interop.obj
 0001:00043e20       _sqlite3_column_origin_name16 10044e20 f   interop.obj
 0001:00043e40       _sqlite3_column_origin_name 10044e40 f   interop.obj
 0001:00043e60       _sqlite3_column_table_name16 10044e60 f   interop.obj
 0001:00043e80       _sqlite3_column_table_name 10044e80 f   interop.obj
 0001:00043ea0       _sqlite3_column_database_name16 10044ea0 f   interop.obj
 0001:00043ec0       _sqlite3_column_database_name 10044ec0 f   interop.obj
 0001:00043ee0       _sqlite3_column_decltype16 10044ee0 f   interop.obj
 0001:00043f00       _sqlite3_column_decltype   10044f00 f   interop.obj
 0001:00043f20       _sqlite3_column_name16     10044f20 f   interop.obj
 0001:00043f40       _sqlite3_column_name       10044f40 f   interop.obj
 0001:00043f60       _sqlite3_value_bytes16     10044f60 f   interop.obj
 0001:00043f70       _sqlite3_value_bytes       10044f70 f   interop.obj
 0001:00045990       _sqlite3_column_origin_name16_interop@12 10046990 f   interop.obj
 0001:000459e0       _sqlite3_column_origin_name_interop@12 100469e0 f   interop.obj
 0001:00045a30       _sqlite3_column_table_name16_interop@12 10046a30 f   interop.obj
 0001:00045a80       _sqlite3_column_table_name_interop@12 10046a80 f   interop.obj
 0001:00045ad0       _sqlite3_column_database_name16_interop@12 10046ad0 f   interop.obj
 0001:00045b20       _sqlite3_column_database_name_interop@12 10046b20 f   interop.obj
 0001:00045b70       _sqlite3_value_text16_interop@8 10046b70 f   interop.obj
 0001:00045ba0       _sqlite3_value_text_interop@8 10046ba0 f   interop.obj
 0001:00045bd0       _sqlite3_column_decltype16_interop@12 10046bd0 f   interop.obj
 0001:00045c20       _sqlite3_column_decltype_interop@12 10046c20 f   interop.obj
 0001:00045c70       _sqlite3_column_name16_interop@12 10046c70 f   interop.obj
 0001:00045cc0       _sqlite3_column_name_interop@12 10046cc0 f   interop.obj
 0001:00047780       _sqlite3_vmprintf          10048780 f   interop.obj
 0001:000484a0       _sqlite3_log               100494a0 f   interop.obj
 0001:000484c0       _sqlite3_mprintf           100494c0 f   interop.obj
 0001:00049da0       _sqlite3_vtab_config       1004ada0 f   interop.obj
 0001:0004dfb0       _sqlite3_win32_compact_heap 1004efb0 f   interop.obj
 0001:0004e040       _sqlite3_status            1004f040 f   interop.obj
 0001:0004e0a0       _sqlite3_create_collation16 1004f0a0 f   interop.obj
 0001:0004e120       _sqlite3_create_collation_v2 1004f120 f   interop.obj
 0001:0004e180       _sqlite3_create_collation  1004f180 f   interop.obj
 0001:0004e1e0       _sqlite3_overload_function 1004f1e0 f   interop.obj
 0001:0004e270       _sqlite3_create_function16 1004f270 f   interop.obj
 0001:0004e2f0       _sqlite3_create_function_v2 1004f2f0 f   interop.obj
 0001:0004e3c0       _sqlite3_create_function   1004f3c0 f   interop.obj
 0001:0004eb90       _sqlite3_create_module_v2  1004fb90 f   interop.obj
 0001:0004ebb0       _sqlite3_create_module     1004fbb0 f   interop.obj
 0001:0004efa0       _sqlite3_load_extension    1004ffa0 f   interop.obj
 0001:0004fa30       _sqlite3_column_type       10050a30 f   interop.obj
 0001:0004fa60       _sqlite3_column_text16     10050a60 f   interop.obj
 0001:0004fa90       _sqlite3_column_value      10050a90 f   interop.obj
 0001:0004fad0       _sqlite3_column_text       10050ad0 f   interop.obj
 0001:0004fb00       _sqlite3_column_int64      10050b00 f   interop.obj
 0001:0004fb30       _sqlite3_column_int        10050b30 f   interop.obj
 0001:0004fb60       _sqlite3_column_double     10050b60 f   interop.obj
 0001:0004fb90       _sqlite3_column_bytes16    10050b90 f   interop.obj
 0001:0004fbc0       _sqlite3_column_bytes      10050bc0 f   interop.obj
 0001:0004fbf0       _sqlite3_column_blob       10050bf0 f   interop.obj
 0001:00051640       _sqlite3_memory_highwater  10052640 f   interop.obj
 0001:00051670       _sqlite3_memory_used       10052670 f   interop.obj
 0001:00051680       _sqlite3_create_function_interop@36 10052680 f   interop.obj
 0001:00051700       _sqlite3_column_text16_interop@12 10052700 f   interop.obj
 0001:00051750       _sqlite3_column_text_interop@12 10052750 f   interop.obj
 0001:000517a0       _sqlite3_memory_highwater_interop@8 100527a0 f   interop.obj
 0001:000517c0       _sqlite3_memory_used_interop@4 100527c0 f   interop.obj
 0001:000517e0       _sqlite3_column_int64_interop@12 100527e0 f   interop.obj
 0001:00051820       _sqlite3_column_double_interop@12 10052820 f   interop.obj
 0001:00051860       _sqlite3_totype_init       10052860 f   interop.obj
 0001:000518b0       _sqlite3_percentile_init   100528b0 f   interop.obj
 0001:00051d80       _sqlite3_extended_errcode  10052d80 f   interop.obj
 0001:00051df0       _sqlite3_errcode           10052df0 f   interop.obj
 0001:00051e60       _sqlite3_errmsg16          10052e60 f   interop.obj
 0001:00051f40       _sqlite3_errmsg            10052f40 f   interop.obj
 0001:000562e0       _sqlite3_win32_reset_heap  100572e0 f   interop.obj
 0001:000564d0       _sqlite3_errmsg_interop@8  100574d0 f   interop.obj
 0001:00056520       _sqlite3_config            10057520 f   interop.obj
 0001:00058bf0       _sqlite3_bind_zeroblob     10059bf0 f   interop.obj
 0001:00058c60       _sqlite3_bind_null         10059c60 f   interop.obj
 0001:00058ca0       _sqlite3_bind_int64        10059ca0 f   interop.obj
 0001:00058d10       _sqlite3_bind_int          10059d10 f   interop.obj
 0001:00058d30       _sqlite3_bind_double       10059d30 f   interop.obj
 0001:00059230       _sqlite3_os_init           1005a230 f   interop.obj
 0001:00059860       _sqlite3_bind_int64_interop@12 1005a860 f   interop.obj
 0001:00059890       _sqlite3_bind_double_interop@12 1005a890 f   interop.obj
 0001:000598c0       _sqlite3_initialize        1005a8c0 f   interop.obj
 0001:00059ad0       _sqlite3_complete16        1005aad0 f   interop.obj
 0001:0005ab70       _sqlite3_reset_auto_extension 1005bb70 f   interop.obj
 0001:0005abe0       _sqlite3_auto_extension    1005bbe0 f   interop.obj
 0001:0005b490       _sqlite3_bind_text16       1005c490 f   interop.obj
 0001:0005b4b0       _sqlite3_bind_text         1005c4b0 f   interop.obj
 0001:0005b4d0       _sqlite3_bind_blob         1005c4d0 f   interop.obj
 0001:0005b720       _sqlite3_win32_set_directory 1005c720 f   interop.obj
 0001:0005b790       _sqlite3_malloc            1005c790 f   interop.obj
 0001:0005b7c0       _sqlite3_soft_heap_limit64 1005c7c0 f   interop.obj
 0001:0005c0f0       _sqlite3re_compile         1005d0f0 f   interop.obj
 0001:0005ee30       _sqlite3_shutdown          1005fe30 f   interop.obj
 0001:00061160       _sqlite3_bind_value        10062160 f   interop.obj
 0001:00061b30       _sqlite3_soft_heap_limit   10062b30 f   interop.obj
 0001:00061b50       _sqlite3CodecSizeChange    10062b50 f   interop.obj
 0001:00062440       _sqlite3_create_disposable_module 10063440 f   interop.obj
 0001:000626c0       _sqlite3_rtree_query_callback 100636c0 f   interop.obj
 0001:00062730       _sqlite3_rtree_geometry_callback 10063730 f   interop.obj
 0001:000633c0       _sqlite3_test_control      100643c0 f   interop.obj
 0001:00066ae0       _sqlite3_create_disposable_module_interop@112 10067ae0 f   interop.obj
 0001:00066ba0       _sqlite3CodecAttach        10067ba0 f   interop.obj
 0001:00066c90       _RegisterExtensionFunctions 10067c90 f   interop.obj
 0001:00066d90       _sqlite3_regexp_init       10067d90 f   interop.obj
 0001:00069450       _sqlite3_key_v2            1006a450 f   interop.obj
 0001:0006a8e0       _sqlite3_key               1006b8e0 f   interop.obj
 0001:0006ab40       _sqlite3_wal_checkpoint_v2 1006bb40 f   interop.obj
 0001:0006c540       _sqlite3_wal_checkpoint    1006d540 f   interop.obj
 0001:0006daf0       _sqlite3_wal_autocheckpoint 1006eaf0 f   interop.obj
 0001:0006fbd0       _sqlite3_backup_finish     10070bd0 f   interop.obj
 0001:00070da0       _sqlite3_backup_finish_interop@4 10071da0 f   interop.obj
 0001:00070dc0       _sqlite3_close_v2          10071dc0 f   interop.obj
 0001:00070de0       _sqlite3_close             10071de0 f   interop.obj
 0001:00071950       _sqlite3_cursor_rowid_interop@12 10072950 f   interop.obj
 0001:00071a10       _sqlite3_close_interop@4   10072a10 f   interop.obj
 0001:00072560       _sqlite3_backup_step       10073560 f   interop.obj
 0001:00072a60       _sqlite3_backup_init       10073a60 f   interop.obj
 0001:00072bb0       _sqlite3_rekey_v2          10073bb0 f   interop.obj
 0001:00073f60       _sqlite3_rekey             10074f60 f   interop.obj
 0001:00074680       _sqlite3_reset             10075680 f   interop.obj
 0001:00074710       _sqlite3_reset_interop@4   10075710 f   interop.obj
 0001:00074780       _sqlite3_exec              10075780 f   interop.obj
 0001:00074c60       _sqlite3_finalize          10075c60 f   interop.obj
 0001:00074d00       _sqlite3_finalize_interop@4 10075d00 f   interop.obj
 0001:00075120       _sqlite3_get_table         10076120 f   interop.obj
 0001:00075860       _sqlite3_blob_write        10076860 f   interop.obj
 0001:00075880       _sqlite3_blob_read         10076880 f   interop.obj
 0001:000758a0       _sqlite3_blob_close        100768a0 f   interop.obj
 0001:0007df20       _sqlite3_table_column_metadata 1007ef20 f   interop.obj
 0001:0007ebb0       _sqlite3_table_column_metadata_interop@44 1007fbb0 f   interop.obj
 0001:0008f670       _sqlite3_declare_vtab      10090670 f   interop.obj
 0001:00090160       _sqlite3_step              10091160 f   interop.obj
 0001:000921a0       _sqlite3_prepare16_v2      100931a0 f   interop.obj
 0001:000921c0       _sqlite3_prepare16         100931c0 f   interop.obj
 0001:00092320       _sqlite3_prepare16_interop@24 10093320 f   interop.obj
 0001:00094650       _sqlite3_blob_reopen       10095650 f   interop.obj
 0001:00094710       _sqlite3_blob_open         10095710 f   interop.obj
 0001:0009ae30       _sqlite3_open16            1009be30 f   interop.obj
 0001:0009aed0       _sqlite3_open_v2           1009bed0 f   interop.obj
 0001:0009aef0       _sqlite3_open              1009bef0 f   interop.obj
 0001:0009af10       _sqlite3_open_interop@12   1009bf10 f   interop.obj
 0001:0009b760       _sqlite3_open16_interop@12 1009c760 f   interop.obj
 0001:0009dd6e       _memcpy                    1009ed6e f   MSVCRT:MSVCR110.dll
 0001:0009dd80       __CItanh                   1009ed80 f   MSVCRT:MSVCR110.dll
 0001:0009dd86       __libm_sse2_tan_precise    1009ed86 f   MSVCRT:MSVCR110.dll
 0001:0009dd8c       __libm_sse2_log_precise    1009ed8c f   MSVCRT:MSVCR110.dll
 0001:0009dd92       __libm_sse2_sqrt_precise   1009ed92 f   MSVCRT:MSVCR110.dll
 0001:0009dda0       __alldiv                   1009eda0 f   MSVCRT:lldiv.obj
 0001:0009de4a       _memset                    1009ee4a f   MSVCRT:MSVCR110.dll
 0001:0009de50       __allshl                   1009ee50 f   MSVCRT:llshl.obj
 0001:0009de70       __ftol2_sse                1009ee70 f   MSVCRT:ftol2.obj
 0001:0009de79       __ftol2_pentium4           1009ee79 f   MSVCRT:ftol2.obj
 0001:0009de8c       __ftol2_sse_excpt          1009ee8c f   MSVCRT:ftol2.obj
 0001:0009dea6       __ftol2                    1009eea6 f   MSVCRT:ftol2.obj
 0001:0009df20       __allmul                   1009ef20 f   MSVCRT:llmul.obj
 0001:0009df60       __chkstk                   1009ef60 f   MSVCRT:chkstk.obj
 0001:0009df60       __alloca_probe             1009ef60     MSVCRT:chkstk.obj
 0001:0009df90       __aullshr                  1009ef90 f   MSVCRT:ullshr.obj
 0001:0009dfb0       __allrem                   1009efb0 f   MSVCRT:llrem.obj
 0001:0009e070       __alldvrm                  1009f070 f   MSVCRT:lldvrm.obj
 0001:0009e150       _floor                     1009f150 f   MSVCRT:MSVCR110.dll
 0001:0009e156       __CIatan2                  1009f156 f   MSVCRT:MSVCR110.dll
 0001:0009e15c       __libm_sse2_pow_precise    1009f15c f   MSVCRT:MSVCR110.dll
 0001:0009e162       __libm_sse2_exp_precise    1009f162 f   MSVCRT:MSVCR110.dll
 0001:0009e168       __libm_sse2_log10_precise  1009f168 f   MSVCRT:MSVCR110.dll
 0001:0009e16e       __CIcosh                   1009f16e f   MSVCRT:MSVCR110.dll
 0001:0009e174       __CIsinh                   1009f174 f   MSVCRT:MSVCR110.dll
 0001:0009e17a       __libm_sse2_cos_precise    1009f17a f   MSVCRT:MSVCR110.dll
 0001:0009e180       __libm_sse2_sin_precise    1009f180 f   MSVCRT:MSVCR110.dll
 0001:0009e186       __libm_sse2_atan_precise   1009f186 f   MSVCRT:MSVCR110.dll
 0001:0009e18c       __libm_sse2_asin_precise   1009f18c f   MSVCRT:MSVCR110.dll
 0001:0009e192       __libm_sse2_acos_precise   1009f192 f   MSVCRT:MSVCR110.dll
 0001:0009e1a0       __aulldiv                  1009f1a0 f   MSVCRT:ulldiv.obj
 0001:0009e210       __aullrem                  1009f210 f   MSVCRT:ullrem.obj
 0001:0009e290       __aulldvrm                 1009f290 f   MSVCRT:ulldvrm.obj
 0001:0009e325       ___isa_available_init      1009f325 f   MSVCRT:cpu_disp.obj
 0001:0009e45e       __CorDllMain@12            1009f45e f   mscoree:mscoree.dll
 0002:00000000       __imp__CryptDestroyHash@4  100a0000     advapi32:ADVAPI32.dll
 0002:00000004       __imp__CryptDecrypt@24     100a0004     advapi32:ADVAPI32.dll
 0002:00000008       __imp__CryptDestroyKey@4   100a0008     advapi32:ADVAPI32.dll
 0002:0000000c       __imp__CryptCreateHash@20  100a000c     advapi32:ADVAPI32.dll
 0002:00000010       __imp__CryptEncrypt@28     100a0010     advapi32:ADVAPI32.dll
 0002:00000014       __imp__CryptDuplicateKey@16 100a0014     advapi32:ADVAPI32.dll
 0002:00000018       __imp__CryptDeriveKey@20   100a0018     advapi32:ADVAPI32.dll
 0002:0000001c       __imp__CryptAcquireContextW@20 100a001c     advapi32:ADVAPI32.dll
 0002:00000020       __imp__CryptHashData@16    100a0020     advapi32:ADVAPI32.dll
 0002:00000024       \177ADVAPI32_NULL_THUNK_DATA 100a0024     advapi32:ADVAPI32.dll
 0002:00000028       __imp__SetEndOfFile@4      100a0028     kernel32:KERNEL32.dll
 0002:0000002c       __imp__FreeLibrary@4       100a002c     kernel32:KERNEL32.dll
 0002:00000030       __imp__HeapAlloc@12        100a0030     kernel32:KERNEL32.dll
 0002:00000034       __imp__SystemTimeToFileTime@8 100a0034     kernel32:KERNEL32.dll
 0002:00000038       __imp__QueryPerformanceCounter@4 100a0038     kernel32:KERNEL32.dll
 0002:0000003c       __imp__HeapFree@12         100a003c     kernel32:KERNEL32.dll
 0002:00000040       __imp__WaitForSingleObject@8 100a0040     kernel32:KERNEL32.dll
 0002:00000044       __imp__InterlockedCompareExchange@12 100a0044     kernel32:KERNEL32.dll
 0002:00000048       __imp__UnlockFile@20       100a0048     kernel32:KERNEL32.dll
 0002:0000004c       __imp__LockFile@20         100a004c     kernel32:KERNEL32.dll
 0002:00000050       __imp__OutputDebugStringW@4 100a0050     kernel32:KERNEL32.dll
 0002:00000054       __imp__GetTickCount@0      100a0054     kernel32:KERNEL32.dll
 0002:00000058       __imp__UnlockFileEx@20     100a0058     kernel32:KERNEL32.dll
 0002:0000005c       __imp__GetProcessHeap@0    100a005c     kernel32:KERNEL32.dll
 0002:00000060       __imp__GetSystemTimeAsFileTime@4 100a0060     kernel32:KERNEL32.dll
 0002:00000064       __imp__FormatMessageA@28   100a0064     kernel32:KERNEL32.dll
 0002:00000068       __imp__WriteFile@20        100a0068     kernel32:KERNEL32.dll
 0002:0000006c       __imp__InitializeCriticalSection@4 100a006c     kernel32:KERNEL32.dll
 0002:00000070       __imp__WideCharToMultiByte@32 100a0070     kernel32:KERNEL32.dll
 0002:00000074       __imp__LoadLibraryW@4      100a0074     kernel32:KERNEL32.dll
 0002:00000078       __imp__Sleep@4             100a0078     kernel32:KERNEL32.dll
 0002:0000007c       __imp__FormatMessageW@28   100a007c     kernel32:KERNEL32.dll
 0002:00000080       __imp__GetVersionExW@4     100a0080     kernel32:KERNEL32.dll
 0002:00000084       __imp__HeapDestroy@4       100a0084     kernel32:KERNEL32.dll
 0002:00000088       __imp__GetFileAttributesA@4 100a0088     kernel32:KERNEL32.dll
 0002:0000008c       __imp__LeaveCriticalSection@4 100a008c     kernel32:KERNEL32.dll
 0002:00000090       __imp__HeapCreate@12       100a0090     kernel32:KERNEL32.dll
 0002:00000094       __imp__HeapValidate@12     100a0094     kernel32:KERNEL32.dll
 0002:00000098       __imp__UnmapViewOfFile@4   100a0098     kernel32:KERNEL32.dll
 0002:0000009c       __imp__ReadFile@20         100a009c     kernel32:KERNEL32.dll
 0002:000000a0       __imp__CreateFileW@28      100a00a0     kernel32:KERNEL32.dll
 0002:000000a4       __imp__MultiByteToWideChar@24 100a00a4     kernel32:KERNEL32.dll
 0002:000000a8       __imp__FlushFileBuffers@4  100a00a8     kernel32:KERNEL32.dll
 0002:000000ac       __imp__GetTempPathW@8      100a00ac     kernel32:KERNEL32.dll
 0002:000000b0       __imp__GetLastError@0      100a00b0     kernel32:KERNEL32.dll
 0002:000000b4       __imp__GetProcAddress@8    100a00b4     kernel32:KERNEL32.dll
 0002:000000b8       __imp__HeapSize@12         100a00b8     kernel32:KERNEL32.dll
 0002:000000bc       __imp__LockFileEx@24       100a00bc     kernel32:KERNEL32.dll
 0002:000000c0       __imp__EnterCriticalSection@4 100a00c0     kernel32:KERNEL32.dll
 0002:000000c4       __imp__GetDiskFreeSpaceW@20 100a00c4     kernel32:KERNEL32.dll
 0002:000000c8       __imp__LoadLibraryA@4      100a00c8     kernel32:KERNEL32.dll
 0002:000000cc       __imp__CreateFileMappingA@24 100a00cc     kernel32:KERNEL32.dll
 0002:000000d0       __imp__CreateFileMappingW@24 100a00d0     kernel32:KERNEL32.dll
 0002:000000d4       __imp__GetDiskFreeSpaceA@20 100a00d4     kernel32:KERNEL32.dll
 0002:000000d8       __imp__GetSystemInfo@4     100a00d8     kernel32:KERNEL32.dll
 0002:000000dc       __imp__GetFileAttributesExW@12 100a00dc     kernel32:KERNEL32.dll
 0002:000000e0       __imp__DeleteCriticalSection@4 100a00e0     kernel32:KERNEL32.dll
 0002:000000e4       __imp__OutputDebugStringA@4 100a00e4     kernel32:KERNEL32.dll
 0002:000000e8       __imp__GetVersionExA@4     100a00e8     kernel32:KERNEL32.dll
 0002:000000ec       __imp__CloseHandle@4       100a00ec     kernel32:KERNEL32.dll
 0002:000000f0       __imp__DeleteFileW@4       100a00f0     kernel32:KERNEL32.dll
 0002:000000f4       __imp__GetCurrentProcessId@0 100a00f4     kernel32:KERNEL32.dll
 0002:000000f8       __imp__GetTempPathA@8      100a00f8     kernel32:KERNEL32.dll
 0002:000000fc       __imp__LocalFree@4         100a00fc     kernel32:KERNEL32.dll
 0002:00000100       __imp__GetSystemTime@4     100a0100     kernel32:KERNEL32.dll
 0002:00000104       __imp__AreFileApisANSI@0   100a0104     kernel32:KERNEL32.dll
 0002:00000108       __imp__DeleteFileA@4       100a0108     kernel32:KERNEL32.dll
 0002:0000010c       __imp__MapViewOfFile@20    100a010c     kernel32:KERNEL32.dll
 0002:00000110       __imp__SetFilePointer@16   100a0110     kernel32:KERNEL32.dll
 0002:00000114       __imp__HeapCompact@8       100a0114     kernel32:KERNEL32.dll
 0002:00000118       __imp__CreateMutexW@12     100a0118     kernel32:KERNEL32.dll
 0002:0000011c       __imp__GetFileSize@8       100a011c     kernel32:KERNEL32.dll
 0002:00000120       __imp__CreateFileA@28      100a0120     kernel32:KERNEL32.dll
 0002:00000124       __imp__HeapReAlloc@16      100a0124     kernel32:KERNEL32.dll
 0002:00000128       __imp__GetFullPathNameA@16 100a0128     kernel32:KERNEL32.dll
 0002:0000012c       __imp__GetFileAttributesW@4 100a012c     kernel32:KERNEL32.dll
 0002:00000130       __imp__GetFullPathNameW@16 100a0130     kernel32:KERNEL32.dll
 0002:00000134       __imp__DisableThreadLibraryCalls@4 100a0134     kernel32:KERNEL32.dll
 0002:00000138       __imp__GetCurrentThreadId@0 100a0138     kernel32:KERNEL32.dll
 0002:0000013c       __imp__DecodePointer@4     100a013c     kernel32:KERNEL32.dll
 0002:00000140       __imp__EncodePointer@4     100a0140     kernel32:KERNEL32.dll
 0002:00000144       __imp__IsProcessorFeaturePresent@4 100a0144     kernel32:KERNEL32.dll
 0002:00000148       __imp__IsDebuggerPresent@0 100a0148     kernel32:KERNEL32.dll
 0002:0000014c       \177KERNEL32_NULL_THUNK_DATA 100a014c     kernel32:KERNEL32.dll
 0002:00000150       __imp___localtime64_s      100a0150     MSVCRT:MSVCR110.dll
 0002:00000154       __imp__strerror            100a0154     MSVCRT:MSVCR110.dll
 0002:00000158       __imp___errno              100a0158     MSVCRT:MSVCR110.dll
 0002:0000015c       __imp__tolower             100a015c     MSVCRT:MSVCR110.dll
 0002:00000160       __imp__strncpy             100a0160     MSVCRT:MSVCR110.dll
 0002:00000164       __imp__isalpha             100a0164     MSVCRT:MSVCR110.dll
 0002:00000168       __imp__toupper             100a0168     MSVCRT:MSVCR110.dll
 0002:0000016c       __imp___crt_debugger_hook  100a016c     MSVCRT:MSVCR110.dll
 0002:00000170       __imp____crtUnhandledException 100a0170     MSVCRT:MSVCR110.dll
 0002:00000174       __imp____crtTerminateProcess 100a0174     MSVCRT:MSVCR110.dll
 0002:00000178       __imp____CppXcptFilter     100a0178     MSVCRT:MSVCR110.dll
 0002:0000017c       __imp___amsg_exit          100a017c     MSVCRT:MSVCR110.dll
 0002:00000180       __imp___malloc_crt         100a0180     MSVCRT:MSVCR110.dll
 0002:00000184       __imp___initterm           100a0184     MSVCRT:MSVCR110.dll
 0002:00000188       __imp___initterm_e         100a0188     MSVCRT:MSVCR110.dll
 0002:0000018c       __imp___lock               100a018c     MSVCRT:MSVCR110.dll
 0002:00000190       __imp___unlock             100a0190     MSVCRT:MSVCR110.dll
 0002:00000194       __imp___calloc_crt         100a0194     MSVCRT:MSVCR110.dll
 0002:00000198       __imp____dllonexit         100a0198     MSVCRT:MSVCR110.dll
 0002:0000019c       __imp___onexit             100a019c     MSVCRT:MSVCR110.dll
 0002:000001a0       __imp____clean_type_info_names_internal 100a01a0     MSVCRT:MSVCR110.dll
 0002:000001a4       __imp___except_handler4_common 100a01a4     MSVCRT:MSVCR110.dll
 0002:000001a8       __imp__qsort               100a01a8     MSVCRT:MSVCR110.dll
 0002:000001ac       __imp__calloc              100a01ac     MSVCRT:MSVCR110.dll
 0002:000001b0       __imp__free                100a01b0     MSVCRT:MSVCR110.dll
 0002:000001b4       __imp__ceil                100a01b4     MSVCRT:MSVCR110.dll
 0002:000001b8       __imp__strncmp             100a01b8     MSVCRT:MSVCR110.dll
 0002:000001bc       __imp__memmove             100a01bc     MSVCRT:MSVCR110.dll
 0002:000001c0       __imp__memcpy              100a01c0     MSVCRT:MSVCR110.dll
 0002:000001c4       __imp___CItanh             100a01c4     MSVCRT:MSVCR110.dll
 0002:000001c8       __imp___libm_sse2_tan_precise 100a01c8     MSVCRT:MSVCR110.dll
 0002:000001cc       __imp___libm_sse2_log_precise 100a01cc     MSVCRT:MSVCR110.dll
 0002:000001d0       __imp___libm_sse2_sqrt_precise 100a01d0     MSVCRT:MSVCR110.dll
 0002:000001d4       __imp__memset              100a01d4     MSVCRT:MSVCR110.dll
 0002:000001d8       __imp__floor               100a01d8     MSVCRT:MSVCR110.dll
 0002:000001dc       __imp___CIatan2            100a01dc     MSVCRT:MSVCR110.dll
 0002:000001e0       __imp___libm_sse2_pow_precise 100a01e0     MSVCRT:MSVCR110.dll
 0002:000001e4       __imp___libm_sse2_exp_precise 100a01e4     MSVCRT:MSVCR110.dll
 0002:000001e8       __imp___libm_sse2_log10_precise 100a01e8     MSVCRT:MSVCR110.dll
 0002:000001ec       __imp___CIcosh             100a01ec     MSVCRT:MSVCR110.dll
 0002:000001f0       __imp___CIsinh             100a01f0     MSVCRT:MSVCR110.dll
 0002:000001f4       __imp___libm_sse2_cos_precise 100a01f4     MSVCRT:MSVCR110.dll
 0002:000001f8       __imp___libm_sse2_sin_precise 100a01f8     MSVCRT:MSVCR110.dll
 0002:000001fc       __imp___libm_sse2_atan_precise 100a01fc     MSVCRT:MSVCR110.dll
 0002:00000200       __imp___libm_sse2_asin_precise 100a0200     MSVCRT:MSVCR110.dll
 0002:00000204       __imp___libm_sse2_acos_precise 100a0204     MSVCRT:MSVCR110.dll
 0002:00000208       \177MSVCR110_NULL_THUNK_DATA 100a0208     MSVCRT:MSVCR110.dll
 0002:0000020c       __imp___CorDllMain@12      100a020c     mscoree:mscoree.dll
 0002:00000210       \177mscoree_NULL_THUNK_DATA 100a0210     mscoree:mscoree.dll
 0002:00000214       ___xc_a                    100a0214     MSVCRT:cinitexe.obj
 0002:00000218       ___xc_z                    100a0218     MSVCRT:cinitexe.obj
 0002:0000021c       ___xi_a                    100a021c     MSVCRT:cinitexe.obj
 0002:0000022c       ___xi_z                    100a022c     MSVCRT:cinitexe.obj
 0002:00000270       __pRawDllMain              100a0270     MSVCRT:crtdll.obj
 0002:00000270       __pDefaultRawDllMain       100a0270     MSVCRT:crtdll.obj
 0002:00000274       ??_C@_01GBGANLPD@0?$AA@    100a0274     interop.obj
 0002:00000278       ??_C@_01HIHLOKLC@1?$AA@    100a0278     interop.obj
 0002:0000027c       ??_C@_0BH@CMJLKIMD@ENABLE_COLUMN_METADATA?$AA@ 100a027c     interop.obj
 0002:00000294       ??_C@_0M@LFFMHLBN@ENABLE_FTS3?$AA@ 100a0294     interop.obj
 0002:000002a0       ??_C@_0BG@DOKPBAOP@ENABLE_LOAD_EXTENSION?$AA@ 100a02a0     interop.obj
 0002:000002b8       ??_C@_0BJ@LLLBHPOM@ENABLE_MEMORY_MANAGEMENT?$AA@ 100a02b8     interop.obj
 0002:000002d4       ??_C@_0N@JODKLIOI@ENABLE_RTREE?$AA@ 100a02d4     interop.obj
 0002:000002e4       ??_C@_0N@DMAKBCMM@ENABLE_STAT4?$AA@ 100a02e4     interop.obj
 0002:000002f4       ??_C@_09LMNJIBDP@HAS_CODEC?$AA@ 100a02f4     interop.obj
 0002:00000300       ??_C@_07FIPCPJFC@SOUNDEX?$AA@ 100a0300     interop.obj
 0002:00000308       ??_C@_0N@HEAGAILC@THREADSAFE?$DN1?$AA@ 100a0308     interop.obj
 0002:00000318       ??_C@_0N@KPAIEOFP@WIN32_MALLOC?$AA@ 100a0318     interop.obj
 0002:00000328       ??_C@_07OGLCFANK@SQLITE_?$AA@ 100a0328     interop.obj
 0002:00000330       ??_C@_03CGLHMDPP@now?$AA@  100a0330     interop.obj
 0002:00000334       ??_C@_0BH@HEILFFIJ@local?5time?5unavailable?$AA@ 100a0334     interop.obj
 0002:0000034c       ??_C@_09EKBOCLDN@localtime?$AA@ 100a034c     interop.obj
 0002:00000358       ??_C@_09KNIMKLBK@unixepoch?$AA@ 100a0358     interop.obj
 0002:00000364       ??_C@_03JPHCIIKF@utc?$AA@  100a0364     interop.obj
 0002:00000368       ??_C@_08IPAOEBNP@weekday?5?$AA@ 100a0368     interop.obj
 0002:00000374       ??_C@_09CABLEOFK@start?5of?5?$AA@ 100a0374     interop.obj
 0002:00000380       ??_C@_05MEBAADFH@month?$AA@ 100a0380     interop.obj
 0002:00000388       ??_C@_04JFPLDHAO@year?$AA@ 100a0388     interop.obj
 0002:00000390       ??_C@_03NNBHCDBP@day?$AA@  100a0390     interop.obj
 0002:00000394       ??_C@_04LMOJGCPE@hour?$AA@ 100a0394     interop.obj
 0002:0000039c       ??_C@_06JGJIJFNK@minute?$AA@ 100a039c     interop.obj
 0002:000003a4       ??_C@_06BJCFNGJP@second?$AA@ 100a03a4     interop.obj
 0002:000003ac       ??_C@_0BO@NGNOHJIK@?$CF04d?9?$CF02d?9?$CF02d?5?$CF02d?3?$CF02d?3?$CF02d?$AA@ 100a03ac     interop.obj
 0002:000003cc       ??_C@_0P@PLMNPDMB@?$CF02d?3?$CF02d?3?$CF02d?$AA@ 100a03cc     interop.obj
 0002:000003dc       ??_C@_0P@MCDGMPHH@?$CF04d?9?$CF02d?9?$CF02d?$AA@ 100a03dc     interop.obj
 0002:000003ec       ??_C@_04OGKJMPGK@?$CF02d?$AA@ 100a03ec     interop.obj
 0002:000003f4       ??_C@_06IAGKDDNE@?$CF06?43f?$AA@ 100a03f4     interop.obj
 0002:000003fc       ??_C@_04OHGLKFFN@?$CF03d?$AA@ 100a03fc     interop.obj
 0002:00000404       ??_C@_05CFGAKADK@?$CF?416g?$AA@ 100a0404     interop.obj
 0002:0000040c       ??_C@_04BFAHMMK@?$CFlld?$AA@ 100a040c     interop.obj
 0002:00000414       ??_C@_04OCCELDNI@?$CF04d?$AA@ 100a0414     interop.obj
 0002:0000041c       ??_C@_09BPOICPEH@julianday?$AA@ 100a041c     interop.obj
 0002:00000428       ??_C@_04JNIHBGGH@date?$AA@ 100a0428     interop.obj
 0002:00000430       ??_C@_04CLCEDBPF@time?$AA@ 100a0430     interop.obj
 0002:00000438       ??_C@_08FGNPMIBK@datetime?$AA@ 100a0438     interop.obj
 0002:00000444       ??_C@_08EPGBJPHJ@strftime?$AA@ 100a0444     interop.obj
 0002:00000450       ??_C@_0N@IPDKEGPB@current_time?$AA@ 100a0450     interop.obj
 0002:00000460       ??_C@_0BC@DDICBCEN@current_timestamp?$AA@ 100a0460     interop.obj
 0002:00000474       ??_C@_0N@DJJJGBGD@current_date?$AA@ 100a0474     interop.obj
 0002:00000484       ??_C@_01FGNFDNOH@?$CF?$AA@ 100a0484     interop.obj
 0002:00000488       ??_C@_03ICJPMMHB@NaN?$AA@  100a0488     interop.obj
 0002:0000048c       ??_C@_04JHHONOOL@?9Inf?$AA@ 100a048c     interop.obj
 0002:00000494       ??_C@_04BIDOCLEL@?$CLInf?$AA@ 100a0494     interop.obj
 0002:0000049c       ??_C@_03EJEJBNFP@Inf?$AA@  100a049c     interop.obj
 0002:000004a0       ??_C@_00CNPNBAHC@?$AA@     100a04a0     interop.obj
 0002:000004a4       ??_C@_04HIBGFPH@NULL?$AA@  100a04a4     interop.obj
 0002:000004ac       ??_C@_06LHGEHABH@?$CINULL?$CJ?$AA@ 100a04ac     interop.obj
 0002:000004b4       ??_C@_01LFCBOECM@?4?$AA@   100a04b4     interop.obj
 0002:000004b8       ??_C@_0BD@FKIFACO@922337203685477580?$AA@ 100a04b8     interop.obj
 0002:000004cc       ??_C@_0CN@EOKIBNLJ@API?5call?5with?5?$CFs?5database?5connec@ 100a04cc     interop.obj
 0002:000004fc       ??_C@_08NFNJDBOK@unopened?$AA@ 100a04fc     interop.obj
 0002:00000508       ??_C@_07MALOAKCI@invalid?$AA@ 100a0508     interop.obj
 0002:00000510       ??_C@_01OGPIMHDM@?$DP?$AA@ 100a0510     interop.obj
 0002:00000514       ??_C@_08PHKOHANG@Function?$AA@ 100a0514     interop.obj
 0002:00000520       ??_C@_09OJILMLHM@Savepoint?$AA@ 100a0520     interop.obj
 0002:0000052c       ??_C@_0L@BPKAOEDK@AutoCommit?$AA@ 100a052c     interop.obj
 0002:00000538       ??_C@_0M@MEGKBOMN@Transaction?$AA@ 100a0538     interop.obj
 0002:00000544       ??_C@_0L@MGGJHFHJ@SorterNext?$AA@ 100a0544     interop.obj
 0002:00000550       ??_C@_0L@GJHBGGGF@PrevIfOpen?$AA@ 100a0550     interop.obj
 0002:0000055c       ??_C@_0L@EPCJLBGC@NextIfOpen?$AA@ 100a055c     interop.obj
 0002:00000568       ??_C@_04PHIBHIIF@Prev?$AA@ 100a0568     interop.obj
 0002:00000570       ??_C@_04MDFHGMOB@Next?$AA@ 100a0570     interop.obj
 0002:00000578       ??_C@_07NOMHFNIB@AggStep?$AA@ 100a0578     interop.obj
 0002:00000580       ??_C@_0L@IHLHABNJ@Checkpoint?$AA@ 100a0580     interop.obj
 0002:0000058c       ??_C@_0M@FAIDBMDK@JournalMode?$AA@ 100a058c     interop.obj
 0002:00000598       ??_C@_06OBCEMCJB@Vacuum?$AA@ 100a0598     interop.obj
 0002:000005a0       ??_C@_07OKDOHLDO@VFilter?$AA@ 100a05a0     interop.obj
 0002:000005a8       ??_C@_07NHABAPID@VUpdate?$AA@ 100a05a8     interop.obj
 0002:000005b0       ??_C@_04BNGNMAK@Goto?$AA@  100a05b0     interop.obj
 0002:000005b8       ??_C@_05DLHJCIPI@Gosub?$AA@ 100a05b8     interop.obj
 0002:000005c0       ??_C@_06HCFIKKEA@Return?$AA@ 100a05c0     interop.obj
 0002:000005c8       ??_C@_03KNKIDPAC@Not?$AA@  100a05c8     interop.obj
 0002:000005cc       ??_C@_0O@OADCGMIE@InitCoroutine?$AA@ 100a05cc     interop.obj
 0002:000005dc       ??_C@_0N@FPMLICGC@EndCoroutine?$AA@ 100a05dc     interop.obj
 0002:000005ec       ??_C@_05LNDKIJIJ@Yield?$AA@ 100a05ec     interop.obj
 0002:000005f4       ??_C@_0L@GIACEIKJ@HaltIfNull?$AA@ 100a05f4     interop.obj
 0002:00000600       ??_C@_04NIFKAFLK@Halt?$AA@ 100a0600     interop.obj
 0002:00000608       ??_C@_07EDADKEAH@Integer?$AA@ 100a0608     interop.obj
 0002:00000610       ??_C@_05DPPJJBMK@Int64?$AA@ 100a0610     interop.obj
 0002:00000618       ??_C@_06ENNEIMBA@String?$AA@ 100a0618     interop.obj
 0002:00000620       ??_C@_04KHKKIIL@Null?$AA@  100a0620     interop.obj
 0002:00000628       ??_C@_08BAJALCJE@SoftNull?$AA@ 100a0628     interop.obj
 0002:00000634       ??_C@_04HOFOMOEI@Blob?$AA@ 100a0634     interop.obj
 0002:0000063c       ??_C@_08DMMJCAML@Variable?$AA@ 100a063c     interop.obj
 0002:00000648       ??_C@_04LCANPIEP@Move?$AA@ 100a0648     interop.obj
 0002:00000650       ??_C@_04OPMHGHMB@Copy?$AA@ 100a0650     interop.obj
 0002:00000658       ??_C@_05BCDNELCG@SCopy?$AA@ 100a0658     interop.obj
 0002:00000660       ??_C@_09BKHKEBMD@ResultRow?$AA@ 100a0660     interop.obj
 0002:0000066c       ??_C@_07MCEFGNMJ@CollSeq?$AA@ 100a066c     interop.obj
 0002:00000674       ??_C@_06JHIJIKD@AddImm?$AA@ 100a0674     interop.obj
 0002:0000067c       ??_C@_09LLJOBHN@MustBeInt?$AA@ 100a067c     interop.obj
 0002:00000688       ??_C@_0N@KGPEGHPK@RealAffinity?$AA@ 100a0688     interop.obj
 0002:00000698       ??_C@_0M@LPEOJDB@Permutation?$AA@ 100a0698     interop.obj
 0002:000006a4       ??_C@_07MBOMJGGF@Compare?$AA@ 100a06a4     interop.obj
 0002:000006ac       ??_C@_04BIEPDJCB@Jump?$AA@ 100a06ac     interop.obj
 0002:000006b4       ??_C@_04GKJMKNNB@Once?$AA@ 100a06b4     interop.obj
 0002:000006bc       ??_C@_02EMFCFMID@If?$AA@   100a06bc     interop.obj
 0002:000006c0       ??_C@_05DALJIPE@IfNot?$AA@ 100a06c0     interop.obj
 0002:000006c8       ??_C@_06FFIACGFC@Column?$AA@ 100a06c8     interop.obj
 0002:000006d0       ??_C@_08MMCPABPC@Affinity?$AA@ 100a06d0     interop.obj
 0002:000006dc       ??_C@_0L@PGPMFKDB@MakeRecord?$AA@ 100a06dc     interop.obj
 0002:000006e8       ??_C@_05IJGIMMHE@Count?$AA@ 100a06e8     interop.obj
 0002:000006f0       ??_C@_0L@LIFFPDNM@ReadCookie?$AA@ 100a06f0     interop.obj
 0002:000006fc       ??_C@_09FEDANMPL@SetCookie?$AA@ 100a06fc     interop.obj
 0002:00000708       ??_C@_08FJFCCPFB@OpenRead?$AA@ 100a0708     interop.obj
 0002:00000714       ??_C@_09FPCAPNBB@OpenWrite?$AA@ 100a0714     interop.obj
 0002:00000720       ??_C@_0O@LLCBFLCA@OpenAutoindex?$AA@ 100a0720     interop.obj
 0002:00000730       ??_C@_0O@MHKNMBPC@OpenEphemeral?$AA@ 100a0730     interop.obj
 0002:00000740       ??_C@_0L@DIBNDBJM@SorterOpen?$AA@ 100a0740     interop.obj
 0002:0000074c       ??_C@_0L@PKPPHKBP@OpenPseudo?$AA@ 100a074c     interop.obj
 0002:00000758       ??_C@_05LGELBCGM@Close?$AA@ 100a0758     interop.obj
 0002:00000760       ??_C@_06DCDFCJIJ@SeekLT?$AA@ 100a0760     interop.obj
 0002:00000768       ??_C@_06GBOMAKJJ@SeekLE?$AA@ 100a0768     interop.obj
 0002:00000770       ??_C@_06GNLJOFHI@SeekGE?$AA@ 100a0770     interop.obj
 0002:00000778       ??_C@_06DOGAMGGI@SeekGT?$AA@ 100a0778     interop.obj
 0002:00000780       ??_C@_04ICIDABGP@Seek?$AA@ 100a0780     interop.obj
 0002:00000788       ??_C@_0L@MAHEJOGD@NoConflict?$AA@ 100a0788     interop.obj
 0002:00000794       ??_C@_08MDBAGECB@NotFound?$AA@ 100a0794     interop.obj
 0002:000007a0       ??_C@_05JDGHEPJG@Found?$AA@ 100a07a0     interop.obj
 0002:000007a8       ??_C@_09HMMGFEAA@NotExists?$AA@ 100a07a8     interop.obj
 0002:000007b4       ??_C@_08DOCONEG@Sequence?$AA@ 100a07b4     interop.obj
 0002:000007c0       ??_C@_08FEDJPMPH@NewRowid?$AA@ 100a07c0     interop.obj
 0002:000007cc       ??_C@_06CPFCODOD@Insert?$AA@ 100a07cc     interop.obj
 0002:000007d4       ??_C@_02GGHBPHGE@Or?$AA@   100a07d4     interop.obj
 0002:000007d8       ??_C@_03LOMLFHDC@And?$AA@  100a07d8     interop.obj
 0002:000007dc       ??_C@_09LEJELDEO@InsertInt?$AA@ 100a07dc     interop.obj
 0002:000007e8       ??_C@_06JBKGCNBB@Delete?$AA@ 100a07e8     interop.obj
 0002:000007f0       ??_C@_0L@NDDNCBN@ResetCount?$AA@ 100a07f0     interop.obj
 0002:000007fc       ??_C@_06NBBMPCN@IsNull?$AA@ 100a07fc     interop.obj
 0002:00000804       ??_C@_07HICACDPL@NotNull?$AA@ 100a0804     interop.obj
 0002:0000080c       ??_C@_02GCDABJMF@Ne?$AA@   100a080c     interop.obj
 0002:00000810       ??_C@_02EAMLCBHB@Eq?$AA@   100a0810     interop.obj
 0002:00000814       ??_C@_02DODIABFK@Gt?$AA@   100a0814     interop.obj
 0002:00000818       ??_C@_02GBLEMNKL@Le?$AA@   100a0818     interop.obj
 0002:0000081c       ??_C@_02DCGNOOLL@Lt?$AA@   100a081c     interop.obj
 0002:00000820       ??_C@_02GNOBCCEK@Ge?$AA@   100a0820     interop.obj
 0002:00000824       ??_C@_0O@GIINMLJL@SorterCompare?$AA@ 100a0824     interop.obj
 0002:00000834       ??_C@_06PCNOCLJN@BitAnd?$AA@ 100a0834     interop.obj
 0002:0000083c       ??_C@_05BKBNAGEF@BitOr?$AA@ 100a083c     interop.obj
 0002:00000844       ??_C@_09IIGOLNPP@ShiftLeft?$AA@ 100a0844     interop.obj
 0002:00000850       ??_C@_0L@DHHFIOFJ@ShiftRight?$AA@ 100a0850     interop.obj
 0002:0000085c       ??_C@_03LDFMNCOE@Add?$AA@  100a085c     interop.obj
 0002:00000860       ??_C@_08DLEJPBEP@Subtract?$AA@ 100a0860     interop.obj
 0002:0000086c       ??_C@_08EOBDLMOI@Multiply?$AA@ 100a086c     interop.obj
 0002:00000878       ??_C@_06JKMEHOIB@Divide?$AA@ 100a0878     interop.obj
 0002:00000880       ??_C@_09DPOHBCHJ@Remainder?$AA@ 100a0880     interop.obj
 0002:0000088c       ??_C@_06ODAFHOMO@Concat?$AA@ 100a088c     interop.obj
 0002:00000894       ??_C@_0L@DNBEOFPP@SorterData?$AA@ 100a0894     interop.obj
 0002:000008a0       ??_C@_06OBLNEDKN@BitNot?$AA@ 100a08a0     interop.obj
 0002:000008a8       ??_C@_07KGFHIBD@String8?$AA@ 100a08a8     interop.obj
 0002:000008b0       ??_C@_06JIHNENAH@RowKey?$AA@ 100a08b0     interop.obj
 0002:000008b8       ??_C@_07OHPACBNN@RowData?$AA@ 100a08b8     interop.obj
 0002:000008c0       ??_C@_05KEGGNBBF@Rowid?$AA@ 100a08c0     interop.obj
 0002:000008c8       ??_C@_07HJJPPOKN@NullRow?$AA@ 100a08c8     interop.obj
 0002:000008d0       ??_C@_04DKKAEHDH@Last?$AA@ 100a08d0     interop.obj
 0002:000008d8       ??_C@_0L@DMDDEDPI@SorterSort?$AA@ 100a08d8     interop.obj
 0002:000008e4       ??_C@_04DJANFKGA@Sort?$AA@ 100a08e4     interop.obj
 0002:000008ec       ??_C@_06MAOEIKCJ@Rewind?$AA@ 100a08ec     interop.obj
 0002:000008f4       ??_C@_0N@PCKBEOAP@SorterInsert?$AA@ 100a08f4     interop.obj
 0002:00000904       ??_C@_09ENCBCCAM@IdxInsert?$AA@ 100a0904     interop.obj
 0002:00000910       ??_C@_09PDNFOMPO@IdxDelete?$AA@ 100a0910     interop.obj
 0002:0000091c       ??_C@_08KLKOBEJ@IdxRowid?$AA@ 100a091c     interop.obj
 0002:00000928       ??_C@_05FANNJDOC@IdxLE?$AA@ 100a0928     interop.obj
 0002:00000930       ??_C@_05PFBFPBD@IdxGT?$AA@ 100a0930     interop.obj
 0002:00000938       ??_C@_05DAELAPC@IdxLT?$AA@ 100a0938     interop.obj
 0002:00000940       ??_C@_05FMIIHMAD@IdxGE?$AA@ 100a0940     interop.obj
 0002:00000948       ??_C@_07BDCAJABG@Destroy?$AA@ 100a0948     interop.obj
 0002:00000950       ??_C@_05MDNHABIA@Clear?$AA@ 100a0950     interop.obj
 0002:00000958       ??_C@_0M@IJLMHKBN@ResetSorter?$AA@ 100a0958     interop.obj
 0002:00000964       ??_C@_0M@PLDABJLA@CreateIndex?$AA@ 100a0964     interop.obj
 0002:00000970       ??_C@_0M@BDPOJHGL@CreateTable?$AA@ 100a0970     interop.obj
 0002:0000097c       ??_C@_0M@IPJMJJPI@ParseSchema?$AA@ 100a097c     interop.obj
 0002:00000988       ??_C@_0N@FEAPPFEN@LoadAnalysis?$AA@ 100a0988     interop.obj
 0002:00000998       ??_C@_09ELPHDPAO@DropTable?$AA@ 100a0998     interop.obj
 0002:000009a4       ??_C@_09KDDJLBNF@DropIndex?$AA@ 100a09a4     interop.obj
 0002:000009b0       ??_C@_0M@JKNINGPB@DropTrigger?$AA@ 100a09b0     interop.obj
 0002:000009bc       ??_C@_0M@KCIGPGBI@IntegrityCk?$AA@ 100a09bc     interop.obj
 0002:000009c8       ??_C@_09KPGKMOML@RowSetAdd?$AA@ 100a09c8     interop.obj
 0002:000009d4       ??_C@_0L@JELPJHIJ@RowSetRead?$AA@ 100a09d4     interop.obj
 0002:000009e0       ??_C@_0L@EOJPAHGG@RowSetTest?$AA@ 100a09e0     interop.obj
 0002:000009ec       ??_C@_07DOMMNIGK@Program?$AA@ 100a09ec     interop.obj
 0002:000009f4       ??_C@_05LOJBNELM@Param?$AA@ 100a09f4     interop.obj
 0002:000009fc       ??_C@_09EBKOHGDP@FkCounter?$AA@ 100a09fc     interop.obj
 0002:00000a08       ??_C@_08PNIKOKNB@FkIfZero?$AA@ 100a0a08     interop.obj
 0002:00000a14       ??_C@_06LJFJMLCE@MemMax?$AA@ 100a0a14     interop.obj
 0002:00000a1c       ??_C@_04PHKLBGME@Real?$AA@ 100a0a1c     interop.obj
 0002:00000a24       ??_C@_05PMIMCOJP@IfPos?$AA@ 100a0a24     interop.obj
 0002:00000a2c       ??_C@_05GPHDFMLA@IfNeg?$AA@ 100a0a2c     interop.obj
 0002:00000a34       ??_C@_06KGOGOHGB@IfZero?$AA@ 100a0a34     interop.obj
 0002:00000a3c       ??_C@_08FCKHNOBN@AggFinal?$AA@ 100a0a3c     interop.obj
 0002:00000a48       ??_C@_0L@POHPJECG@IncrVacuum?$AA@ 100a0a48     interop.obj
 0002:00000a54       ??_C@_06GDNCIOGJ@Expire?$AA@ 100a0a54     interop.obj
 0002:00000a5c       ??_C@_09FDKNKOOK@TableLock?$AA@ 100a0a5c     interop.obj
 0002:00000a68       ??_C@_06CLFNNGGK@VBegin?$AA@ 100a0a68     interop.obj
 0002:00000a70       ??_C@_07KDKHCOMM@VCreate?$AA@ 100a0a70     interop.obj
 0002:00000a78       ??_C@_06JMHBLLIK@ToText?$AA@ 100a0a78     interop.obj
 0002:00000a80       ??_C@_06LCIJGAA@ToBlob?$AA@ 100a0a80     interop.obj
 0002:00000a88       ??_C@_09IAEPJEPI@ToNumeric?$AA@ 100a0a88     interop.obj
 0002:00000a94       ??_C@_05CNEGLJEO@ToInt?$AA@ 100a0a94     interop.obj
 0002:00000a9c       ??_C@_06ICNNEOIM@ToReal?$AA@ 100a0a9c     interop.obj
 0002:00000aa4       ??_C@_08JBEDGDCN@VDestroy?$AA@ 100a0aa4     interop.obj
 0002:00000ab0       ??_C@_05JABEJFFA@VOpen?$AA@ 100a0ab0     interop.obj
 0002:00000ab8       ??_C@_07DOIHNMAE@VColumn?$AA@ 100a0ab8     interop.obj
 0002:00000ac0       ??_C@_05GOGANBLF@VNext?$AA@ 100a0ac0     interop.obj
 0002:00000ac8       ??_C@_07BIPKCCHL@VRename?$AA@ 100a0ac8     interop.obj
 0002:00000ad0       ??_C@_09CNCANJNI@Pagecount?$AA@ 100a0ad0     interop.obj
 0002:00000adc       ??_C@_08PCPIJAPH@MaxPgcnt?$AA@ 100a0adc     interop.obj
 0002:00000ae8       ??_C@_04LLJCPOLH@Init?$AA@ 100a0ae8     interop.obj
 0002:00000af0       ??_C@_04NBOPPMHE@Noop?$AA@ 100a0af0     interop.obj
 0002:00000af8       ??_C@_07EMCFMDDO@Explain?$AA@ 100a0af8     interop.obj
 0002:00000b00       ??_C@_0BA@FHFNEAED@AreFileApisANSI?$AA@ 100a0b00     interop.obj
 0002:00000b10       ??_C@_0L@CDADJILC@CharLowerW?$AA@ 100a0b10     interop.obj
 0002:00000b1c       ??_C@_0L@JBOFCNPB@CharUpperW?$AA@ 100a0b1c     interop.obj
 0002:00000b28       ??_C@_0M@JHJNLFGC@CloseHandle?$AA@ 100a0b28     interop.obj
 0002:00000b34       ??_C@_0M@HDHGNCCA@CreateFileA?$AA@ 100a0b34     interop.obj
 0002:00000b40       ??_C@_0M@GPOOGHPH@CreateFileW?$AA@ 100a0b40     interop.obj
 0002:00000b4c       ??_C@_0BD@GJENCGJD@CreateFileMappingA?$AA@ 100a0b4c     interop.obj
 0002:00000b60       ??_C@_0BD@HFNFJDEE@CreateFileMappingW?$AA@ 100a0b60     interop.obj
 0002:00000b74       ??_C@_0N@MDNOAJMP@CreateMutexW?$AA@ 100a0b74     interop.obj
 0002:00000b84       ??_C@_0M@CBNKJACB@DeleteFileA?$AA@ 100a0b84     interop.obj
 0002:00000b90       ??_C@_0M@DNECCFPG@DeleteFileW?$AA@ 100a0b90     interop.obj
 0002:00000b9c       ??_C@_0BI@EKFDIGHI@FileTimeToLocalFileTime?$AA@ 100a0b9c     interop.obj
 0002:00000bb4       ??_C@_0BF@KPJNHALE@FileTimeToSystemTime?$AA@ 100a0bb4     interop.obj
 0002:00000bcc       ??_C@_0BB@MOGECGEP@FlushFileBuffers?$AA@ 100a0bcc     interop.obj
 0002:00000be0       ??_C@_0P@FKPELJOF@FormatMessageA?$AA@ 100a0be0     interop.obj
 0002:00000bf0       ??_C@_0P@EGGMAMDC@FormatMessageW?$AA@ 100a0bf0     interop.obj
 0002:00000c00       ??_C@_0M@FACAOGOA@FreeLibrary?$AA@ 100a0c00     interop.obj
 0002:00000c0c       ??_C@_0BE@BEODBHKD@GetCurrentProcessId?$AA@ 100a0c0c     interop.obj
 0002:00000c20       ??_C@_0BC@CLHNLNI@GetDiskFreeSpaceA?$AA@ 100a0c20     interop.obj
 0002:00000c34       ??_C@_0BC@BOCPGOAP@GetDiskFreeSpaceW?$AA@ 100a0c34     interop.obj
 0002:00000c48       ??_C@_0BD@DJMMCMCB@GetFileAttributesA?$AA@ 100a0c48     interop.obj
 0002:00000c5c       ??_C@_0BD@CFFEJJPG@GetFileAttributesW?$AA@ 100a0c5c     interop.obj
 0002:00000c70       ??_C@_0BF@JODNCFOA@GetFileAttributesExW?$AA@ 100a0c70     interop.obj
 0002:00000c88       ??_C@_0M@BAICHOOE@GetFileSize?$AA@ 100a0c88     interop.obj
 0002:00000c94       ??_C@_0BB@HALHENPC@GetFullPathNameA?$AA@ 100a0c94     interop.obj
 0002:00000ca8       ??_C@_0BB@GMCPPICF@GetFullPathNameW?$AA@ 100a0ca8     interop.obj
 0002:00000cbc       ??_C@_0N@HICKNDGL@GetLastError?$AA@ 100a0cbc     interop.obj
 0002:00000ccc       ??_C@_0BA@EJGIKKLP@GetProcAddressA?$AA@ 100a0ccc     interop.obj
 0002:00000cdc       ??_C@_0O@HJFFHIPG@GetSystemInfo?$AA@ 100a0cdc     interop.obj
 0002:00000cec       ??_C@_0O@IKEIBEBH@GetSystemTime?$AA@ 100a0cec     interop.obj
 0002:00000cfc       ??_C@_0BI@ENMDHCMK@GetSystemTimeAsFileTime?$AA@ 100a0cfc     interop.obj
 0002:00000d14       ??_C@_0N@CMNFBGGC@GetTempPathA?$AA@ 100a0d14     interop.obj
 0002:00000d24       ??_C@_0N@DAENKDLF@GetTempPathW?$AA@ 100a0d24     interop.obj
 0002:00000d34       ??_C@_0N@JOMACIEF@GetTickCount?$AA@ 100a0d34     interop.obj
 0002:00000d44       ??_C@_0O@LLCLDPIK@GetVersionExA?$AA@ 100a0d44     interop.obj
 0002:00000d54       ??_C@_0O@KHLDIKFN@GetVersionExW?$AA@ 100a0d54     interop.obj
 0002:00000d64       ??_C@_09JDKINLHP@HeapAlloc?$AA@ 100a0d64     interop.obj
 0002:00000d70       ??_C@_0L@ICEGIJOB@HeapCreate?$AA@ 100a0d70     interop.obj
 0002:00000d7c       ??_C@_0M@NELNNOPP@HeapDestroy?$AA@ 100a0d7c     interop.obj
 0002:00000d88       ??_C@_08ICEHPNNG@HeapFree?$AA@ 100a0d88     interop.obj
 0002:00000d94       ??_C@_0M@HHKAEGMB@HeapReAlloc?$AA@ 100a0d94     interop.obj
 0002:00000da0       ??_C@_08LKCFNBPH@HeapSize?$AA@ 100a0da0     interop.obj
 0002:00000dac       ??_C@_0N@BKFJNCJM@HeapValidate?$AA@ 100a0dac     interop.obj
 0002:00000dbc       ??_C@_0M@EIEMDCNL@HeapCompact?$AA@ 100a0dbc     interop.obj
 0002:00000dc8       ??_C@_0N@LOMLCOFC@LoadLibraryA?$AA@ 100a0dc8     interop.obj
 0002:00000dd8       ??_C@_0N@KCFDJLIF@LoadLibraryW?$AA@ 100a0dd8     interop.obj
 0002:00000de8       ??_C@_09FHKJECCN@LocalFree?$AA@ 100a0de8     interop.obj
 0002:00000df4       ??_C@_08DICMLIHC@LockFile?$AA@ 100a0df4     interop.obj
 0002:00000e00       ??_C@_0L@EJAEKEDD@LockFileEx?$AA@ 100a0e00     interop.obj
 0002:00000e0c       ??_C@_0O@IGIELGBD@MapViewOfFile?$AA@ 100a0e0c     interop.obj
 0002:00000e1c       ??_C@_0BE@HCIKGJGE@MultiByteToWideChar?$AA@ 100a0e1c     interop.obj
 0002:00000e30       ??_C@_0BI@LFICGGHO@QueryPerformanceCounter?$AA@ 100a0e30     interop.obj
 0002:00000e48       ??_C@_08KLCHJOKF@ReadFile?$AA@ 100a0e48     interop.obj
 0002:00000e54       ??_C@_0N@KGGGLBCJ@SetEndOfFile?$AA@ 100a0e54     interop.obj
 0002:00000e64       ??_C@_0P@HKHKGCLN@SetFilePointer?$AA@ 100a0e64     interop.obj
 0002:00000e74       ??_C@_05PFDOMJEF@Sleep?$AA@ 100a0e74     interop.obj
 0002:00000e7c       ??_C@_0BF@HBHGIPOG@SystemTimeToFileTime?$AA@ 100a0e7c     interop.obj
 0002:00000e94       ??_C@_0L@PBJENKDG@UnlockFile?$AA@ 100a0e94     interop.obj
 0002:00000ea0       ??_C@_0N@HOKNOHPO@UnlockFileEx?$AA@ 100a0ea0     interop.obj
 0002:00000eb0       ??_C@_0BA@GLKNLELN@UnmapViewOfFile?$AA@ 100a0eb0     interop.obj
 0002:00000ec0       ??_C@_0BE@LJADKLBD@WideCharToMultiByte?$AA@ 100a0ec0     interop.obj
 0002:00000ed4       ??_C@_09NOIIIIGM@WriteFile?$AA@ 100a0ed4     interop.obj
 0002:00000ee0       ??_C@_0P@DLHPPCNH@CreateEventExW?$AA@ 100a0ee0     interop.obj
 0002:00000ef0       ??_C@_0BE@CLKLPNNG@WaitForSingleObject?$AA@ 100a0ef0     interop.obj
 0002:00000f04       ??_C@_0BG@IFNJHLEG@WaitForSingleObjectEx?$AA@ 100a0f04     interop.obj
 0002:00000f1c       ??_C@_0BB@GDGABGCO@SetFilePointerEx?$AA@ 100a0f1c     interop.obj
 0002:00000f30       ??_C@_0BN@NEEHBBPO@GetFileInformationByHandleEx?$AA@ 100a0f30     interop.obj
 0002:00000f50       ??_C@_0BF@ECJCKDGL@MapViewOfFileFromApp?$AA@ 100a0f50     interop.obj
 0002:00000f68       ??_C@_0M@HHGEPIBF@CreateFile2?$AA@ 100a0f68     interop.obj
 0002:00000f74       ??_C@_0BE@GMOAPDKA@LoadPackagedLibrary?$AA@ 100a0f74     interop.obj
 0002:00000f88       ??_C@_0P@CDHHOHKP@GetTickCount64?$AA@ 100a0f88     interop.obj
 0002:00000f98       ??_C@_0BE@HLKFLAJF@GetNativeSystemInfo?$AA@ 100a0f98     interop.obj
 0002:00000fac       ??_C@_0BD@ILGKEMFC@OutputDebugStringA?$AA@ 100a0fac     interop.obj
 0002:00000fc0       ??_C@_0BD@JHPCPJIF@OutputDebugStringW?$AA@ 100a0fc0     interop.obj
 0002:00000fd4       ??_C@_0P@BOLOPLNF@GetProcessHeap?$AA@ 100a0fd4     interop.obj
 0002:00000fe4       ??_C@_0BJ@EKFPCGJA@CreateFileMappingFromApp?$AA@ 100a0fe4     interop.obj
 0002:00001000       ??_C@_0CK@NGPIDCAA@failed?5to?5HeapCompact?5?$CIno?5space?$CJ@ 100a1000     interop.obj
 0002:0000102c       ??_C@_0CF@BOCDEBEA@failed?5to?5HeapCompact?5?$CI?$CFlu?$CJ?0?5hea@ 100a102c     interop.obj
 0002:00001054       ??_C@_0CM@NNNFEPLG@failed?5to?5HeapAlloc?5?$CFu?5bytes?5?$CI?$CFl@ 100a1054     interop.obj
 0002:00001080       ??_C@_0CL@JKLAHGLA@failed?5to?5HeapFree?5block?5?$CFp?5?$CI?$CFlu@ 100a1080     interop.obj
 0002:000010ac       ??_C@_0CF@LIJODODC@failed?5to?5?$CFs?5?$CFu?5bytes?5?$CI?$CFlu?$CJ?0?5hea@ 100a10ac     interop.obj
 0002:000010d4       ??_C@_0CL@HCBMEFAG@failed?5to?5HeapSize?5block?5?$CFp?5?$CI?$CFlu@ 100a10d4     interop.obj
 0002:00001100       ??_C@_0EA@IKKAKFOI@failed?5to?5HeapCreate?5?$CI?$CFlu?$CJ?0?5flag@ 100a1100     interop.obj
 0002:00001140       ??_C@_0CF@JHBMKENA@failed?5to?5HeapDestroy?5?$CI?$CFlu?$CJ?0?5hea@ 100a1140     interop.obj
 0002:00001168       ??_C@_0BE@MJECGBL@OsError?50x?$CFlx?5?$CI?$CFlu?$CJ?$AA@ 100a1168     interop.obj
 0002:0000117c       ??_C@_02DKCKIIND@?$CFs?$AA@ 100a117c     interop.obj
 0002:00001180       ??_C@_0BP@JDJJJHMH@os_win?4c?3?$CFd?3?5?$CI?$CFlu?$CJ?5?$CFs?$CI?$CFs?$CJ?5?9?5?$CFs?$AA@ 100a1180     interop.obj
 0002:000011a0       ??_C@_0CH@IOAFGIGM@delayed?5?$CFdms?5for?5lock?1sharing?5co@ 100a11a0     interop.obj
 0002:000011c8       ??_C@_0M@JAPMDKOE@winSeekFile?$AA@ 100a11c8     interop.obj
 0002:000011d4       ??_C@_08GBGPIFFF@winClose?$AA@ 100a11d4     interop.obj
 0002:000011e0       ??_C@_07BGDHELCN@winRead?$AA@ 100a11e0     interop.obj
 0002:000011e8       ??_C@_09GFOHNLGD@winWrite1?$AA@ 100a11e8     interop.obj
 0002:000011f4       ??_C@_09EOMKIIKA@winWrite2?$AA@ 100a11f4     interop.obj
 0002:00001200       ??_C@_0N@JHOIFHJA@winTruncate1?$AA@ 100a1200     interop.obj
 0002:00001210       ??_C@_0N@LMMFAEFD@winTruncate2?$AA@ 100a1210     interop.obj
 0002:00001220       ??_C@_07HFIFFLEA@winSync?$AA@ 100a1220     interop.obj
 0002:00001228       ??_C@_0M@DODNMLAG@winFileSize?$AA@ 100a1228     interop.obj
 0002:00001234       ??_C@_0BC@CHABEBCJ@winUnlockReadLock?$AA@ 100a1234     interop.obj
 0002:00001248       ??_C@_09INENJOCI@winUnlock?$AA@ 100a1248     interop.obj
 0002:00001254       ??_C@_06KEOMCCGA@?$CFs?9shm?$AA@ 100a1254     interop.obj
 0002:0000125c       ??_C@_0L@NHPDAEHO@winOpenShm?$AA@ 100a125c     interop.obj
 0002:00001268       ??_C@_0L@JMPNPFLA@winShmMap1?$AA@ 100a1268     interop.obj
 0002:00001274       ??_C@_0L@LHNAKGHD@winShmMap2?$AA@ 100a1274     interop.obj
 0002:00001280       ??_C@_0L@KOMLJHDC@winShmMap3?$AA@ 100a1280     interop.obj
 0002:0000128c       ??_C@_0O@MBBPBMPM@winUnmapfile1?$AA@ 100a128c     interop.obj
 0002:0000129c       ??_C@_0O@OKDCEPDP@winUnmapfile2?$AA@ 100a129c     interop.obj
 0002:000012ac       ??_C@_0M@FMIFOGHC@winMapfile1?$AA@ 100a12ac     interop.obj
 0002:000012b8       ??_C@_0M@HHKILFLB@winMapfile2?$AA@ 100a12b8     interop.obj
 0002:000012c4       ??_C@_07NBNPOOME@etilqs_?$AA@ 100a12c4     interop.obj
 0002:000012cc       ??_C@_0BA@KKAJEMJB@winGetTempname1?$AA@ 100a12cc     interop.obj
 0002:000012dc       ??_C@_0BA@IBCEBPFC@winGetTempname2?$AA@ 100a12dc     interop.obj
 0002:000012ec       ??_C@_0BA@JIDPCOBD@winGetTempname3?$AA@ 100a12ec     interop.obj
 0002:000012fc       ??_C@_0BA@NHHOLINE@winGetTempname4?$AA@ 100a12fc     interop.obj
 0002:0000130c       ??_C@_0BA@MOGFIJJF@winGetTempname5?$AA@ 100a130c     interop.obj
 0002:0000131c       ??_C@_07BEGGPPOF@winOpen?$AA@ 100a131c     interop.obj
 0002:00001324       ??_C@_04JKHAIEHD@psow?$AA@ 100a1324     interop.obj
 0002:0000132c       ??_C@_09MOHEIBIO@winDelete?$AA@ 100a132c     interop.obj
 0002:00001338       ??_C@_09NBJCHJLH@winAccess?$AA@ 100a1338     interop.obj
 0002:00001344       ??_C@_06GIIGBPHC@?$CFs?$CFc?$CFs?$AA@ 100a1344     interop.obj
 0002:0000134c       ??_C@_0BB@OFJJKLCE@winFullPathname1?$AA@ 100a134c     interop.obj
 0002:00001360       ??_C@_0BB@MOLEPIOH@winFullPathname2?$AA@ 100a1360     interop.obj
 0002:00001374       ??_C@_0BB@NHKPMJKG@winFullPathname3?$AA@ 100a1374     interop.obj
 0002:00001388       ??_C@_0BB@JIOOFPGB@winFullPathname4?$AA@ 100a1388     interop.obj
 0002:0000139c       ??_C@_05NMJMPJJB@win32?$AA@ 100a139c     interop.obj
 0002:000013a4       ??_C@_0P@DDINIIBH@win32?9longpath?$AA@ 100a13a4     interop.obj
 0002:000013b4       ??_C@_0BL@FJPGAHP@recovered?5?$CFd?5pages?5from?5?$CFs?$AA@ 100a13b4     interop.obj
 0002:000013d0       ??_C@_09HKLPJOIM@?9journal?$AA?$AA@ 100a13d0     interop.obj
 0002:000013dc       ??_C@_05HMKKNGEJ@?9wal?$AA?$AA@ 100a13dc     interop.obj
 0002:000013e4       ??_C@_06LDKHBALK@nolock?$AA@ 100a13e4     interop.obj
 0002:000013ec       ??_C@_09JFJMBHCC@immutable?$AA@ 100a13ec     interop.obj
 0002:000013f8       ??_C@_0CF@EDMDCOFB@recovered?5?$CFd?5frames?5from?5WAL?5fil@ 100a13f8     interop.obj
 0002:00001420       ??_C@_0BK@NCCCKLLJ@cannot?5limit?5WAL?5size?3?5?$CFs?$AA@ 100a1420     interop.obj
 0002:0000143c       ??_C@_08CADOGOJM@?3memory?3?$AA@ 100a143c     interop.obj
 0002:00001448       ??_C@_01EEMJAFIK@?6?$AA@   100a1448     interop.obj
 0002:0000144c       ??_C@_0BH@LLKFEBHC@invalid?5page?5number?5?$CFd?$AA@ 100a144c     interop.obj
 0002:00001464       ??_C@_0BJ@HHKCLCDH@2nd?5reference?5to?5page?5?$CFd?$AA@ 100a1464     interop.obj
 0002:00001480       ??_C@_0BN@NJCBBLIO@Failed?5to?5read?5ptrmap?5key?$DN?$CFd?$AA@ 100a1480     interop.obj
 0002:000014a0       ??_C@_0DG@EAEHHDPC@Bad?5ptr?5map?5entry?5key?$DN?$CFd?5expecte@ 100a14a0     interop.obj
 0002:000014d8       ??_C@_0DJ@PBFEOOMP@?$CFd?5of?5?$CFd?5pages?5missing?5from?5over@ 100a14d8     interop.obj
 0002:00001514       ??_C@_0BG@GMIBDIEE@failed?5to?5get?5page?5?$CFd?$AA@ 100a1514     interop.obj
 0002:0000152c       ??_C@_0CH@LNHECGJJ@freelist?5leaf?5count?5too?5big?5on?5p@ 100a152c     interop.obj
 0002:00001554       ??_C@_09OLGIMPDE@Page?5?$CFd?3?5?$AA@ 100a1554     interop.obj
 0002:00001560       ??_C@_0CG@ILLDAEJM@unable?5to?5get?5the?5page?4?5error?5co@ 100a1560     interop.obj
 0002:00001588       ??_C@_0CG@FFKEALPN@btreeInitPage?$CI?$CJ?5returns?5error?5co@ 100a1588     interop.obj
 0002:000015b0       ??_C@_0BK@DEBKKJM@On?5tree?5page?5?$CFd?5cell?5?$CFd?3?5?$AA@ 100a15b0     interop.obj
 0002:000015cc       ??_C@_0CM@NFGNKDIE@Rowid?5?$CFlld?5out?5of?5order?5?$CIpreviou@ 100a15cc     interop.obj
 0002:000015f8       ??_C@_0BJ@FLOCKNJL@Child?5page?5depth?5differs?$AA@ 100a15f8     interop.obj
 0002:00001614       ??_C@_0BM@FMPLCKPB@On?5page?5?$CFd?5at?5right?5child?3?5?$AA@ 100a1614     interop.obj
 0002:00001630       ??_C@_0DN@FNPJJAIO@Rowid?5?$CFlld?5out?5of?5order?5?$CImax?5lar@ 100a1630     interop.obj
 0002:00001670       ??_C@_0DL@JMELIBGM@Rowid?5?$CFlld?5out?5of?5order?5?$CImin?5les@ 100a1670     interop.obj
 0002:000016ac       ??_C@_0DN@BNLGOIPI@Rowid?5?$CFlld?5out?5of?5order?5?$CImax?5lar@ 100a16ac     interop.obj
 0002:000016ec       ??_C@_0DL@NMAEPJBK@Rowid?5?$CFlld?5out?5of?5order?5?$CImin?5les@ 100a16ec     interop.obj
 0002:00001728       ??_C@_0CK@JLHLDHFB@Corruption?5detected?5in?5cell?5?$CFd?5o@ 100a1728     interop.obj
 0002:00001754       ??_C@_0CF@DKGAOHID@Multiple?5uses?5for?5byte?5?$CFd?5of?5pag@ 100a1754     interop.obj
 0002:0000177c       ??_C@_0DE@NONOJPEC@Fragmentation?5of?5?$CFd?5bytes?5report@ 100a177c     interop.obj
 0002:000017b0       ??_C@_0BA@EAICBBKE@Main?5freelist?3?5?$AA@ 100a17b0     interop.obj
 0002:000017c0       ??_C@_0BF@CFAFGJN@List?5of?5tree?5roots?3?5?$AA@ 100a17c0     interop.obj
 0002:000017d8       ??_C@_0BG@NJBAMKDO@Page?5?$CFd?5is?5never?5used?$AA@ 100a17d8     interop.obj
 0002:000017f0       ??_C@_0CC@IBCKHFBM@Pointer?5map?5page?5?$CFd?5is?5reference@ 100a17f0     interop.obj
 0002:00001814       ??_C@_0DP@PJBOOLEO@Outstanding?5page?5count?5goes?5from@ 100a1814     interop.obj
 0002:00001854       ??_C@_0O@BNNCBLEN@out?5of?5memory?$AA@ 100a1854     interop.obj
 0002:00001864       ??_C@_0BE@OKPJBBEB@unknown?5database?5?$CFs?$AA@ 100a1864     interop.obj
 0002:00001878       ??_C@_0CI@IHDDPHMP@source?5and?5destination?5must?5be?5d@ 100a1878     interop.obj
 0002:000018a0       ??_C@_06NJMDEJD@?$CF?$CB?415g?$AA@ 100a18a0     interop.obj
 0002:000018a8       ??_C@_01JOAMLHOP@?9?$AA@   100a18a8     interop.obj
 0002:000018ac       ??_C@_04HDOCAJNK@?$CFs?$CFs?$AA@ 100a18ac     interop.obj
 0002:000018b4       ??_C@_0O@HEEEJLEO@sqlite_record?$AA@ 100a18b4     interop.obj
 0002:000018c4       ??_C@_04INKOODMH@k?$CI?$CFd?$AA@ 100a18c4     interop.obj
 0002:000018cc       ??_C@_03ILAMHENH@nil?$AA@  100a18cc     interop.obj
 0002:000018d0       ??_C@_06FJHKNKMG@BINARY?$AA@ 100a18d0     interop.obj
 0002:000018d8       ??_C@_01HMGJMAIH@B?$AA@    100a18d8     interop.obj
 0002:000018dc       ??_C@_07CJFGHBKN@?$CI?$CF?420s?$CJ?$AA@ 100a18dc     interop.obj
 0002:000018e4       ??_C@_06BPGFIOAL@?$CFs?$CI?$CFd?$CJ?$AA@ 100a18e4     interop.obj
 0002:000018ec       ??_C@_02DPKJAMEF@?$CFd?$AA@ 100a18ec     interop.obj
 0002:000018f0       ??_C@_06OLGPAEJH@?$CIblob?$CJ?$AA@ 100a18f0     interop.obj
 0002:000018f8       ??_C@_0L@IIBEKKAO@vtab?3?$CFp?3?$CFp?$AA@ 100a18f8     interop.obj
 0002:00001904       ??_C@_08CBEPOPA@intarray?$AA@ 100a1904     interop.obj
 0002:00001910       ??_C@_07MHLKLKDM@program?$AA@ 100a1910     interop.obj
 0002:00001918       ??_C@_04LABILCJL@?$CF?42x?$AA@ 100a1918     interop.obj
 0002:00001920       ??_C@_0BA@FKMAFLJK@?$CFs?9mjXXXXXX9XXz?$AA@ 100a1920     interop.obj
 0002:00001930       ??_C@_0O@IDFCBAPA@MJ?5delete?3?5?$CFs?$AA@ 100a1930     interop.obj
 0002:00001940       ??_C@_0P@EKBGDFBG@MJ?5collide?3?5?$CFs?$AA@ 100a1940     interop.obj
 0002:00001950       ??_C@_0N@FLHACMNC@?9mj?$CF06X9?$CF02X?$AA@ 100a1950     interop.obj
 0002:00001960       ??_C@_0BO@PMDGIFIC@FOREIGN?5KEY?5constraint?5failed?$AA@ 100a1960     interop.obj
 0002:00001980       ??_C@_0CN@JCKHFJMJ@API?5called?5with?5finalized?5prepar@ 100a1980     interop.obj
 0002:000019b0       ??_C@_0CI@DGDEMKDJ@API?5called?5with?5NULL?5prepared?5st@ 100a19b0     interop.obj
 0002:000019d8       ??_C@_0BH@BEFJIDGM@string?5or?5blob?5too?5big?$AA@ 100a19d8     interop.obj
 0002:000019f0       ??_C@_0DD@BOPMNMAO@unable?5to?5use?5function?5?$CFs?5in?5the@ 100a19f0     interop.obj
 0002:00001a24       ??_C@_0CI@NKIMDBDG@bind?5on?5a?5busy?5prepared?5statemen@ 100a1a24     interop.obj
 0002:00001a4c       ??_C@_03CJPCKGBB@?9?9?5?$AA@ 100a1a4c     interop.obj
 0002:00001a50       ??_C@_06BGANNCL@?8?$CF?4?$CKq?8?$AA@ 100a1a50     interop.obj
 0002:00001a58       ??_C@_0N@OGKFEFFN@zeroblob?$CI?$CFd?$CJ?$AA@ 100a1a58     interop.obj
 0002:00001a68       ??_C@_02IAJJKNGA@x?8?$AA@  100a1a68     interop.obj
 0002:00001a6c       ??_C@_04NOJCDH@?$CF02x?$AA@ 100a1a6c     interop.obj
 0002:00001a74       ??_C@_01GEODFPGF@?8?$AA@   100a1a74     interop.obj
 0002:00001a78       ??_C@_08BBHBEGAC@NOT?5NULL?$AA@ 100a1a78     interop.obj
 0002:00001a84       ??_C@_06OHAHIIGJ@UNIQUE?$AA@ 100a1a84     interop.obj
 0002:00001a8c       ??_C@_05GCOJDIEO@CHECK?$AA@ 100a1a8c     interop.obj
 0002:00001a94       ??_C@_0M@CFPAHGLH@FOREIGN?5KEY?$AA@ 100a1a94     interop.obj
 0002:00001aa0       ??_C@_0BI@CKCEIKAL@abort?5at?5?$CFd?5in?5?$FL?$CFs?$FN?3?5?$CFs?$AA@ 100a1aa0     interop.obj
 0002:00001ab8       ??_C@_0BJ@ICEIKGIJ@?$CFs?5constraint?5failed?3?5?$CFs?$AA@ 100a1ab8     interop.obj
 0002:00001ad4       ??_C@_0BF@PPLEKELH@?$CFs?5constraint?5failed?$AA@ 100a1ad4     interop.obj
 0002:00001aec       ??_C@_0DD@EHMCJFDN@cannot?5open?5savepoint?5?9?5SQL?5stat@ 100a1aec     interop.obj
 0002:00001b20       ??_C@_0BG@NADCOEGF@no?5such?5savepoint?3?5?$CFs?$AA@ 100a1b20     interop.obj
 0002:00001b38       ??_C@_0DG@JCGPCDM@cannot?5release?5savepoint?5?9?5SQL?5s@ 100a1b38     interop.obj
 0002:00001b70       ??_C@_0DH@EPKPHENF@cannot?5commit?5transaction?5?9?5SQL?5@ 100a1b70     interop.obj
 0002:00001ba8       ??_C@_0DA@CKKHGBEC@cannot?5start?5a?5transaction?5withi@ 100a1ba8     interop.obj
 0002:00001bd8       ??_C@_0CL@DIEDEFLK@cannot?5rollback?5?9?5no?5transaction@ 100a1bd8     interop.obj
 0002:00001c04       ??_C@_0CJ@LALCBGBP@cannot?5commit?5?9?5no?5transaction?5i@ 100a1c04     interop.obj
 0002:00001c30       ??_C@_0BM@FKBOKANJ@database?5schema?5has?5changed?$AA@ 100a1c30     interop.obj
 0002:00001c4c       ??_C@_0BD@OLGFAFA@sqlite_temp_master?$AA@ 100a1c4c     interop.obj
 0002:00001c60       ??_C@_0O@JMEKHCEB@sqlite_master?$AA@ 100a1c60     interop.obj
 0002:00001c70       ??_C@_0EA@GFNDAJBJ@SELECT?5name?0?5rootpage?0?5sql?5FROM?5@ 100a1c70     interop.obj
 0002:00001cb0       ??_C@_0CF@DBNDEPJP@too?5many?5levels?5of?5trigger?5recur@ 100a1cb0     interop.obj
 0002:00001cd8       ??_C@_04MHJLCKAK@into?$AA@ 100a1cd8     interop.obj
 0002:00001ce0       ??_C@_06JIMOCJPC@out?5of?$AA@ 100a1ce0     interop.obj
 0002:00001ce8       ??_C@_0DE@KIPNAMAA@cannot?5change?5?$CFs?5wal?5mode?5from?5w@ 100a1ce8     interop.obj
 0002:00001d1c       ??_C@_0BN@JOIFECGM@database?5table?5is?5locked?3?5?$CFs?$AA@ 100a1d1c     interop.obj
 0002:00001d3c       ??_C@_0CA@JGFGBIFL@statement?5aborts?5at?5?$CFd?3?5?$FL?$CFs?$FN?5?$CFs?$AA@ 100a1d3c     interop.obj
 0002:00001d5c       ??_C@_04MLLLIHIP@null?$AA@ 100a1d5c     interop.obj
 0002:00001d64       ??_C@_04DGGKDJMA@real?$AA@ 100a1d64     interop.obj
 0002:00001d6c       ??_C@_07LKHFMGFB@integer?$AA@ 100a1d6c     interop.obj
 0002:00001d74       ??_C@_0BN@OFFACDFM@cannot?5open?5value?5of?5type?5?$CFs?$AA@ 100a1d74     interop.obj
 0002:00001d94       ??_C@_0BE@PGLAJEIK@no?5such?5rowid?3?5?$CFlld?$AA@ 100a1d94     interop.obj
 0002:00001da8       ??_C@_0BO@BCBGJJEM@cannot?5open?5virtual?5table?3?5?$CFs?$AA@ 100a1da8     interop.obj
 0002:00001dc8       ??_C@_0CE@OCACOFEC@cannot?5open?5table?5without?5rowid?3@ 100a1dc8     interop.obj
 0002:00001dec       ??_C@_0BF@LEHNPEDD@cannot?5open?5view?3?5?$CFs?$AA@ 100a1dec     interop.obj
 0002:00001e04       ??_C@_0BF@IFOHJMAC@no?5such?5column?3?5?$CC?$CFs?$CC?$AA@ 100a1e04     interop.obj
 0002:00001e1c       ??_C@_0M@EKGNDAGL@foreign?5key?$AA@ 100a1e1c     interop.obj
 0002:00001e28       ??_C@_07KNEBDGNE@indexed?$AA@ 100a1e28     interop.obj
 0002:00001e30       ??_C@_0CC@PCDMPIAA@cannot?5open?5?$CFs?5column?5for?5writin@ 100a1e30     interop.obj
 0002:00001e54       ??_C@_03CLCAEGCJ@new?$AA@  100a1e54     interop.obj
 0002:00001e58       ??_C@_03PNKCFLFB@old?$AA@  100a1e58     interop.obj
 0002:00001e5c       ??_C@_0BP@LIGNHLP@misuse?5of?5aliased?5aggregate?5?$CFs?$AA@ 100a1e5c     interop.obj
 0002:00001e7c       ??_C@_0P@OOEELNMH@no?5such?5column?$AA@ 100a1e7c     interop.obj
 0002:00001e8c       ??_C@_0BG@CPPEOILG@ambiguous?5column?5name?$AA@ 100a1e8c     interop.obj
 0002:00001ea4       ??_C@_0N@GOMHGJCA@?$CFs?3?5?$CFs?4?$CFs?4?$CFs?$AA@ 100a1ea4     interop.obj
 0002:00001eb4       ??_C@_09DEPFKOIN@?$CFs?3?5?$CFs?4?$CFs?$AA@ 100a1eb4     interop.obj
 0002:00001ec0       ??_C@_06DJHOIPC@?$CFs?3?5?$CFs?$AA@ 100a1ec0     interop.obj
 0002:00001ec8       ??_C@_0CN@EKPEMIJF@?$CFs?5prohibited?5in?5partial?5index?5W@ 100a1ec8     interop.obj
 0002:00001ef8       ??_C@_0CD@HIMOIMLJ@?$CFs?5prohibited?5in?5CHECK?5constrain@ 100a1ef8     interop.obj
 0002:00001f1c       ??_C@_09CEAIPAHE@functions?$AA@ 100a1f1c     interop.obj
 0002:00001f28       ??_C@_0EH@BOEFIEGB@second?5argument?5to?5likelihood?$CI?$CJ?5@ 100a1f28     interop.obj
 0002:00001f70       ??_C@_0CD@CLOCOINF@not?5authorized?5to?5use?5function?3?5@ 100a1f70     interop.obj
 0002:00001f94       ??_C@_0CE@JOMBDPK@misuse?5of?5aggregate?5function?5?$CF?4?$CK@ 100a1f94     interop.obj
 0002:00001fb8       ??_C@_0BH@DEPAIHDK@no?5such?5function?3?5?$CF?4?$CKs?$AA@ 100a1fb8     interop.obj
 0002:00001fd0       ??_C@_0CN@GBOJIJCC@wrong?5number?5of?5arguments?5to?5fun@ 100a1fd0     interop.obj
 0002:00002000       ??_C@_0L@JIOMEFKM@subqueries?$AA@ 100a2000     interop.obj
 0002:0000200c       ??_C@_0L@HHPOFMCB@parameters?$AA@ 100a200c     interop.obj
 0002:00002018       ??_C@_0DI@IJOLPLNO@?$CFr?5?$CFs?5BY?5term?5out?5of?5range?5?9?5sho@ 100a2018     interop.obj
 0002:00002050       ??_C@_0CC@GEJJPDIE@too?5many?5terms?5in?5ORDER?5BY?5claus@ 100a2050     interop.obj
 0002:00002074       ??_C@_05BIEKMFNJ@ORDER?$AA@ 100a2074     interop.obj
 0002:0000207c       ??_C@_0DN@KHANHMIL@?$CFr?5ORDER?5BY?5term?5does?5not?5match?5@ 100a207c     interop.obj
 0002:000020bc       ??_C@_0BP@OLNMGBH@too?5many?5terms?5in?5?$CFs?5BY?5clause?$AA@ 100a20bc     interop.obj
 0002:000020dc       ??_C@_0CM@CFGBPLAG@a?5GROUP?5BY?5clause?5is?5required?5be@ 100a20dc     interop.obj
 0002:00002108       ??_C@_05NAIABEH@GROUP?$AA@ 100a2108     interop.obj
 0002:00002110       ??_C@_0DL@LDIIFJFH@aggregate?5functions?5are?5not?5allo@ 100a2110     interop.obj
 0002:0000214c       ??_C@_0DA@HPOBBFJP@Expression?5tree?5is?5too?5large?5?$CIma@ 100a214c     interop.obj
 0002:0000217c       ??_C@_0CL@MAPAMFMM@variable?5number?5must?5be?5between?5@ 100a217c     interop.obj
 0002:000021a8       ??_C@_0BH@KLMBLGJH@too?5many?5SQL?5variables?$AA@ 100a21a8     interop.obj
 0002:000021c0       ??_C@_0BH@HJGFDJPB@too?5many?5columns?5in?5?$CFs?$AA@ 100a21c0     interop.obj
 0002:000021d8       ??_C@_07HKAAOBDA@_ROWID_?$AA@ 100a21d8     interop.obj
 0002:000021e0       ??_C@_05GIFMDDGN@ROWID?$AA@ 100a21e0     interop.obj
 0002:000021e8       ??_C@_03PGJCFEMG@OID?$AA@  100a21e8     interop.obj
 0002:000021ec       ??_C@_04PCOPKCKE@LIST?$AA@ 100a21ec     interop.obj
 0002:000021f4       ??_C@_06LEOGOFDE@SCALAR?$AA@ 100a21f4     interop.obj
 0002:000021fc       ??_C@_0M@MCLOEEML@CORRELATED?5?$AA@ 100a21fc     interop.obj
 0002:00002208       ??_C@_0BJ@HNBNONDH@EXECUTE?5?$CFs?$CFs?5SUBQUERY?5?$CFd?$AA@ 100a2208     interop.obj
 0002:00002224       ??_C@_0BK@BMEAFNCN@misuse?5of?5aggregate?3?5?$CFs?$CI?$CJ?$AA@ 100a2224     interop.obj
 0002:00002240       ??_C@_0BJ@HFDHLKDG@unknown?5function?3?5?$CF?4?$CKs?$CI?$CJ?$AA@ 100a2240     interop.obj
 0002:0000225c       ??_C@_0DC@JGGJAPOJ@RAISE?$CI?$CJ?5may?5only?5be?5used?5within?5@ 100a225c     interop.obj
 0002:00002290       ??_C@_0L@HDDJIJMP@?$CF?4?$CKs?$CC?$CFw?$CC?$CFs?$AA@ 100a2290     interop.obj
 0002:0000229c       ??_C@_0L@GGMNOGLF@?$CFs?$CF?4?$CKs?$CC?$CFw?$CC?$AA@ 100a229c     interop.obj
 0002:000022a8       ??_C@_0BE@JHJAJICL@sqlite_rename_table?$AA@ 100a22a8     interop.obj
 0002:000022bc       ??_C@_0BG@DKJJOMDK@sqlite_rename_trigger?$AA@ 100a22bc     interop.obj
 0002:000022d4       ??_C@_0BF@CIKMGNA@sqlite_rename_parent?$AA@ 100a22d4     interop.obj
 0002:000022ec       ??_C@_07IKCPJJF@name?$DN?$CFQ?$AA@ 100a22ec     interop.obj
 0002:000022f4       ??_C@_0O@JAFDLLMD@?$CFs?5OR?5name?$DN?$CFQ?$AA@ 100a22f4     interop.obj
 0002:00002304       ??_C@_0BI@IBIDABAM@type?$DN?8trigger?8?5AND?5?$CI?$CFs?$CJ?$AA@ 100a2304     interop.obj
 0002:0000231c       ??_C@_0M@FPJBBPLI@tbl_name?$DN?$CFQ?$AA@ 100a231c     interop.obj
 0002:00002328       ??_C@_07IOGLMIPM@sqlite_?$AA@ 100a2328     interop.obj
 0002:00002330       ??_C@_0BM@IAHFHDLE@table?5?$CFs?5may?5not?5be?5altered?$AA@ 100a2330     interop.obj
 0002:0000234c       ??_C@_0DL@DAEIJKNC@there?5is?5already?5another?5table?5o@ 100a234c     interop.obj
 0002:00002388       ??_C@_0BL@FIDIAKLG@view?5?$CFs?5may?5not?5be?5altered?$AA@ 100a2388     interop.obj
 0002:000023a8       ??_C@_0EF@LBDFNLNO@UPDATE?5?$CC?$CFw?$CC?4?$CFs?5SET?5sql?5?$DN?5sqlite_@ 100a23a8     interop.obj
 0002:000023f0       ??_C@_0BIA@DMFFJHNO@UPDATE?5?$CFQ?4?$CFs?5SET?5sql?5?$DN?5CASE?5WHEN@ 100a23f0     interop.obj
 0002:00002570       ??_C@_0BA@KDDGKFDH@sqlite_sequence?$AA@ 100a2570     interop.obj
 0002:00002580       ??_C@_0DK@NPMGFNPC@UPDATE?5?$CC?$CFw?$CC?4sqlite_sequence?5set?5@ 100a2580     interop.obj
 0002:000025c0       ??_C@_0FM@GJOILOPP@UPDATE?5sqlite_temp_master?5SET?5sq@ 100a25c0     interop.obj
 0002:0000261c       ??_C@_0CA@KEHKHMLG@Cannot?5add?5a?5PRIMARY?5KEY?5column?$AA@ 100a261c     interop.obj
 0002:0000263c       ??_C@_0BL@NAFLCLKF@Cannot?5add?5a?5UNIQUE?5column?$AA@ 100a263c     interop.obj
 0002:00002658       ??_C@_0DL@KNFPANHI@Cannot?5add?5a?5REFERENCES?5column?5w@ 100a2658     interop.obj
 0002:00002694       ??_C@_0DF@JACFJFPO@Cannot?5add?5a?5NOT?5NULL?5column?5wit@ 100a2694     interop.obj
 0002:000026cc       ??_C@_0CO@DPKGGDEF@Cannot?5add?5a?5column?5with?5non?9con@ 100a26cc     interop.obj
 0002:00002700       ??_C@_0GN@GPPLIGGM@UPDATE?5?$CC?$CFw?$CC?4?$CFs?5SET?5sql?5?$DN?5substr?$CI@ 100a2700     interop.obj
 0002:00002770       ??_C@_0CC@HCCMFAJP@virtual?5tables?5may?5not?5be?5altere@ 100a2770     interop.obj
 0002:00002794       ??_C@_0BO@IKHDEECD@Cannot?5add?5a?5column?5to?5a?5view?$AA@ 100a2794     interop.obj
 0002:000027b4       ??_C@_0BD@PKLNNDD@sqlite_altertab_?$CFs?$AA@ 100a27b4     interop.obj
 0002:000027c8       ??_C@_0N@EIGEIEIJ@sqlite_stat1?$AA@ 100a27c8     interop.obj
 0002:000027d8       ??_C@_0N@BCOBMINH@tbl?0idx?0stat?$AA@ 100a27d8     interop.obj
 0002:000027e8       ??_C@_0N@DFBDHAMM@sqlite_stat4?$AA@ 100a27e8     interop.obj
 0002:000027f8       ??_C@_0BM@EJONBLKK@tbl?0idx?0neq?0nlt?0ndlt?0sample?$AA@ 100a27f8     interop.obj
 0002:00002814       ??_C@_0N@HKFCOGAL@sqlite_stat3?$AA@ 100a2814     interop.obj
 0002:00002824       ??_C@_0BH@NPNIHFHO@CREATE?5TABLE?5?$CFQ?4?$CFs?$CI?$CFs?$CJ?$AA@ 100a2824     interop.obj
 0002:0000283c       ??_C@_0BO@HNIAJBGG@DELETE?5FROM?5?$CFQ?4?$CFs?5WHERE?5?$CFs?$DN?$CFQ?$AA@ 100a283c     interop.obj
 0002:0000285c       ??_C@_09BGHEAMKF@stat_init?$AA@ 100a285c     interop.obj
 0002:00002868       ??_C@_09LFKFCDD@stat_push?$AA@ 100a2868     interop.obj
 0002:00002874       ??_C@_04FCIJFPNK@?$CFllu?$AA@ 100a2874     interop.obj
 0002:0000287c       ??_C@_05CCMFAMFC@?5?$CFllu?$AA@ 100a287c     interop.obj
 0002:00002884       ??_C@_05PDNAJGDH@?$CFllu?5?$AA@ 100a2884     interop.obj
 0002:0000288c       ??_C@_08FMENKBDE@stat_get?$AA@ 100a288c     interop.obj
 0002:00002898       ??_C@_03GINCELHE@aaa?$AA@  100a2898     interop.obj
 0002:0000289c       ??_C@_03DAKNAIGI@idx?$AA@  100a289c     interop.obj
 0002:000028a0       ??_C@_03LIPNCMMN@tbl?$AA@  100a28a0     interop.obj
 0002:000028a4       ??_C@_09KGIEIKHI@unordered?$AA@ 100a28a4     interop.obj
 0002:000028b0       ??_C@_09OAJLDBEA@sz?$DN?$FL0?99?$FN?$CK?$AA@ 100a28b0     interop.obj
 0002:000028bc       ??_C@_0DE@CFNJMCCH@SELECT?5idx?0neq?0nlt?0ndlt?0sample?5F@ 100a28bc     interop.obj
 0002:000028f0       ??_C@_0DG@DMFOEOLN@SELECT?5idx?0count?$CI?$CK?$CJ?5FROM?5?$CFQ?4sqli@ 100a28f0     interop.obj
 0002:00002928       ??_C@_0ED@BDPAKHEL@SELECT?5idx?0neq?0nlt?0ndlt?0sqlite_r@ 100a2928     interop.obj
 0002:0000296c       ??_C@_0DG@KHFPEBKH@SELECT?5idx?0count?$CI?$CK?$CJ?5FROM?5?$CFQ?4sqli@ 100a296c     interop.obj
 0002:000029a4       ??_C@_0CJ@CJKDHBGL@SELECT?5tbl?0idx?0stat?5FROM?5?$CFQ?4sqli@ 100a29a4     interop.obj
 0002:000029d0       ??_C@_0CF@FLFLBLIN@too?5many?5attached?5databases?5?9?5ma@ 100a29d0     interop.obj
 0002:000029f8       ??_C@_0CK@JEFPBLHB@cannot?5ATTACH?5database?5within?5tr@ 100a29f8     interop.obj
 0002:00002a24       ??_C@_0BO@FOBANNIG@database?5?$CFs?5is?5already?5in?5use?$AA@ 100a2a24     interop.obj
 0002:00002a44       ??_C@_0BN@IAAPNCPC@database?5is?5already?5attached?$AA@ 100a2a44     interop.obj
 0002:00002a68       ??_C@_0EE@MLIDCBJA@attached?5databases?5must?5use?5the?5@ 100a2a68     interop.obj
 0002:00002aac       ??_C@_0BC@BMCHOAML@Invalid?5key?5value?$AA@ 100a2aac     interop.obj
 0002:00002ac0       ??_C@_0BM@JECJFHOP@unable?5to?5open?5database?3?5?$CFs?$AA@ 100a2ac0     interop.obj
 0002:00002adc       ??_C@_0BF@PJFCJDG@no?5such?5database?3?5?$CFs?$AA@ 100a2adc     interop.obj
 0002:00002af4       ??_C@_0BK@KGABJE@cannot?5detach?5database?5?$CFs?$AA@ 100a2af4     interop.obj
 0002:00002b10       ??_C@_0CK@NCGPBHIO@cannot?5DETACH?5database?5within?5tr@ 100a2b10     interop.obj
 0002:00002b3c       ??_C@_0BG@HKAEEBEM@database?5?$CFs?5is?5locked?$AA@ 100a2b3c     interop.obj
 0002:00002b54       ??_C@_0O@PDAEIIFA@sqlite_detach?$AA@ 100a2b54     interop.obj
 0002:00002b64       ??_C@_0O@GJLGHGMJ@sqlite_attach?$AA@ 100a2b64     interop.obj
 0002:00002b74       ??_C@_0CO@IGOBCPDP@?$CFs?5?$CFT?5cannot?5reference?5objects?5i@ 100a2b74     interop.obj
 0002:00002ba4       ??_C@_0BI@NDHFOPCH@?$CFs?5cannot?5use?5variables?$AA@ 100a2ba4     interop.obj
 0002:00002bbc       ??_C@_0BH@KNHNEHPN@authorizer?5malfunction?$AA@ 100a2bbc     interop.obj
 0002:00002bd4       ??_C@_0CB@NCPGIDCD@access?5to?5?$CFs?4?$CFs?4?$CFs?5is?5prohibited@ 100a2bd4     interop.obj
 0002:00002bf8       ??_C@_0BO@CMCIGPCH@access?5to?5?$CFs?4?$CFs?5is?5prohibited?$AA@ 100a2bf8     interop.obj
 0002:00002c18       ??_C@_0P@PEBGBLCC@not?5authorized?$AA@ 100a2c18     interop.obj
 0002:00002c28       ??_C@_0N@IAMBEAMM@no?5such?5view?$AA@ 100a2c28     interop.obj
 0002:00002c38       ??_C@_0O@HKMEEONL@no?5such?5table?$AA@ 100a2c38     interop.obj
 0002:00002c48       ??_C@_0BB@GODMDNII@corrupt?5database?$AA@ 100a2c48     interop.obj
 0002:00002c5c       ??_C@_0BE@DADMKDCE@unknown?5database?5?$CFT?$AA@ 100a2c5c     interop.obj
 0002:00002c70       ??_C@_0CK@DHAAGEMP@object?5name?5reserved?5for?5interna@ 100a2c70     interop.obj
 0002:00002c9c       ??_C@_0CJ@GGBIBJLH@temporary?5table?5name?5must?5be?5unq@ 100a2c9c     interop.obj
 0002:00002cc8       ??_C@_0BI@NMBJKJHP@table?5?$CFT?5already?5exists?$AA@ 100a2cc8     interop.obj
 0002:00002ce0       ??_C@_0CD@FJHICPML@there?5is?5already?5an?5index?5named?5@ 100a2ce0     interop.obj
 0002:00002d04       ??_C@_0BH@KPDMNKOM@too?5many?5columns?5on?5?$CFs?$AA@ 100a2d04     interop.obj
 0002:00002d1c       ??_C@_0BK@CJJKBEHE@duplicate?5column?5name?3?5?$CFs?$AA@ 100a2d1c     interop.obj
 0002:00002d38       ??_C@_0CN@MLPCOIJO@default?5value?5of?5column?5?$FL?$CFs?$FN?5is?5@ 100a2d38     interop.obj
 0002:00002d68       ??_C@_0CJ@LEOOFHMA@table?5?$CC?$CFs?$CC?5has?5more?5than?5one?5pri@ 100a2d68     interop.obj
 0002:00002d94       ??_C@_07EHCIHKNF@INTEGER?$AA@ 100a2d94     interop.obj
 0002:00002d9c       ??_C@_0DI@IAIBDBA@AUTOINCREMENT?5is?5only?5allowed?5on@ 100a2d9c     interop.obj
 0002:00002dd4       ??_C@_01IHBHIGKO@?0?$AA@   100a2dd4     interop.obj
 0002:00002dd8       ??_C@_01PKGAHCOL@?$CJ?$AA@ 100a2dd8     interop.obj
 0002:00002ddc       ??_C@_03BMMPKCMF@?6?5?5?$AA@ 100a2ddc     interop.obj
 0002:00002de0       ??_C@_04PPJIEIMB@?0?6?5?5?$AA@ 100a2de0     interop.obj
 0002:00002de8       ??_C@_02EJGPDMNA@?6?$CJ?$AA@ 100a2de8     interop.obj
 0002:00002dec       ??_C@_0O@BLHKEBID@CREATE?5TABLE?5?$AA@ 100a2dec     interop.obj
 0002:00002dfc       ??_C@_05JELAHNDG@?5TEXT?$AA@ 100a2dfc     interop.obj
 0002:00002e04       ??_C@_04KMHHNFPL@?5NUM?$AA@ 100a2e04     interop.obj
 0002:00002e0c       ??_C@_04LKNDAIML@?5INT?$AA@ 100a2e0c     interop.obj
 0002:00002e14       ??_C@_05IKBMIIDA@?5REAL?$AA@ 100a2e14     interop.obj
 0002:00002e1c       ??_C@_0DC@FOEHBEGD@AUTOINCREMENT?5not?5allowed?5on?5WIT@ 100a2e1c     interop.obj
 0002:00002e50       ??_C@_0CA@OMALJPLC@PRIMARY?5KEY?5missing?5on?5table?5?$CFs?$AA@ 100a2e50     interop.obj
 0002:00002e70       ??_C@_05LCLENNFI@table?$AA@ 100a2e70     interop.obj
 0002:00002e78       ??_C@_05HJCCDKBG@TABLE?$AA@ 100a2e78     interop.obj
 0002:00002e80       ??_C@_04CHADEDPO@view?$AA@ 100a2e80     interop.obj
 0002:00002e88       ??_C@_04OLDJKBIG@VIEW?$AA@ 100a2e88     interop.obj
 0002:00002e90       ??_C@_0P@BPBAOJCC@CREATE?5?$CFs?5?$CF?4?$CKs?$AA@ 100a2e90     interop.obj
 0002:00002ea0       ??_C@_0FH@BLIGLCKI@UPDATE?5?$CFQ?4?$CFs?5SET?5type?$DN?8?$CFs?8?0?5name@ 100a2ea0     interop.obj
 0002:00002ef8       ??_C@_0CK@BLJIJAMD@CREATE?5TABLE?5?$CFQ?4sqlite_sequence?$CI@ 100a2ef8     interop.obj
 0002:00002f24       ??_C@_0CC@CBOBIFGC@tbl_name?$DN?8?$CFq?8?5AND?5type?$CB?$DN?8trigger@ 100a2f24     interop.obj
 0002:00002f48       ??_C@_0CE@HIMMFEMD@parameters?5are?5not?5allowed?5in?5vi@ 100a2f48     interop.obj
 0002:00002f6c       ??_C@_0BO@BLAOKNKN@view?5?$CFs?5is?5circularly?5defined?$AA@ 100a2f6c     interop.obj
 0002:00002f8c       ??_C@_0DI@GKCMDFKF@UPDATE?5?$CFQ?4?$CFs?5SET?5rootpage?$DN?$CFd?5WHE@ 100a2f8c     interop.obj
 0002:00002fc4       ??_C@_0O@IOJCPKAP@sqlite_stat?$CFd?$AA@ 100a2fc4     interop.obj
 0002:00002fd4       ??_C@_0CN@DKDOKGOO@DELETE?5FROM?5?$CFQ?4sqlite_sequence?5W@ 100a2fd4     interop.obj
 0002:00003004       ??_C@_0DI@FOLLFOLB@DELETE?5FROM?5?$CFQ?4?$CFs?5WHERE?5tbl_name@ 100a3004     interop.obj
 0002:0000303c       ??_C@_0M@IHGMMCJN@sqlite_stat?$AA@ 100a303c     interop.obj
 0002:00003048       ??_C@_0BM@JEGMLIGC@table?5?$CFs?5may?5not?5be?5dropped?$AA@ 100a3048     interop.obj
 0002:00003064       ??_C@_0CC@HNNEDPB@use?5DROP?5TABLE?5to?5delete?5table?5?$CF@ 100a3064     interop.obj
 0002:00003088       ??_C@_0CA@FJIHAAAA@use?5DROP?5VIEW?5to?5delete?5view?5?$CFs?$AA@ 100a3088     interop.obj
 0002:000030a8       ??_C@_0DP@HFDIOLMB@foreign?5key?5on?5?$CFs?5should?5referen@ 100a30a8     interop.obj
 0002:000030e8       ??_C@_0FO@BDBBNOLJ@number?5of?5columns?5in?5foreign?5key@ 100a30e8     interop.obj
 0002:00003148       ??_C@_0CO@ECJPGOGF@unknown?5column?5?$CC?$CFs?$CC?5in?5foreign?5k@ 100a3148     interop.obj
 0002:00003178       ??_C@_05FKHKFDID@index?$AA@ 100a3178     interop.obj
 0002:00003180       ??_C@_0DC@MMFBMLFB@cannot?5create?5a?5TEMP?5index?5on?5no@ 100a3180     interop.obj
 0002:000031b4       ??_C@_09NGMBFCCJ@altertab_?$AA@ 100a31b4     interop.obj
 0002:000031c0       ??_C@_0BM@KIGEJLNH@table?5?$CFs?5may?5not?5be?5indexed?$AA@ 100a31c0     interop.obj
 0002:000031dc       ??_C@_0BJ@CFGNJLOC@views?5may?5not?5be?5indexed?$AA@ 100a31dc     interop.obj
 0002:000031f8       ??_C@_0CC@FKDNLIPM@virtual?5tables?5may?5not?5be?5indexe@ 100a31f8     interop.obj
 0002:0000321c       ??_C@_0CC@CKJEJGLG@there?5is?5already?5a?5table?5named?5?$CF@ 100a321c     interop.obj
 0002:00003240       ??_C@_0BI@HPCDPJFN@index?5?$CFs?5already?5exists?$AA@ 100a3240     interop.obj
 0002:00003258       ??_C@_0BH@HCCALECK@sqlite_autoindex_?$CFs_?$CFd?$AA@ 100a3258     interop.obj
 0002:00003270       ??_C@_0CA@MKEFOFFD@table?5?$CFs?5has?5no?5column?5named?5?$CFs?$AA@ 100a3270     interop.obj
 0002:00003290       ??_C@_0CK@BPKJMBLB@conflicting?5ON?5CONFLICT?5clauses?5@ 100a3290     interop.obj
 0002:000032bc       ??_C@_07OGDPOKCI@?5UNIQUE?$AA@ 100a32bc     interop.obj
 0002:000032c4       ??_C@_0BE@NHCJMGDI@CREATE?$CFs?5INDEX?5?$CF?4?$CKs?$AA@ 100a32c4     interop.obj
 0002:000032d8       ??_C@_0DA@DLDDDEKN@INSERT?5INTO?5?$CFQ?4?$CFs?5VALUES?$CI?8index?8@ 100a32d8     interop.obj
 0002:00003308       ??_C@_0BL@CHCJOOMG@name?$DN?8?$CFq?8?5AND?5type?$DN?8index?8?$AA@ 100a3308     interop.obj
 0002:00003324       ??_C@_0BC@JBPCAJCH@no?5such?5index?3?5?$CFS?$AA@ 100a3324     interop.obj
 0002:00003338       ??_C@_0EJ@MFMNFJHB@index?5associated?5with?5UNIQUE?5or?5@ 100a3338     interop.obj
 0002:00003384       ??_C@_0DB@DNHAJCKG@DELETE?5FROM?5?$CFQ?4?$CFs?5WHERE?5name?$DN?$CFQ?5@ 100a3384     interop.obj
 0002:000033b8       ??_C@_02BFICIOJL@ON?$AA@   100a33b8     interop.obj
 0002:000033bc       ??_C@_05EOONBMLM@USING?$AA@ 100a33bc     interop.obj
 0002:000033c4       ??_C@_0CE@GFPKLECD@a?5JOIN?5clause?5is?5required?5before@ 100a33c4     interop.obj
 0002:000033e8       ??_C@_05ILMMJGEC@BEGIN?$AA@ 100a33e8     interop.obj
 0002:000033f0       ??_C@_06IBPPMFNL@COMMIT?$AA@ 100a33f0     interop.obj
 0002:000033f8       ??_C@_08COBEBGNM@ROLLBACK?$AA@ 100a33f8     interop.obj
 0002:00003404       ??_C@_07LDDIIHCM@RELEASE?$AA@ 100a3404     interop.obj
 0002:00003410       ??_C@_0EG@GIEOJFED@unable?5to?5open?5a?5temporary?5datab@ 100a3410     interop.obj
 0002:00003458       ??_C@_02KEGNLNML@?0?5?$AA@ 100a3458     interop.obj
 0002:0000345c       ??_C@_05NNFHCGPF@?$CFs?4?$CFs?$AA@ 100a345c     interop.obj
 0002:00003464       ??_C@_08IBDKHCHA@?$CFs?4rowid?$AA@ 100a3464     interop.obj
 0002:00003470       ??_C@_0CO@PMBDNHDC@unable?5to?5identify?5the?5object?5to@ 100a3470     interop.obj
 0002:000034a0       ??_C@_0BO@HBGGJFCF@duplicate?5WITH?5table?5name?3?5?$CFs?$AA@ 100a34a0     interop.obj
 0002:000034c0       ??_C@_0BP@CGLMEPGG@no?5such?5collation?5sequence?3?5?$CFs?$AA@ 100a34c0     interop.obj
 0002:000034e0       ??_C@_0BN@GLMOOAMK@table?5?$CFs?5may?5not?5be?5modified?$AA@ 100a34e0     interop.obj
 0002:00003500       ??_C@_0CG@CNPJIJGN@cannot?5modify?5?$CFs?5because?5it?5is?5a@ 100a3500     interop.obj
 0002:00003528       ??_C@_0N@DAGIBCDP@rows?5deleted?$AA@ 100a3528     interop.obj
 0002:00003538       ??_C@_04CIMGMMMG@text?$AA@ 100a3538     interop.obj
 0002:00003540       ??_C@_04LPJPOBEM@blob?$AA@ 100a3540     interop.obj
 0002:00003548       ??_C@_0BB@KBEKGHFK@integer?5overflow?$AA@ 100a3548     interop.obj
 0002:0000355c       ??_C@_04HGGMHPIM@?$CF?4?$CKf?$AA@ 100a355c     interop.obj
 0002:00003564       ??_C@_0CB@LFIMBCA@LIKE?5or?5GLOB?5pattern?5too?5complex@ 100a3564     interop.obj
 0002:00003588       ??_C@_0CN@PAMOLCDH@ESCAPE?5expression?5must?5be?5a?5sing@ 100a3588     interop.obj
 0002:000035b8       ??_C@_06CLNEDLBE@?$CF?$CB?420e?$AA@ 100a35b8     interop.obj
 0002:000035c0       ??_C@_01CLKCMJKC@?5?$AA@   100a35c0     interop.obj
 0002:000035c4       ??_C@_04BBKKAMHH@?$DP000?$AA@ 100a35c4     interop.obj
 0002:000035cc       ??_C@_05JGHLFIHG@MATCH?$AA@ 100a35cc     interop.obj
 0002:000035d4       ??_C@_04HPDJJBAE@like?$AA@ 100a35d4     interop.obj
 0002:000035dc       ??_C@_04HHHPGODM@glob?$AA@ 100a35dc     interop.obj
 0002:000035e4       ??_C@_05GLDKFKCA@ltrim?$AA@ 100a35e4     interop.obj
 0002:000035ec       ??_C@_05FCOGDJML@rtrim?$AA@ 100a35ec     interop.obj
 0002:000035f4       ??_C@_04GDOMMDLP@trim?$AA@ 100a35f4     interop.obj
 0002:000035fc       ??_C@_03KLIPLJLL@min?$AA@  100a35fc     interop.obj
 0002:00003600       ??_C@_03LJAEFNNE@max?$AA@  100a3600     interop.obj
 0002:00003604       ??_C@_06NDJPCPHC@typeof?$AA@ 100a3604     interop.obj
 0002:0000360c       ??_C@_06IJDLPEM@length?$AA@ 100a360c     interop.obj
 0002:00003614       ??_C@_05HALPBNGI@instr?$AA@ 100a3614     interop.obj
 0002:0000361c       ??_C@_06DAHFIGOC@substr?$AA@ 100a361c     interop.obj
 0002:00003624       ??_C@_06OHJFMFMB@printf?$AA@ 100a3624     interop.obj
 0002:0000362c       ??_C@_07GAJMMAJO@unicode?$AA@ 100a362c     interop.obj
 0002:00003634       ??_C@_04ENMBGAPA@char?$AA@ 100a3634     interop.obj
 0002:0000363c       ??_C@_03BCGAIFPO@abs?$AA@  100a363c     interop.obj
 0002:00003640       ??_C@_05MIMAKCN@round?$AA@ 100a3640     interop.obj
 0002:00003648       ??_C@_05NECKJAMC@upper?$AA@ 100a3648     interop.obj
 0002:00003650       ??_C@_05IPJEPLHL@lower?$AA@ 100a3650     interop.obj
 0002:00003658       ??_C@_08FNGHHBID@coalesce?$AA@ 100a3658     interop.obj
 0002:00003664       ??_C@_03IJNDAFDK@hex?$AA@  100a3664     interop.obj
 0002:00003668       ??_C@_06FAHGEKJN@ifnull?$AA@ 100a3668     interop.obj
 0002:00003670       ??_C@_08FIGEBGNH@unlikely?$AA@ 100a3670     interop.obj
 0002:0000367c       ??_C@_0L@EOIJFFJE@likelihood?$AA@ 100a367c     interop.obj
 0002:00003688       ??_C@_06NLFCANPD@random?$AA@ 100a3688     interop.obj
 0002:00003690       ??_C@_0L@IDMFPHDO@randomblob?$AA@ 100a3690     interop.obj
 0002:0000369c       ??_C@_06LLGGGFDC@nullif?$AA@ 100a369c     interop.obj
 0002:000036a4       ??_C@_0P@IPDPEBN@sqlite_version?$AA@ 100a36a4     interop.obj
 0002:000036b4       ??_C@_0BB@HPCCOLJC@sqlite_source_id?$AA@ 100a36b4     interop.obj
 0002:000036c8       ??_C@_0L@HNFKFGGK@sqlite_log?$AA@ 100a36c8     interop.obj
 0002:000036d4       ??_C@_0BK@NPIMPNGH@sqlite_compileoption_used?$AA@ 100a36d4     interop.obj
 0002:000036f0       ??_C@_0BJ@BHKPGCCL@sqlite_compileoption_get?$AA@ 100a36f0     interop.obj
 0002:0000370c       ??_C@_05JHEGFHLM@quote?$AA@ 100a370c     interop.obj
 0002:00003714       ??_C@_0BC@EKKKCJJE@last_insert_rowid?$AA@ 100a3714     interop.obj
 0002:00003728       ??_C@_07HFLFHMNL@changes?$AA@ 100a3728     interop.obj
 0002:00003730       ??_C@_0O@MLEKHAGK@total_changes?$AA@ 100a3730     interop.obj
 0002:00003740       ??_C@_07CLEHDIEJ@replace?$AA@ 100a3740     interop.obj
 0002:00003748       ??_C@_08OAGHJJOG@zeroblob?$AA@ 100a3748     interop.obj
 0002:00003754       ??_C@_07KFKPEFNG@soundex?$AA@ 100a3754     interop.obj
 0002:0000375c       ??_C@_0P@BJKPICNH@load_extension?$AA@ 100a375c     interop.obj
 0002:0000376c       ??_C@_03CFFIJAMA@sum?$AA@  100a376c     interop.obj
 0002:00003770       ??_C@_05KBOMEDGA@total?$AA@ 100a3770     interop.obj
 0002:00003778       ??_C@_03CHOBFJAH@avg?$AA@  100a3778     interop.obj
 0002:0000377c       ??_C@_05IOMEMJEC@count?$AA@ 100a377c     interop.obj
 0002:00003784       ??_C@_0N@KKLIBDFO@group_concat?$AA@ 100a3784     interop.obj
 0002:00003794       ??_C@_0CN@NOKHDNFH@foreign?5key?5mismatch?5?9?5?$CC?$CFw?$CC?5refe@ 100a3794     interop.obj
 0002:000037c4       ??_C@_03PLGJJJLK@oid?$AA@  100a37c4     interop.obj
 0002:000037c8       ??_C@_0CA@HKGLKLIP@table?5?$CFS?5has?5no?5column?5named?5?$CFs?$AA@ 100a37c8     interop.obj
 0002:000037e8       ??_C@_0DE@HLHNLKJ@table?5?$CFS?5has?5?$CFd?5columns?5but?5?$CFd?5v@ 100a37e8     interop.obj
 0002:0000381c       ??_C@_0BJ@IABIHKKK@?$CFd?5values?5for?5?$CFd?5columns?$AA@ 100a381c     interop.obj
 0002:00003838       ??_C@_0O@OMFDFDMH@rows?5inserted?$AA@ 100a3838     interop.obj
 0002:00003848       ??_C@_03OCHKFGFI@dll?$AA@  100a3848     interop.obj
 0002:0000384c       ??_C@_0BH@NNAEMFED@sqlite3_extension_init?$AA@ 100a384c     interop.obj
 0002:00003864       ??_C@_0CD@FENJJFPL@unable?5to?5open?5shared?5library?5?$FL?$CF@ 100a3864     interop.obj
 0002:00003888       ??_C@_08MIGLKGCA@sqlite3_?$AA@ 100a3888     interop.obj
 0002:00003894       ??_C@_03LPIGJBNC@lib?$AA@  100a3894     interop.obj
 0002:00003898       ??_C@_05PAGLDNCP@_init?$AA@ 100a3898     interop.obj
 0002:000038a0       ??_C@_0CL@IHPFGADB@no?5entry?5point?5?$FL?$CFs?$FN?5in?5shared?5li@ 100a38a0     interop.obj
 0002:000038cc       ??_C@_0CA@BPLHPOIJ@error?5during?5initialization?3?5?$CFs?$AA@ 100a38cc     interop.obj
 0002:000038ec       ??_C@_0CH@EKKEGGML@automatic?5extension?5loading?5fail@ 100a38ec     interop.obj
 0002:00003914       ??_C@_0BE@GNJIECAI@activate_extensions?$AA@ 100a3914     interop.obj
 0002:00003928       ??_C@_0P@MIBGKNHF@application_id?$AA@ 100a3928     interop.obj
 0002:00003938       ??_C@_0M@ENMLGDH@auto_vacuum?$AA@ 100a3938     interop.obj
 0002:00003944       ??_C@_0BA@NMINPKHE@automatic_index?$AA@ 100a3944     interop.obj
 0002:00003954       ??_C@_0N@ELBKLHHC@busy_timeout?$AA@ 100a3954     interop.obj
 0002:00003964       ??_C@_0L@JIGNFOJJ@cache_size?$AA@ 100a3964     interop.obj
 0002:00003970       ??_C@_0M@GAIOFEBI@cache_spill?$AA@ 100a3970     interop.obj
 0002:0000397c       ??_C@_0BE@LKBHCIHN@case_sensitive_like?$AA@ 100a397c     interop.obj
 0002:00003990       ??_C@_0BF@IOJNJBPA@checkpoint_fullfsync?$AA@ 100a3990     interop.obj
 0002:000039a8       ??_C@_0P@KOJNIGCH@collation_list?$AA@ 100a39a8     interop.obj
 0002:000039b8       ??_C@_0BA@CFJEIIDP@compile_options?$AA@ 100a39b8     interop.obj
 0002:000039c8       ??_C@_0O@PEBBJPHD@count_changes?$AA@ 100a39c8     interop.obj
 0002:000039d8       ??_C@_0BF@OGPCDMDP@data_store_directory?$AA@ 100a39d8     interop.obj
 0002:000039f0       ??_C@_0O@EBMNDACF@database_list?$AA@ 100a39f0     interop.obj
 0002:00003a00       ??_C@_0BD@EMJOENCP@default_cache_size?$AA@ 100a3a00     interop.obj
 0002:00003a14       ??_C@_0BD@DIGJFFIE@defer_foreign_keys?$AA@ 100a3a14     interop.obj
 0002:00003a28       ??_C@_0BH@CMLDBHJP@empty_result_callbacks?$AA@ 100a3a28     interop.obj
 0002:00003a40       ??_C@_08MLPGAEIK@encoding?$AA@ 100a3a40     interop.obj
 0002:00003a4c       ??_C@_0BC@CIFGNOOA@foreign_key_check?$AA@ 100a3a4c     interop.obj
 0002:00003a60       ??_C@_0BB@KJMCGNAI@foreign_key_list?$AA@ 100a3a60     interop.obj
 0002:00003a74       ??_C@_0N@CEEMEAMB@foreign_keys?$AA@ 100a3a74     interop.obj
 0002:00003a84       ??_C@_0P@GDKICNML@freelist_count?$AA@ 100a3a84     interop.obj
 0002:00003a94       ??_C@_0BC@CBBNFKC@full_column_names?$AA@ 100a3a94     interop.obj
 0002:00003aa8       ??_C@_09MLJLLBEB@fullfsync?$AA@ 100a3aa8     interop.obj
 0002:00003ab4       ??_C@_06BHJHKMJC@hexkey?$AA@ 100a3ab4     interop.obj
 0002:00003abc       ??_C@_08PCDPBHPP@hexrekey?$AA@ 100a3abc     interop.obj
 0002:00003ac8       ??_C@_0BJ@KLIMENGM@ignore_check_constraints?$AA@ 100a3ac8     interop.obj
 0002:00003ae4       ??_C@_0BD@IEMDKFHA@incremental_vacuum?$AA@ 100a3ae4     interop.obj
 0002:00003af8       ??_C@_0L@CKPANNIC@index_info?$AA@ 100a3af8     interop.obj
 0002:00003b04       ??_C@_0L@MMBMMAEK@index_list?$AA@ 100a3b04     interop.obj
 0002:00003b10       ??_C@_0BA@EDNFHOBJ@integrity_check?$AA@ 100a3b10     interop.obj
 0002:00003b20       ??_C@_0N@IPLFJDHP@journal_mode?$AA@ 100a3b20     interop.obj
 0002:00003b30       ??_C@_0BD@MCBLCGGI@journal_size_limit?$AA@ 100a3b30     interop.obj
 0002:00003b44       ??_C@_03ICHNJLJF@key?$AA@  100a3b44     interop.obj
 0002:00003b48       ??_C@_0BD@LEFOEGBK@legacy_file_format?$AA@ 100a3b48     interop.obj
 0002:00003b5c       ??_C@_0N@NOOMDJH@locking_mode?$AA@ 100a3b5c     interop.obj
 0002:00003b6c       ??_C@_0P@FMLMLOHD@max_page_count?$AA@ 100a3b6c     interop.obj
 0002:00003b7c       ??_C@_09CBABOEGE@mmap_size?$AA@ 100a3b7c     interop.obj
 0002:00003b88       ??_C@_0L@OBBCDPFM@page_count?$AA@ 100a3b88     interop.obj
 0002:00003b94       ??_C@_09OGOMKHMG@page_size?$AA@ 100a3b94     interop.obj
 0002:00003ba0       ??_C@_0L@LILGGAHH@query_only?$AA@ 100a3ba0     interop.obj
 0002:00003bac       ??_C@_0M@EDPCDMIO@quick_check?$AA@ 100a3bac     interop.obj
 0002:00003bb8       ??_C@_0BB@KLHJNGLH@read_uncommitted?$AA@ 100a3bb8     interop.obj
 0002:00003bcc       ??_C@_0BD@IAMNLMFM@recursive_triggers?$AA@ 100a3bcc     interop.obj
 0002:00003be0       ??_C@_05FMDLBNN@rekey?$AA@ 100a3be0     interop.obj
 0002:00003be8       ??_C@_0BK@ECMFJINF@reverse_unordered_selects?$AA@ 100a3be8     interop.obj
 0002:00003c04       ??_C@_0P@JGMMHBPP@schema_version?$AA@ 100a3c04     interop.obj
 0002:00003c14       ??_C@_0O@CPOJHNIK@secure_delete?$AA@ 100a3c14     interop.obj
 0002:00003c24       ??_C@_0BD@BFIEDLEP@short_column_names?$AA@ 100a3c24     interop.obj
 0002:00003c38       ??_C@_0O@ILHLPNHH@shrink_memory?$AA@ 100a3c38     interop.obj
 0002:00003c48       ??_C@_0BA@HCOALODB@soft_heap_limit?$AA@ 100a3c48     interop.obj
 0002:00003c58       ??_C@_05BLKJBNOD@stats?$AA@ 100a3c58     interop.obj
 0002:00003c60       ??_C@_0M@GKGFOGDE@synchronous?$AA@ 100a3c60     interop.obj
 0002:00003c6c       ??_C@_0L@NEMFJAGM@table_info?$AA@ 100a3c6c     interop.obj
 0002:00003c78       ??_C@_0L@JEPCDDIC@temp_store?$AA@ 100a3c78     interop.obj
 0002:00003c84       ??_C@_0BF@OPALIJKE@temp_store_directory?$AA@ 100a3c84     interop.obj
 0002:00003c9c       ??_C@_0N@MPKCHLKL@user_version?$AA@ 100a3c9c     interop.obj
 0002:00003cac       ??_C@_0BD@JPABJEAI@wal_autocheckpoint?$AA@ 100a3cac     interop.obj
 0002:00003cc0       ??_C@_0P@OLFGCBDE@wal_checkpoint?$AA@ 100a3cc0     interop.obj
 0002:00003cd0       ??_C@_0BA@OHBCLCAL@writable_schema?$AA@ 100a3cd0     interop.obj
 0002:00003ce0       ??_C@_09JJPHINFN@exclusive?$AA@ 100a3ce0     interop.obj
 0002:00003cec       ??_C@_06IKLLLDHL@normal?$AA@ 100a3cec     interop.obj
 0002:00003cf4       ??_C@_04CGFJFPFD@none?$AA@ 100a3cf4     interop.obj
 0002:00003cfc       ??_C@_04PLMLMMEO@full?$AA@ 100a3cfc     interop.obj
 0002:00003d04       ??_C@_0M@LPKHOAFP@incremental?$AA@ 100a3d04     interop.obj
 0002:00003d10       ??_C@_04DAMGJPCA@file?$AA@ 100a3d10     interop.obj
 0002:00003d18       ??_C@_06HLKELJGF@memory?$AA@ 100a3d18     interop.obj
 0002:00003d20       ??_C@_0DO@MAKCDDCJ@temporary?5storage?5cannot?5be?5chan@ 100a3d20     interop.obj
 0002:00003d60       ??_C@_08NNDOPPOM@SET?5NULL?$AA@ 100a3d60     interop.obj
 0002:00003d6c       ??_C@_0M@GCMLNHF@SET?5DEFAULT?$AA@ 100a3d6c     interop.obj
 0002:00003d78       ??_C@_07JDMPGCJB@CASCADE?$AA@ 100a3d78     interop.obj
 0002:00003d80       ??_C@_08KJMJNHDG@RESTRICT?$AA@ 100a3d80     interop.obj
 0002:00003d8c       ??_C@_09DBFINONP@NO?5ACTION?$AA@ 100a3d8c     interop.obj
 0002:00003d98       ??_C@_06FOBLBEIN@delete?$AA@ 100a3d98     interop.obj
 0002:00003da0       ??_C@_07EMFBDGOD@persist?$AA@ 100a3da0     interop.obj
 0002:00003da8       ??_C@_03MCADLMAF@off?$AA@  100a3da8     interop.obj
 0002:00003dac       ??_C@_08MABILMFG@truncate?$AA@ 100a3dac     interop.obj
 0002:00003db8       ??_C@_03KIAODNHK@wal?$AA@  100a3db8     interop.obj
 0002:00003dbc       ??_C@_03GMLCELFL@?9?$CFT?$AA@ 100a3dbc     interop.obj
 0002:00003dc0       ??_C@_06KJFADLGN@result?$AA@ 100a3dc0     interop.obj
 0002:00003dc8       ??_C@_0BJ@INLPNACB@not?5a?5writable?5directory?$AA@ 100a3dc8     interop.obj
 0002:00003de4       ??_C@_0DF@GMDBDCKL@Safety?5level?5may?5not?5be?5changed?5@ 100a3de4     interop.obj
 0002:00003e1c       ??_C@_03LBLPCGAC@cid?$AA@  100a3e1c     interop.obj
 0002:00003e20       ??_C@_04MEMAJGDJ@name?$AA@ 100a3e20     interop.obj
 0002:00003e28       ??_C@_04GPMDFGEJ@type?$AA@ 100a3e28     interop.obj
 0002:00003e30       ??_C@_07EAJHGOKJ@notnull?$AA@ 100a3e30     interop.obj
 0002:00003e38       ??_C@_0L@KNDFGGNJ@dflt_value?$AA@ 100a3e38     interop.obj
 0002:00003e44       ??_C@_02NCEGPMNB@pk?$AA@   100a3e44     interop.obj
 0002:00003e48       ??_C@_05IGKADHGO@width?$AA@ 100a3e48     interop.obj
 0002:00003e50       ??_C@_06LNLHEAAG@height?$AA@ 100a3e50     interop.obj
 0002:00003e58       ??_C@_05OBPGIPLF@seqno?$AA@ 100a3e58     interop.obj
 0002:00003e60       ??_C@_03NPAJGOON@seq?$AA@  100a3e60     interop.obj
 0002:00003e64       ??_C@_06ODCMFGLL@unique?$AA@ 100a3e64     interop.obj
 0002:00003e6c       ??_C@_02EGCJHIOB@id?$AA@   100a3e6c     interop.obj
 0002:00003e70       ??_C@_04HNEBHLOP@from?$AA@ 100a3e70     interop.obj
 0002:00003e78       ??_C@_02LBCDJBAJ@to?$AA@   100a3e78     interop.obj
 0002:00003e7c       ??_C@_09DFBGJPOA@on_update?$AA@ 100a3e7c     interop.obj
 0002:00003e88       ??_C@_09BILGEHCE@on_delete?$AA@ 100a3e88     interop.obj
 0002:00003e94       ??_C@_05FNONLPDI@match?$AA@ 100a3e94     interop.obj
 0002:00003e9c       ??_C@_04OKGDLNCL@NONE?$AA@ 100a3e9c     interop.obj
 0002:00003ea4       ??_C@_05KDMKNECD@rowid?$AA@ 100a3ea4     interop.obj
 0002:00003eac       ??_C@_06MLKDMCBD@parent?$AA@ 100a3eac     interop.obj
 0002:00003eb4       ??_C@_04IFBPKEAB@fkid?$AA@ 100a3eb4     interop.obj
 0002:00003ebc       ??_C@_0BI@FOLPKNAK@?$CK?$CK?$CK?5in?5database?5?$CFs?5?$CK?$CK?$CK?6?$AA@ 100a3ebc     interop.obj
 0002:00003ed4       ??_C@_04BNLAAGGP@row?5?$AA@ 100a3ed4     interop.obj
 0002:00003edc       ??_C@_0BF@JGBLFHJL@?5missing?5from?5index?5?$AA@ 100a3edc     interop.obj
 0002:00003ef4       ??_C@_0BN@JKHLHJNK@wrong?5?$CD?5of?5entries?5in?5index?5?$AA@ 100a3ef4     interop.obj
 0002:00003f14       ??_C@_02MFDMBIJM@ok?$AA@   100a3f14     interop.obj
 0002:00003f18       ??_C@_04OOMJJNCF@UTF8?$AA@ 100a3f18     interop.obj
 0002:00003f20       ??_C@_05EGJIMALK@UTF?98?$AA@ 100a3f20     interop.obj
 0002:00003f28       ??_C@_08HMPANPBC@UTF?916le?$AA@ 100a3f28     interop.obj
 0002:00003f34       ??_C@_08HGGOPCBI@UTF?916be?$AA@ 100a3f34     interop.obj
 0002:00003f40       ??_C@_07JJMGGCAM@UTF16le?$AA@ 100a3f40     interop.obj
 0002:00003f48       ??_C@_07JDFIEPAG@UTF16be?$AA@ 100a3f48     interop.obj
 0002:00003f50       ??_C@_06KNDPGIKI@UTF?916?$AA@ 100a3f50     interop.obj
 0002:00003f58       ??_C@_05MNCHLHCA@UTF16?$AA@ 100a3f58     interop.obj
 0002:00003f60       ??_C@_0BJ@GJBMJNNI@unsupported?5encoding?3?5?$CFs?$AA@ 100a3f60     interop.obj
 0002:00003f7c       ??_C@_0P@DCFGLPDE@compile_option?$AA@ 100a3f7c     interop.obj
 0002:00003f8c       ??_C@_07LDHOHMPD@restart?$AA@ 100a3f8c     interop.obj
 0002:00003f94       ??_C@_04COIEGINH@busy?$AA@ 100a3f94     interop.obj
 0002:00003f9c       ??_C@_03MGHMBJCF@log?$AA@  100a3f9c     interop.obj
 0002:00003fa0       ??_C@_0N@NLAOCFOK@checkpointed?$AA@ 100a3fa0     interop.obj
 0002:00003fb0       ??_C@_07DDHNKDGP@timeout?$AA@ 100a3fb0     interop.obj
 0002:00003fb8       ??_C@_04OFGBMGOI@see?9?$AA@ 100a3fb8     interop.obj
 0002:00003fc0       ??_C@_0BP@EHGGIFII@malformed?5database?5schema?5?$CI?$CFs?$CJ?$AA@ 100a3fc0     interop.obj
 0002:00003fe0       ??_C@_07FCJAGJJB@?$CFs?5?9?5?$CFs?$AA@ 100a3fe0     interop.obj
 0002:00003fe8       ??_C@_0BB@JDJPANJL@invalid?5rootpage?$AA@ 100a3fe8     interop.obj
 0002:00003ffc       ??_C@_0BI@FFDCNLCF@unsupported?5file?5format?$AA@ 100a3ffc     interop.obj
 0002:00004014       ??_C@_0DH@EMHOBABL@SELECT?5name?0?5rootpage?0?5sql?5FROM?5@ 100a4014     interop.obj
 0002:0000404c       ??_C@_0BO@EBFEALBC@database?5schema?5is?5locked?3?5?$CFs?$AA@ 100a404c     interop.obj
 0002:0000406c       ??_C@_0BD@NDJILONF@statement?5too?5long?$AA@ 100a406c     interop.obj
 0002:00004080       ??_C@_04HLBMEOMD@addr?$AA@ 100a4080     interop.obj
 0002:00004088       ??_C@_06POMMAHJK@opcode?$AA@ 100a4088     interop.obj
 0002:00004090       ??_C@_02JCBCEJAP@p1?$AA@   100a4090     interop.obj
 0002:00004094       ??_C@_02LJDPBKMM@p2?$AA@   100a4094     interop.obj
 0002:00004098       ??_C@_02KACECLIN@p3?$AA@   100a4098     interop.obj
 0002:0000409c       ??_C@_02OPGFLNEK@p4?$AA@   100a409c     interop.obj
 0002:000040a0       ??_C@_02PGHOIMAL@p5?$AA@   100a40a0     interop.obj
 0002:000040a4       ??_C@_07GJGNEJFD@comment?$AA@ 100a40a4     interop.obj
 0002:000040ac       ??_C@_08CAKEGGLM@selectid?$AA@ 100a40ac     interop.obj
 0002:000040b8       ??_C@_05NDNMCCJH@order?$AA@ 100a40b8     interop.obj
 0002:000040c0       ??_C@_06EENFNEPD@detail?$AA@ 100a40c0     interop.obj
 0002:000040c8       ??_C@_0CM@LOMFMKCH@unknown?5or?5unsupported?5join?5type@ 100a40c8     interop.obj
 0002:000040f4       ??_C@_0DH@LJEHIDDA@RIGHT?5and?5FULL?5OUTER?5JOINs?5are?5n@ 100a40f4     interop.obj
 0002:0000412c       ??_C@_0DC@NBGJANJH@a?5NATURAL?5join?5may?5not?5have?5an?5O@ 100a412c     interop.obj
 0002:00004160       ??_C@_0DH@DHMOHNCE@cannot?5have?5both?5ON?5and?5USING?5cl@ 100a4160     interop.obj
 0002:00004198       ??_C@_0EA@LFCKDDII@cannot?5join?5using?5column?5?$CFs?5?9?5co@ 100a4198     interop.obj
 0002:000041d8       ??_C@_0EI@FMCKEHHB@only?5a?5single?5result?5allowed?5for@ 100a41d8     interop.obj
 0002:00004220       ??_C@_09CDPONBKL@UNION?5ALL?$AA@ 100a4220     interop.obj
 0002:0000422c       ??_C@_09JBOBNLLF@INTERSECT?$AA@ 100a422c     interop.obj
 0002:00004238       ??_C@_06JFIPMMLD@EXCEPT?$AA@ 100a4238     interop.obj
 0002:00004240       ??_C@_05GJNJOPB@UNION?$AA@ 100a4240     interop.obj
 0002:00004248       ??_C@_0BH@JCGMDKCI@USE?5TEMP?5B?9TREE?5FOR?5?$CFs?$AA@ 100a4248     interop.obj
 0002:00004260       ??_C@_0BD@INMGDFNB@USING?5TEMP?5B?9TREE?5?$AA@ 100a4260     interop.obj
 0002:00004274       ??_C@_0CF@IFPCHLOK@COMPOUND?5SUBQUERIES?5?$CFd?5AND?5?$CFd?5?$CFs@ 100a4274     interop.obj
 0002:0000429c       ??_C@_08OHGGEHKA@column?$CFd?$AA@ 100a429c     interop.obj
 0002:000042a8       ??_C@_05HKPGCKL@?$CFs?3?$CFd?$AA@ 100a42a8     interop.obj
 0002:000042b0       ??_C@_0DA@GPNKNMMI@ORDER?5BY?5clause?5should?5come?5afte@ 100a42b0     interop.obj
 0002:000042e0       ??_C@_0CN@DDIHOHHL@LIMIT?5clause?5should?5come?5after?5?$CF@ 100a42e0     interop.obj
 0002:00004310       ??_C@_0CO@DAHFDIDO@all?5VALUES?5must?5have?5the?5same?5nu@ 100a4310     interop.obj
 0002:00004340       ??_C@_0FC@CMDCIIHA@SELECTs?5to?5the?5left?5and?5right?5of@ 100a4340     interop.obj
 0002:00004394       ??_C@_0BC@EHGCNIF@no?5such?5index?3?5?$CFs?$AA@ 100a4394     interop.obj
 0002:000043a8       ??_C@_0CL@CKHNGNG@multiple?5references?5to?5recursive@ 100a43a8     interop.obj
 0002:000043d4       ??_C@_0BH@IJPFMMLM@circular?5reference?3?5?$CFs?$AA@ 100a43d4     interop.obj
 0002:000043ec       ??_C@_0CG@GEPIMHHM@table?5?$CFs?5has?5?$CFd?5values?5for?5?$CFd?5co@ 100a43ec     interop.obj
 0002:00004414       ??_C@_0CC@BILCKNBO@multiple?5recursive?5references?3?5?$CF@ 100a4414     interop.obj
 0002:00004438       ??_C@_0CG@CINNECCN@recursive?5reference?5in?5a?5subquer@ 100a4438     interop.obj
 0002:00004460       ??_C@_0N@BEGMLOKI@sqlite_sq_?$CFp?$AA@ 100a4460     interop.obj
 0002:00004470       ??_C@_0CH@HMBFCKPN@too?5many?5references?5to?5?$CC?$CFs?$CC?3?5max@ 100a4470     interop.obj
 0002:00004498       ??_C@_01NBENCBCI@?$CK?$AA@ 100a4498     interop.obj
 0002:0000449c       ??_C@_08PPKHIAKG@?$CFs?4?$CFs?4?$CFs?$AA@ 100a449c     interop.obj
 0002:000044a8       ??_C@_0BC@OFCALFBN@no?5such?5table?3?5?$CFs?$AA@ 100a44a8     interop.obj
 0002:000044bc       ??_C@_0BE@EGLAAHPP@no?5tables?5specified?$AA@ 100a44bc     interop.obj
 0002:000044d0       ??_C@_0BP@JFMLENOH@too?5many?5columns?5in?5result?5set?$AA@ 100a44d0     interop.obj
 0002:000044f0       ??_C@_0DD@MKKFPBAF@DISTINCT?5aggregates?5must?5have?5ex@ 100a44f0     interop.obj
 0002:00004524       ??_C@_0BH@EIOOLNKK@?5USING?5COVERING?5INDEX?5?$AA@ 100a4524     interop.obj
 0002:0000453c       ??_C@_0BC@NNECCOGJ@SCAN?5TABLE?5?$CFs?$CFs?$CFs?$AA@ 100a453c     interop.obj
 0002:00004550       ??_C@_08KLFLGHKI@DISTINCT?$AA@ 100a4550     interop.obj
 0002:0000455c       ??_C@_08NKEADCLG@GROUP?5BY?$AA@ 100a455c     interop.obj
 0002:00004568       ??_C@_0BH@IOPKGOOF@RIGHT?5PART?5OF?5ORDER?5BY?$AA@ 100a4568     interop.obj
 0002:00004580       ??_C@_08BKIJJFKP@ORDER?5BY?$AA@ 100a4580     interop.obj
 0002:00004590       ??_C@_0EB@PHGCKHIG@sqlite3_get_table?$CI?$CJ?5called?5with?5@ 100a4590     interop.obj
 0002:000045d4       ??_C@_0CO@CGGBEMGD@temporary?5trigger?5may?5not?5have?5q@ 100a45d4     interop.obj
 0002:00004604       ??_C@_07DIDNFGDE@trigger?$AA@ 100a4604     interop.obj
 0002:0000460c       ??_C@_0CJ@KLDCMPKB@cannot?5create?5triggers?5on?5virtua@ 100a460c     interop.obj
 0002:00004638       ??_C@_0BK@IACDKJFA@trigger?5?$CFT?5already?5exists?$AA@ 100a4638     interop.obj
 0002:00004654       ??_C@_0CG@JAGCNIHD@cannot?5create?5trigger?5on?5system?5@ 100a4654     interop.obj
 0002:0000467c       ??_C@_06BIGAHLBC@BEFORE?$AA@ 100a467c     interop.obj
 0002:00004684       ??_C@_05OHDJMCHE@AFTER?$AA@ 100a4684     interop.obj
 0002:0000468c       ??_C@_0CF@CNPIEMED@cannot?5create?5?$CFs?5trigger?5on?5view@ 100a468c     interop.obj
 0002:000046b4       ??_C@_0CO@GJNALGCE@cannot?5create?5INSTEAD?5OF?5trigger@ 100a46b4     interop.obj
 0002:000046e8       ??_C@_0EA@IJNEMIHP@INSERT?5INTO?5?$CFQ?4?$CFs?5VALUES?$CI?8trigge@ 100a46e8     interop.obj
 0002:00004728       ??_C@_0BN@JFPIJHCG@type?$DN?8trigger?8?5AND?5name?$DN?8?$CFq?8?$AA@ 100a4728     interop.obj
 0002:00004748       ??_C@_0BE@ELCABEID@no?5such?5trigger?3?5?$CFS?$AA@ 100a4748     interop.obj
 0002:0000475c       ??_C@_0O@JKBKLFDA@?9?9?5TRIGGER?5?$CFs?$AA@ 100a475c     interop.obj
 0002:0000476c       ??_C@_0BD@IEIMFPKF@no?5such?5column?3?5?$CFs?$AA@ 100a476c     interop.obj
 0002:00004780       ??_C@_0N@KMEMLEEO@rows?5updated?$AA@ 100a4780     interop.obj
 0002:00004790       ??_C@_07OLKPBLEA@_rowid_?$AA@ 100a4790     interop.obj
 0002:00004798       ??_C@_0CI@CPMJIPOI@cannot?5VACUUM?5from?5within?5a?5tran@ 100a4798     interop.obj
 0002:000047c0       ??_C@_0CL@HKLPPLKM@cannot?5VACUUM?5?9?5SQL?5statements?5i@ 100a47c0     interop.obj
 0002:000047ec       ??_C@_0CA@LDLCFKGD@ATTACH?5?8?3memory?3?8?5AS?5vacuum_db?$DL?$AA@ 100a47ec     interop.obj
 0002:0000480c       ??_C@_0BI@OOHLJPLG@ATTACH?5?8?8?5AS?5vacuum_db?$DL?$AA@ 100a480c     interop.obj
 0002:00004824       ??_C@_0CB@NBNOHMDI@PRAGMA?5vacuum_db?4synchronous?$DNOFF@ 100a4824     interop.obj
 0002:00004848       ??_C@_06KEOLADBC@BEGIN?$DL?$AA@ 100a4848     interop.obj
 0002:00004850       ??_C@_0JE@NGIHIELL@SELECT?5?8CREATE?5TABLE?5vacuum_db?4?8@ 100a4850     interop.obj
 0002:000048e8       ??_C@_0GI@FEDHFMIE@SELECT?5?8CREATE?5INDEX?5vacuum_db?4?8@ 100a48e8     interop.obj
 0002:00004950       ??_C@_0HG@GKDDPPFI@SELECT?5?8CREATE?5UNIQUE?5INDEX?5vacu@ 100a4950     interop.obj
 0002:000049c8       ??_C@_0ME@JFICNLPL@SELECT?5?8INSERT?5INTO?5vacuum_db?4?8?5@ 100a49c8     interop.obj
 0002:00004a90       ??_C@_0HB@CJENIKHO@SELECT?5?8DELETE?5FROM?5vacuum_db?4?8?5@ 100a4a90     interop.obj
 0002:00004b08       ??_C@_0JL@BNIMKHIL@SELECT?5?8INSERT?5INTO?5vacuum_db?4?8?5@ 100a4b08     interop.obj
 0002:00004ba8       ??_C@_0LI@DFGNFIOM@INSERT?5INTO?5vacuum_db?4sqlite_mas@ 100a4ba8     interop.obj
 0002:00004c60       ??_C@_0BI@PDMEEOA@CREATE?5VIRTUAL?5TABLE?5?$CFT?$AA@ 100a4c60     interop.obj
 0002:00004c78       ??_C@_0FI@IFIJAFLJ@UPDATE?5?$CFQ?4?$CFs?5SET?5type?$DN?8table?8?0?5n@ 100a4c78     interop.obj
 0002:00004cd0       ??_C@_0BL@DGMACLBE@name?$DN?8?$CFq?8?5AND?5type?$DN?8table?8?$AA@ 100a4cd0     interop.obj
 0002:00004cec       ??_C@_0BO@DEKEKMPI@vtable?5constructor?5failed?3?5?$CFs?$AA@ 100a4cec     interop.obj
 0002:00004d0c       ??_C@_0CO@NAIIFAKI@vtable?5constructor?5did?5not?5decla@ 100a4d0c     interop.obj
 0002:00004d3c       ??_C@_06JIKFICKK@hidden?$AA@ 100a4d3c     interop.obj
 0002:00004d44       ??_C@_07JJJNOAOL@?5hidden?$AA@ 100a4d44     interop.obj
 0002:00004d4c       ??_C@_0BD@KBJCCNMM@no?5such?5module?3?5?$CFs?$AA@ 100a4d4c     interop.obj
 0002:00004d60       ??_C@_06FHKGKAHE@NOCASE?$AA@ 100a4d60     interop.obj
 0002:00004d68       ??_C@_0BK@FFCJJLEP@automatic?5index?5on?5?$CFs?$CI?$CFs?$CJ?$AA@ 100a4d68     interop.obj
 0002:00004d84       ??_C@_0L@LOLDMHK@auto?9index?$AA@ 100a4d84     interop.obj
 0002:00004d90       ??_C@_0CO@KDPCLLKJ@table?5?$CFs?3?5xBestIndex?5returned?5an@ 100a4d90     interop.obj
 0002:00004dc0       ??_C@_05LFNOAECD@?5AND?5?$AA@ 100a4dc0     interop.obj
 0002:00004dc8       ??_C@_02GFKOMOKH@?5?$CI?$AA@ 100a4dc8     interop.obj
 0002:00004dcc       ??_C@_01NEMOKFLO@?$DN?$AA@ 100a4dcc     interop.obj
 0002:00004dd0       ??_C@_04BJLFONIA@ANY?$CI?$AA@ 100a4dd0     interop.obj
 0002:00004dd8       ??_C@_01PPODPGHN@?$DO?$AA@ 100a4dd8     interop.obj
 0002:00004ddc       ??_C@_01MNNFJEPP@?$DM?$AA@ 100a4ddc     interop.obj
 0002:00004de0       ??_C@_06GBNAAIDA@SEARCH?$AA@ 100a4de0     interop.obj
 0002:00004de8       ??_C@_04NAGNMPFG@SCAN?$AA@ 100a4de8     interop.obj
 0002:00004df0       ??_C@_0P@OLOBPMPI@?$CFs?5SUBQUERY?5?$CFd?$AA@ 100a4df0     interop.obj
 0002:00004e00       ??_C@_0M@EHBHAICN@?$CFs?5TABLE?5?$CFs?$AA@ 100a4e00     interop.obj
 0002:00004e0c       ??_C@_08BNODOOIA@?$CFs?5AS?5?$CFs?$AA@ 100a4e0c     interop.obj
 0002:00004e18       ??_C@_0BL@CAIONPJL@?$CFs?5USING?5PRIMARY?5KEY?$CF?40s?$CFs?$AA@ 100a4e18     interop.obj
 0002:00004e34       ??_C@_08LBFDNBHJ@?$CFs?$CF?40s?$CFs?$AA@ 100a4e34     interop.obj
 0002:00004e40       ??_C@_0CI@CGFHOIHL@?$CFs?5USING?5AUTOMATIC?5COVERING?5INDE@ 100a4e40     interop.obj
 0002:00004e68       ??_C@_0BN@KMHDIAOG@?$CFs?5USING?5COVERING?5INDEX?5?$CFs?$CFs?$AA@ 100a4e68     interop.obj
 0002:00004e88       ??_C@_0BE@GEBCLIBH@?$CFs?5USING?5INDEX?5?$CFs?$CFs?$AA@ 100a4e88     interop.obj
 0002:00004e9c       ??_C@_0BN@POCKMKPK@?$CFs?5USING?5INTEGER?5PRIMARY?5KEY?$AA@ 100a4e9c     interop.obj
 0002:00004ebc       ??_C@_0N@DDAPLKI@?$CFs?5?$CIrowid?$DN?$DP?$CJ?$AA@ 100a4ebc     interop.obj
 0002:00004ecc       ??_C@_0BJ@POOJNAFN@?$CFs?5?$CIrowid?$DO?$DP?5AND?5rowid?$DM?$DP?$CJ?$AA@ 100a4ecc     interop.obj
 0002:00004ee8       ??_C@_0N@BBIFFEEG@?$CFs?5?$CIrowid?$DO?$DP?$CJ?$AA@ 100a4ee8     interop.obj
 0002:00004ef8       ??_C@_0N@LLIMJMMN@?$CFs?5?$CIrowid?$DM?$DP?$CJ?$AA@ 100a4ef8     interop.obj
 0002:00004f08       ??_C@_0BN@GEIFLGHO@?$CFs?5VIRTUAL?5TABLE?5INDEX?5?$CFd?3?$CFs?$AA@ 100a4f08     interop.obj
 0002:00004f28       ??_C@_0BM@EOHFJGOC@?$CFs?4xBestIndex?$CI?$CJ?5malfunction?$AA@ 100a4f28     interop.obj
 0002:00004f44       ??_C@_0BC@CBDLPDHH@no?5query?5solution?$AA@ 100a4f44     interop.obj
 0002:00004f58       ??_C@_0BM@BLDEAGOK@at?5most?5?$CFd?5tables?5in?5a?5join?$AA@ 100a4f58     interop.obj
 0002:00004f74       ??_C@_0BG@FMAEELCM@parser?5stack?5overflow?$AA@ 100a4f74     interop.obj
 0002:00004f8c       ??_C@_0BL@DBADNDMB@unknown?5table?5option?3?5?$CF?4?$CKs?$AA@ 100a4f8c     interop.obj
 0002:00004fa8       ??_C@_0CC@DHLFNDIF@too?5many?5terms?5in?5compound?5SELEC@ 100a4fa8     interop.obj
 0002:00004fcc       ??_C@_08FAFAADKO@set?5list?$AA@ 100a4fcc     interop.obj
 0002:00004fd8       ??_C@_0BI@CBJKLAIG@near?5?$CC?$CFT?$CC?3?5syntax?5error?$AA@ 100a4fd8     interop.obj
 0002:00004ff0       ??_C@_0CC@BHLMPGNH@too?5many?5arguments?5on?5function?5?$CF@ 100a4ff0     interop.obj
 0002:00005018       ??_C@_0FP@BDHEAEAL@qualified?5table?5names?5are?5not?5al@ 100a5018     interop.obj
 0002:00005078       ??_C@_0FE@ONDNFGPP@the?5INDEXED?5BY?5clause?5is?5not?5all@ 100a5078     interop.obj
 0002:000050d0       ??_C@_0FF@IPEGLKPG@the?5NOT?5INDEXED?5clause?5is?5not?5al@ 100a50d0     interop.obj
 0002:00005128       ??_C@_09NCAJIFEE@interrupt?$AA@ 100a5128     interop.obj
 0002:00005134       ??_C@_0BJ@EMNEDDKJ@unrecognized?5token?3?5?$CC?$CFT?$CC?$AA@ 100a5134     interop.obj
 0002:00005150       ??_C@_06HBNONAG@create?$AA@ 100a5150     interop.obj
 0002:00005158       ??_C@_04FGEHGIFJ@temp?$AA@ 100a5158     interop.obj
 0002:00005160       ??_C@_09CAHPDAG@temporary?$AA@ 100a5160     interop.obj
 0002:0000516c       ??_C@_03JBJLGPFL@end?$AA@  100a516c     interop.obj
 0002:00005170       ??_C@_07LFFDKBGI@explain?$AA@ 100a5170     interop.obj
 0002:00005178       ??_C@_0DN@PHKBKMEN@2014?906?904?514?306?334?5b1ed4f2a34ba@ 100a5178     interop.obj
 0002:000051b8       ??_C@_0EE@DHFGJPIC@unable?5to?5close?5due?5to?5unfinaliz@ 100a51b8     interop.obj
 0002:000051fc       ??_C@_0N@FKKFHCIB@not?5an?5error?$AA@ 100a51fc     interop.obj
 0002:0000520c       ??_C@_0CE@BCMAPMOL@SQL?5logic?5error?5or?5missing?5datab@ 100a520c     interop.obj
 0002:00005230       ??_C@_0BJ@OFHFLJKH@access?5permission?5denied?$AA@ 100a5230     interop.obj
 0002:0000524c       ??_C@_0BP@BFMDEDKN@callback?5requested?5query?5abort?$AA@ 100a524c     interop.obj
 0002:0000526c       ??_C@_0BD@DAAAMHOI@database?5is?5locked?$AA@ 100a526c     interop.obj
 0002:00005280       ??_C@_0BJ@DNPONIEG@database?5table?5is?5locked?$AA@ 100a5280     interop.obj
 0002:0000529c       ??_C@_0CF@JBLJEMGC@attempt?5to?5write?5a?5readonly?5data@ 100a529c     interop.obj
 0002:000052c4       ??_C@_0M@EGEKIIMP@interrupted?$AA@ 100a52c4     interop.obj
 0002:000052d0       ??_C@_0P@FOPPKBJH@disk?5I?1O?5error?$AA@ 100a52d0     interop.obj
 0002:000052e0       ??_C@_0CB@ONDDCPGK@database?5disk?5image?5is?5malformed@ 100a52e0     interop.obj
 0002:00005304       ??_C@_0BC@BDMDPLFD@unknown?5operation?$AA@ 100a5304     interop.obj
 0002:00005318       ??_C@_0BJ@GDNBBAEL@database?5or?5disk?5is?5full?$AA@ 100a5318     interop.obj
 0002:00005334       ??_C@_0BN@JLONMGIA@unable?5to?5open?5database?5file?$AA@ 100a5334     interop.obj
 0002:00005354       ??_C@_0BB@MCPOJJBB@locking?5protocol?$AA@ 100a5354     interop.obj
 0002:00005368       ??_C@_0BH@OCNELEJF@table?5contains?5no?5data?$AA@ 100a5368     interop.obj
 0002:00005380       ??_C@_0BC@IFKPGMGK@constraint?5failed?$AA@ 100a5380     interop.obj
 0002:00005394       ??_C@_0BC@FILINGOB@datatype?5mismatch?$AA@ 100a5394     interop.obj
 0002:000053a8       ??_C@_0CH@GCDGLLPA@library?5routine?5called?5out?5of?5se@ 100a53a8     interop.obj
 0002:000053d0       ??_C@_0BP@GMDPJID@large?5file?5support?5is?5disabled?$AA@ 100a53d0     interop.obj
 0002:000053f0       ??_C@_0BF@LMCDAPDN@authorization?5denied?$AA@ 100a53f0     interop.obj
 0002:00005408       ??_C@_0CA@DBBJFBEG@auxiliary?5database?5format?5error?$AA@ 100a5408     interop.obj
 0002:00005428       ??_C@_0CC@OHMKLHEA@bind?5or?5column?5index?5out?5of?5rang@ 100a5428     interop.obj
 0002:0000544c       ??_C@_0CH@JKOMOHHH@file?5is?5encrypted?5or?5is?5not?5a?5da@ 100a544c     interop.obj
 0002:00005474       ??_C@_0O@BFJCFAAK@unknown?5error?$AA@ 100a5474     interop.obj
 0002:00005484       ??_C@_0BG@MJDEINHO@abort?5due?5to?5ROLLBACK?$AA@ 100a5484     interop.obj
 0002:0000549c       ??_C@_0DP@BDIELDAF@unable?5to?5delete?1modify?5user?9fun@ 100a549c     interop.obj
 0002:000054dc       ??_C@_0BF@HAJMIPDB@unknown?5database?3?5?$CFs?$AA@ 100a54dc     interop.obj
 0002:000054f8       ??_C@_0EE@IKACNBHK@unable?5to?5delete?1modify?5collatio@ 100a54f8     interop.obj
 0002:0000553c       ??_C@_0BM@COJKMEBB@invalid?5uri?5authority?3?5?$CF?4?$CKs?$AA@ 100a553c     interop.obj
 0002:00005558       ??_C@_05BDNCCAMC@cache?$AA@ 100a5558     interop.obj
 0002:00005560       ??_C@_06HBFNPGIC@shared?$AA@ 100a5560     interop.obj
 0002:00005568       ??_C@_07NMPLPEPB@private?$AA@ 100a5568     interop.obj
 0002:00005570       ??_C@_04GMGOKAFF@mode?$AA@ 100a5570     interop.obj
 0002:00005578       ??_C@_02LFKOONLL@ro?$AA@   100a5578     interop.obj
 0002:0000557c       ??_C@_02DHLFHFOC@rw?$AA@   100a557c     interop.obj
 0002:00005580       ??_C@_03ODAOEF@rwc?$AA@    100a5580     interop.obj
 0002:00005584       ??_C@_06EBPNOMLE@access?$AA@ 100a5584     interop.obj
 0002:0000558c       ??_C@_0BE@CEDEHNFE@no?5such?5?$CFs?5mode?3?5?$CFs?$AA@ 100a558c     interop.obj
 0002:000055a0       ??_C@_0BI@PGEAHBFI@?$CFs?5mode?5not?5allowed?3?5?$CFs?$AA@ 100a55a0     interop.obj
 0002:000055b8       ??_C@_0BA@JNKNNOBA@no?5such?5vfs?3?5?$CFs?$AA@ 100a55b8     interop.obj
 0002:000055c8       ??_C@_05JJHANOIF@RTRIM?$AA@ 100a55c8     interop.obj
 0002:000055d0       ??_C@_04GHJNJNPO@main?$AA@ 100a55d0     interop.obj
 0002:000055d8       ??_C@_0CK@EFFGEIFI@database?5corruption?5at?5line?5?$CFd?5o@ 100a55d8     interop.obj
 0002:00005604       ??_C@_0BN@JFEBGPPP@misuse?5at?5line?5?$CFd?5of?5?$FL?$CF?410s?$FN?$AA@ 100a5604     interop.obj
 0002:00005624       ??_C@_0CH@CFKHNID@cannot?5open?5file?5at?5line?5?$CFd?5of?5?$FL@ 100a5624     interop.obj
 0002:0000564c       ??_C@_0BM@OILBPENI@no?5such?5table?5column?3?5?$CFs?4?$CFs?$AA@ 100a564c     interop.obj
 0002:00005668       ??_C@_0CF@JMBAPJDM@DROP?5TABLE?5IF?5EXISTS?5?$CFQ?4?8?$CFq_cont@ 100a5668     interop.obj
 0002:00005690       ??_C@_0CG@MBAKJBDH@DROP?5TABLE?5IF?5EXISTS?5?$CFQ?4?8?$CFq_segm@ 100a5690     interop.obj
 0002:000056b8       ??_C@_0CE@ONKNGDLL@DROP?5TABLE?5IF?5EXISTS?5?$CFQ?4?8?$CFq_segd@ 100a56b8     interop.obj
 0002:000056dc       ??_C@_0CF@IDMMCBAD@DROP?5TABLE?5IF?5EXISTS?5?$CFQ?4?8?$CFq_docs@ 100a56dc     interop.obj
 0002:00005704       ??_C@_0CC@IOIKPJHP@DROP?5TABLE?5IF?5EXISTS?5?$CFQ?4?8?$CFq_stat@ 100a5704     interop.obj
 0002:00005728       ??_C@_08HBMBCGGI@__langid?$AA@ 100a5728     interop.obj
 0002:00005734       ??_C@_04OHJOFLHH@?$CFQ?0?5?$AA@ 100a5734     interop.obj
 0002:0000573c       ??_C@_06ILOMELII@?$CFz?$CFQ?0?5?$AA@ 100a573c     interop.obj
 0002:00005744       ??_C@_0DG@KNNCMIAK@CREATE?5TABLE?5x?$CI?$CFs?5?$CFQ?5HIDDEN?0?5doc@ 100a5744     interop.obj
 0002:00005780       ??_C@_0EN@BNJDGKOP@CREATE?5TABLE?5IF?5NOT?5EXISTS?5?$CFQ?4?8?$CF@ 100a5780     interop.obj
 0002:000057d0       ??_C@_0BK@ILPNCKDD@docid?5INTEGER?5PRIMARY?5KEY?$AA@ 100a57d0     interop.obj
 0002:000057ec       ??_C@_0M@KFIBGJMD@?$CFz?0?5?8c?$CFd?$CFq?8?$AA@ 100a57ec     interop.obj
 0002:000057f8       ??_C@_0L@FGLBMJMC@?$CFz?0?5langid?$AA@ 100a57f8     interop.obj
 0002:00005804       ??_C@_0CB@GGGOGPJJ@CREATE?5TABLE?5?$CFQ?4?8?$CFq_content?8?$CI?$CFs?$CJ@ 100a5804     interop.obj
 0002:00005828       ??_C@_0EI@JJJNEMPK@CREATE?5TABLE?5?$CFQ?4?8?$CFq_segments?8?$CIbl@ 100a5828     interop.obj
 0002:00005870       ??_C@_0JJ@EINNGPFL@CREATE?5TABLE?5?$CFQ?4?8?$CFq_segdir?8?$CIleve@ 100a5870     interop.obj
 0002:00005910       ??_C@_0EE@MDIIHKIJ@CREATE?5TABLE?5?$CFQ?4?8?$CFq_docsize?8?$CIdoc@ 100a5910     interop.obj
 0002:00005954       ??_C@_0BE@JJENHHFJ@PRAGMA?5?$CFQ?4page_size?$AA@ 100a5954     interop.obj
 0002:00005968       ??_C@_05KJDOPFGN@docid?$AA@ 100a5968     interop.obj
 0002:00005970       ??_C@_0P@LFFPPLAI@?0?$CFs?$CIx?4?8c?$CFd?$CFq?8?$CJ?$AA@ 100a5970     interop.obj
 0002:00005980       ??_C@_06CLEJICHF@langid?$AA@ 100a5980     interop.obj
 0002:00005988       ??_C@_06HJELONEC@?0?5x?4?$CFQ?$AA@ 100a5988     interop.obj
 0002:00005990       ??_C@_08NJPBOKA@?0?5x?4?8?$CFq?8?$AA@ 100a5990     interop.obj
 0002:0000599c       ??_C@_08KMMJILGO@_content?$AA@ 100a599c     interop.obj
 0002:000059a8       ??_C@_0BH@DJGBFAID@?5FROM?5?8?$CFq?8?4?8?$CFq?$CFs?8?5AS?5x?$AA@ 100a59a8     interop.obj
 0002:000059c0       ??_C@_06INGKMHGE@?0?$CFs?$CI?$DP?$CJ?$AA@ 100a59c0     interop.obj
 0002:000059c8       ??_C@_03FEMMFMLJ@?0?5?$DP?$AA@ 100a59c8     interop.obj
 0002:000059cc       ??_C@_0BE@NJEPGLOD@SELECT?5?$CK?5FROM?5?$CFQ?4?$CFQ?$AA@ 100a59cc     interop.obj
 0002:000059e0       ??_C@_08ENDKEOKI@tokenize?$AA@ 100a59e0     interop.obj
 0002:000059ec       ??_C@_09OEHDJMHN@matchinfo?$AA@ 100a59ec     interop.obj
 0002:000059f8       ??_C@_06CHGOAPND@prefix?$AA@ 100a59f8     interop.obj
 0002:00005a00       ??_C@_08EJNPIMGB@compress?$AA@ 100a5a00     interop.obj
 0002:00005a0c       ??_C@_0L@IEAKODFB@uncompress?$AA@ 100a5a0c     interop.obj
 0002:00005a18       ??_C@_07ICAJMOAO@content?$AA@ 100a5a18     interop.obj
 0002:00005a20       ??_C@_0L@KCJJAHCF@languageid?$AA@ 100a5a20     interop.obj
 0002:00005a2c       ??_C@_0L@CMOFCIEL@notindexed?$AA@ 100a5a2c     interop.obj
 0002:00005a38       ??_C@_0BL@LDDPBJJP@unrecognized?5parameter?3?5?$CFs?$AA@ 100a5a38     interop.obj
 0002:00005a54       ??_C@_04GJCOAOPN@fts3?$AA@ 100a5a54     interop.obj
 0002:00005a5c       ??_C@_0BL@LGOAFHOC@unrecognized?5matchinfo?3?5?$CFs?$AA@ 100a5a5c     interop.obj
 0002:00005a78       ??_C@_03EFEGFOOI@asc?$AA@  100a5a78     interop.obj
 0002:00005a7c       ??_C@_04EBPADADD@desc?$AA@ 100a5a7c     interop.obj
 0002:00005a84       ??_C@_0BH@DEFIELBN@unrecognized?5order?3?5?$CFs?$AA@ 100a5a84     interop.obj
 0002:00005a9c       ??_C@_06MDDCAKGD@simple?$AA@ 100a5a9c     interop.obj
 0002:00005aa4       ??_C@_0CD@HIKDEBHJ@error?5parsing?5prefix?5parameter?3?5@ 100a5aa4     interop.obj
 0002:00005ac8       ??_C@_0CJ@LIAMDBLK@missing?5?$CFs?5parameter?5in?5fts4?5con@ 100a5ac8     interop.obj
 0002:00005af4       ??_C@_04INMKNCEL@DESC?$AA@ 100a5af4     interop.obj
 0002:00005afc       ??_C@_03EILNJDJE@ASC?$AA@  100a5afc     interop.obj
 0002:00005b00       ??_C@_0BK@DAHJKJOI@SELECT?5?$CFs?5WHERE?5rowid?5?$DN?5?$DP?$AA@ 100a5b00     interop.obj
 0002:00005b1c       ??_C@_0BM@EFGHBBLP@SELECT?5?$CFs?5ORDER?5BY?5rowid?5?$CFs?$AA@ 100a5b1c     interop.obj
 0002:00005b38       ??_C@_0DI@KJNDNABI@SELECT?51?5FROM?5?$CFQ?4sqlite_master?5W@ 100a5b38     interop.obj
 0002:00005b70       ??_C@_0BN@HNFGPPAE@illegal?5first?5argument?5to?5?$CFs?$AA@ 100a5b70     interop.obj
 0002:00005b90       ??_C@_03GONAGDMJ@?$DMb?$DO?$AA@ 100a5b90     interop.obj
 0002:00005b94       ??_C@_04KPMLOGDO@?$DM?1b?$DO?$AA@ 100a5b94     interop.obj
 0002:00005b9c       ??_C@_0L@FNCHOAPK@?$DMb?$DO?4?4?4?$DM?1b?$DO?$AA@ 100a5b9c     interop.obj
 0002:00005ba8       ??_C@_0DA@BPKHEBAA@wrong?5number?5of?5arguments?5to?5fun@ 100a5ba8     interop.obj
 0002:00005bd8       ??_C@_07NLNCCKKF@snippet?$AA@ 100a5bd8     interop.obj
 0002:00005be0       ??_C@_07EALNHAIO@offsets?$AA@ 100a5be0     interop.obj
 0002:00005be8       ??_C@_08GHMAOHAP@optimize?$AA@ 100a5be8     interop.obj
 0002:00005bf4       ??_C@_0BA@OAEHOEOG@Index?5optimized?$AA@ 100a5bf4     interop.obj
 0002:00005c04       ??_C@_0BG@LMCLNKNA@Index?5already?5optimal?$AA@ 100a5c04     interop.obj
 0002:00005c1c       ??_C@_0DF@DCFHAMLC@ALTER?5TABLE?5?$CFQ?4?8?$CFq_content?8?5?5REN@ 100a5c1c     interop.obj
 0002:00005c54       ??_C@_0DF@DCOLKKAO@ALTER?5TABLE?5?$CFQ?4?8?$CFq_docsize?8?5?5REN@ 100a5c54     interop.obj
 0002:00005c8c       ??_C@_0CP@CGFDJKNC@ALTER?5TABLE?5?$CFQ?4?8?$CFq_stat?8?5?5RENAME@ 100a5c8c     interop.obj
 0002:00005cbc       ??_C@_0DG@DAAAGDKF@ALTER?5TABLE?5?$CFQ?4?8?$CFq_segments?8?5REN@ 100a5cbc     interop.obj
 0002:00005cf4       ??_C@_0DE@LHKMPNFJ@ALTER?5TABLE?5?$CFQ?4?8?$CFq_segdir?8?5?5?5REN@ 100a5cf4     interop.obj
 0002:00005d28       ??_C@_06EDADNLPO@porter?$AA@ 100a5d28     interop.obj
 0002:00005d30       ??_C@_0P@ONNIBBGC@fts3_tokenizer?$AA@ 100a5d30     interop.obj
 0002:00005d40       ??_C@_04CGGPJIDK@fts4?$AA@ 100a5d40     interop.obj
 0002:00005d48       ??_C@_0EF@OOGFNENA@CREATE?5TABLE?5x?$CIterm?0?5col?0?5docume@ 100a5d48     interop.obj
 0002:00005d90       ??_C@_0CJ@KNMGIKGK@invalid?5arguments?5to?5fts4aux?5con@ 100a5d90     interop.obj
 0002:00005dbc       ??_C@_07HLCPNFJI@fts4aux?$AA@ 100a5dbc     interop.obj
 0002:00005dc4       ??_C@_02PDPFNDMG@OR?$AA@   100a5dc4     interop.obj
 0002:00005dc8       ??_C@_03BDACDFHA@AND?$AA@  100a5dc8     interop.obj
 0002:00005dcc       ??_C@_03GBFNEA@NOT?$AA@    100a5dcc     interop.obj
 0002:00005dd0       ??_C@_04ILABJOOE@NEAR?$AA@ 100a5dd0     interop.obj
 0002:00005dd8       ??_C@_0DE@GLAEHGBM@FTS?5expression?5tree?5is?5too?5large@ 100a5dd8     interop.obj
 0002:00005e0c       ??_C@_0CB@FOEJOLMC@malformed?5MATCH?5expression?3?5?$FL?$CFs?$FN@ 100a5e0c     interop.obj
 0002:00005e30       ??_C@_02FCBLNKNB@ss?$AA@   100a5e30     interop.obj
 0002:00005e34       ??_C@_04NJPCGJPA@sess?$AA@ 100a5e34     interop.obj
 0002:00005e3c       ??_C@_01KBJDNOO@i?$AA@     100a5e3c     interop.obj
 0002:00005e40       ??_C@_03FNBCPGLE@sei?$AA@  100a5e40     interop.obj
 0002:00005e44       ??_C@_02FGCILAME@ee?$AA@   100a5e44     interop.obj
 0002:00005e48       ??_C@_03DMGJNGJO@dee?$AA@  100a5e48     interop.obj
 0002:00005e4c       ??_C@_03IODMNJJN@gni?$AA@  100a5e4c     interop.obj
 0002:00005e50       ??_C@_02FHOKNKPD@de?$AA@   100a5e50     interop.obj
 0002:00005e54       ??_C@_03BGFDOPOL@ate?$AA@  100a5e54     interop.obj
 0002:00005e58       ??_C@_02CPKALMIH@ta?$AA@   100a5e58     interop.obj
 0002:00005e5c       ??_C@_03BGNDLCMN@ble?$AA@  100a5e5c     interop.obj
 0002:00005e60       ??_C@_02BGLIBNIM@lb?$AA@   100a5e60     interop.obj
 0002:00005e64       ??_C@_03NJHJOKAO@ize?$AA@  100a5e64     interop.obj
 0002:00005e68       ??_C@_02ONOHBLIF@zi?$AA@   100a5e68     interop.obj
 0002:00005e6c       ??_C@_07HAPEHOGG@lanoita?$AA@ 100a5e6c     interop.obj
 0002:00005e74       ??_C@_04MLFEDMFA@tion?$AA@ 100a5e74     interop.obj
 0002:00005e7c       ??_C@_06KEDPLIML@lanoit?$AA@ 100a5e7c     interop.obj
 0002:00005e84       ??_C@_04OBONJKHE@ence?$AA@ 100a5e84     interop.obj
 0002:00005e8c       ??_C@_04NOKPDMPL@icne?$AA@ 100a5e8c     interop.obj
 0002:00005e94       ??_C@_04BEGNDMLE@ance?$AA@ 100a5e94     interop.obj
 0002:00005e9c       ??_C@_04LKMDPJPP@icna?$AA@ 100a5e9c     interop.obj
 0002:00005ea4       ??_C@_04FLGOIBBE@rezi?$AA@ 100a5ea4     interop.obj
 0002:00005eac       ??_C@_04IBMNHKNC@igol?$AA@ 100a5eac     interop.obj
 0002:00005eb4       ??_C@_03IOJDKDAL@ilb?$AA@  100a5eb4     interop.obj
 0002:00005eb8       ??_C@_02IAODKDFB@al?$AA@   100a5eb8     interop.obj
 0002:00005ebc       ??_C@_04OBCEDNMH@illa?$AA@ 100a5ebc     interop.obj
 0002:00005ec4       ??_C@_03NLFJHNAK@ent?$AA@  100a5ec4     interop.obj
 0002:00005ec8       ??_C@_05IDJKNEIB@iltne?$AA@ 100a5ec8     interop.obj
 0002:00005ed0       ??_C@_01KGKMHCOC@e?$AA@    100a5ed0     interop.obj
 0002:00005ed4       ??_C@_03MBNCDFMM@ile?$AA@  100a5ed4     interop.obj
 0002:00005ed8       ??_C@_03OLNGEHDI@ous?$AA@  100a5ed8     interop.obj
 0002:00005edc       ??_C@_05PENBEICD@ilsuo?$AA@ 100a5edc     interop.obj
 0002:00005ee4       ??_C@_07GPCIBLIA@noitazi?$AA@ 100a5ee4     interop.obj
 0002:00005eec       ??_C@_05OJBPCAJ@noita?$AA@ 100a5eec     interop.obj
 0002:00005ef4       ??_C@_04PGJEMGHC@rota?$AA@ 100a5ef4     interop.obj
 0002:00005efc       ??_C@_05DPCAAIOM@msila?$AA@ 100a5efc     interop.obj
 0002:00005f04       ??_C@_03NAGDBDGK@ive?$AA@  100a5f04     interop.obj
 0002:00005f08       ??_C@_07PDACOIKL@ssenevi?$AA@ 100a5f08     interop.obj
 0002:00005f10       ??_C@_03FLIEAGCM@ful?$AA@  100a5f10     interop.obj
 0002:00005f14       ??_C@_07LNEAFLH@ssenluf?$AA@ 100a5f14     interop.obj
 0002:00005f1c       ??_C@_07NCGMPJDH@ssensuo?$AA@ 100a5f1c     interop.obj
 0002:00005f24       ??_C@_05BGJBJGOK@itila?$AA@ 100a5f24     interop.obj
 0002:00005f2c       ??_C@_05MPPJDKEE@itivi?$AA@ 100a5f2c     interop.obj
 0002:00005f34       ??_C@_06BJBBMCGN@itilib?$AA@ 100a5f34     interop.obj
 0002:00005f3c       ??_C@_02JGIOOCG@ic?$AA@    100a5f3c     interop.obj
 0002:00005f40       ??_C@_05GHGCLDEL@etaci?$AA@ 100a5f40     interop.obj
 0002:00005f48       ??_C@_05JKGPHDJ@evita?$AA@ 100a5f48     interop.obj
 0002:00005f50       ??_C@_05NOGDOIPA@ezila?$AA@ 100a5f50     interop.obj
 0002:00005f58       ??_C@_05NFBEFLNP@itici?$AA@ 100a5f58     interop.obj
 0002:00005f60       ??_C@_04BICLKHFP@laci?$AA@ 100a5f60     interop.obj
 0002:00005f68       ??_C@_03MONGAOMC@luf?$AA@  100a5f68     interop.obj
 0002:00005f6c       ??_C@_04ELEHNCGN@ssen?$AA@ 100a5f6c     interop.obj
 0002:00005f74       ??_C@_05KMPBBIAH@tneme?$AA@ 100a5f74     interop.obj
 0002:00005f7c       ??_C@_04HADJNCPM@tnem?$AA@ 100a5f7c     interop.obj
 0002:00005f84       ??_C@_03GACFGOOA@tne?$AA@  100a5f84     interop.obj
 0002:00005f88       ??_C@_03PCPGPMCA@noi?$AA@  100a5f88     interop.obj
 0002:00005f8c       ??_C@_03PNFNLNLI@eta?$AA@  100a5f8c     interop.obj
 0002:00005f90       ??_C@_03HPFCIIAI@iti?$AA@  100a5f90     interop.obj
 0002:00005f94       ??_C@_0BH@PMNILKKF@argument?5type?5mismatch?$AA@ 100a5f94     interop.obj
 0002:00005fac       ??_C@_0BG@CPKCHLPM@unknown?5tokenizer?3?5?$CFs?$AA@ 100a5fac     interop.obj
 0002:00005fc4       ??_C@_0BC@MIGNHNIC@unknown?5tokenizer?$AA@ 100a5fc4     interop.obj
 0002:00005fd8       ??_C@_0DD@EDFEHGLO@CREATE?5TABLE?5x?$CIinput?0?5token?0?5sta@ 100a5fd8     interop.obj
 0002:0000600c       ??_C@_0N@MJBJKOEF@fts3tokenize?$AA@ 100a600c     interop.obj
 0002:0000601c       ??_C@_0CM@CCEIGCNK@DELETE?5FROM?5?$CFQ?4?8?$CFq_content?8?5WHER@ 100a601c     interop.obj
 0002:00006048       ??_C@_0EE@NIHFGMMI@SELECT?5NOT?5EXISTS?$CISELECT?5docid?5F@ 100a6048     interop.obj
 0002:0000608c       ??_C@_0BM@PEBOBMKF@DELETE?5FROM?5?$CFQ?4?8?$CFq_content?8?$AA@ 100a608c     interop.obj
 0002:000060a8       ??_C@_0BN@EILBLEDC@DELETE?5FROM?5?$CFQ?4?8?$CFq_segments?8?$AA@ 100a60a8     interop.obj
 0002:000060c8       ??_C@_0BL@DOPLACGJ@DELETE?5FROM?5?$CFQ?4?8?$CFq_segdir?8?$AA@ 100a60c8     interop.obj
 0002:000060e4       ??_C@_0BM@OLMCMEJK@DELETE?5FROM?5?$CFQ?4?8?$CFq_docsize?8?$AA@ 100a60e4     interop.obj
 0002:00006100       ??_C@_0BJ@HOMEFFOK@DELETE?5FROM?5?$CFQ?4?8?$CFq_stat?8?$AA@ 100a6100     interop.obj
 0002:0000611c       ??_C@_0BI@EHNAAIOC@SELECT?5?$CFs?5WHERE?5rowid?$DN?$DP?$AA@ 100a611c     interop.obj
 0002:00006138       ??_C@_0EB@JLFIAJAO@SELECT?5?$CISELECT?5max?$CIidx?$CJ?5FROM?5?$CFQ?4@ 100a6138     interop.obj
 0002:0000617c       ??_C@_0DL@MFGEIOD@REPLACE?5INTO?5?$CFQ?4?8?$CFq_segments?8?$CIbl@ 100a617c     interop.obj
 0002:000061b8       ??_C@_0EE@PDNODLPC@SELECT?5coalesce?$CI?$CISELECT?5max?$CIbloc@ 100a61b8     interop.obj
 0002:000061fc       ??_C@_0DA@CMKKFBOL@REPLACE?5INTO?5?$CFQ?4?8?$CFq_segdir?8?5VALU@ 100a61fc     interop.obj
 0002:00006230       ??_C@_0HA@JJLMMHPL@SELECT?5idx?0?5start_block?0?5leaves_@ 100a6230     interop.obj
 0002:000062a0       ??_C@_0IH@CHFFJLEM@SELECT?5idx?0?5start_block?0?5leaves_@ 100a62a0     interop.obj
 0002:00006328       ??_C@_0DE@JFBNLGCM@SELECT?5count?$CI?$CK?$CJ?5FROM?5?$CFQ?4?8?$CFq_segd@ 100a6328     interop.obj
 0002:00006360       ??_C@_0EC@NJOFEFNB@SELECT?5max?$CIlevel?$CJ?5FROM?5?$CFQ?4?8?$CFq_se@ 100a6360     interop.obj
 0002:000063a4       ??_C@_0CL@LJFNCCFI@DELETE?5FROM?5?$CFQ?4?8?$CFq_segdir?8?5WHERE@ 100a63a4     interop.obj
 0002:000063d0       ??_C@_0DL@FMDHOPDD@DELETE?5FROM?5?$CFQ?4?8?$CFq_segments?8?5WHE@ 100a63d0     interop.obj
 0002:0000640c       ??_C@_0CH@KOJCNEKB@INSERT?5INTO?5?$CFQ?4?8?$CFq_content?8?5VALU@ 100a640c     interop.obj
 0002:00006434       ??_C@_0CM@JNJGJAMO@DELETE?5FROM?5?$CFQ?4?8?$CFq_docsize?8?5WHER@ 100a6434     interop.obj
 0002:00006460       ??_C@_0CJ@LFPHJFLB@REPLACE?5INTO?5?$CFQ?4?8?$CFq_docsize?8?5VAL@ 100a6460     interop.obj
 0002:0000648c       ??_C@_0CP@OHAINFIB@SELECT?5size?5FROM?5?$CFQ?4?8?$CFq_docsize?8@ 100a648c     interop.obj
 0002:000064bc       ??_C@_0CK@NBNCGFLN@SELECT?5value?5FROM?5?$CFQ?4?8?$CFq_stat?8?5W@ 100a64bc     interop.obj
 0002:000064e8       ??_C@_0CG@FNKMPDFF@REPLACE?5INTO?5?$CFQ?4?8?$CFq_stat?8?5VALUES@ 100a64e8     interop.obj
 0002:00006510       ??_C@_0DH@BCKMOPJL@DELETE?5FROM?5?$CFQ?4?8?$CFq_segdir?8?5WHERE@ 100a6510     interop.obj
 0002:00006548       ??_C@_0DH@FMGMEHPE@SELECT?5DISTINCT?5level?5?1?5?$CI1024?5?$CK?5@ 100a6548     interop.obj
 0002:00006580       ??_C@_0GJ@LOLHDHAJ@SELECT?5level?5FROM?5?$CFQ?4?8?$CFq_segdir?8@ 100a6580     interop.obj
 0002:000065f0       ??_C@_0GH@DPJIHEGC@SELECT?52?5?$CK?5total?$CI1?5?$CL?5leaves_end_@ 100a65f0     interop.obj
 0002:00006658       ??_C@_0DH@DBLDPJEO@DELETE?5FROM?5?$CFQ?4?8?$CFq_segdir?8?5WHERE@ 100a6658     interop.obj
 0002:00006690       ??_C@_0DK@IIIPEDBM@UPDATE?5?$CFQ?4?8?$CFq_segdir?8?5SET?5idx?5?$DN?5@ 100a6690     interop.obj
 0002:000066d0       ??_C@_0GL@HMGCAOBI@SELECT?5idx?0?5start_block?0?5leaves_@ 100a66d0     interop.obj
 0002:00006740       ??_C@_0EP@DBFLEABP@UPDATE?5?$CFQ?4?8?$CFq_segdir?8?5SET?5start_@ 100a6740     interop.obj
 0002:00006790       ??_C@_0EB@INOOLLID@SELECT?51?5FROM?5?$CFQ?4?8?$CFq_segments?8?5W@ 100a6790     interop.obj
 0002:000067d4       ??_C@_0DM@EICDJEDC@SELECT?5idx?5FROM?5?$CFQ?4?8?$CFq_segdir?8?5W@ 100a67d4     interop.obj
 0002:00006810       ??_C@_0DA@ONAEGFD@SELECT?5max?$CI?5level?5?$CF?$CF?51024?5?$CJ?5FROM@ 100a6810     interop.obj
 0002:00006840       ??_C@_0GK@GKICLGAF@SELECT?5level?0?5idx?0?5end_block?5FRO@ 100a6840     interop.obj
 0002:000068b0       ??_C@_0EJ@EJCODMCO@UPDATE?5OR?5FAIL?5?$CFQ?4?8?$CFq_segdir?8?5SE@ 100a68b0     interop.obj
 0002:000068fc       ??_C@_0DJ@JFKMPJPN@UPDATE?5OR?5FAIL?5?$CFQ?4?8?$CFq_segdir?8?5SE@ 100a68fc     interop.obj
 0002:00006938       ??_C@_0M@FNPINBNL@?$CFs_segments?$AA@ 100a6938     interop.obj
 0002:00006944       ??_C@_05PIBOEKAB@block?$AA@ 100a6944     interop.obj
 0002:0000694c       ??_C@_09MIMKIBLB@?$CFlld?5?$CFlld?$AA@ 100a694c     interop.obj
 0002:00006958       ??_C@_09GMKLHBDP@SELECT?5?$CFs?$AA@ 100a6958     interop.obj
 0002:00006964       ??_C@_07NPFKDALJ@rebuild?$AA@ 100a6964     interop.obj
 0002:0000696c       ??_C@_0BA@DICCLPBL@integrity?9check?$AA@ 100a696c     interop.obj
 0002:0000697c       ??_C@_06NBNMKOCN@merge?$DN?$AA@ 100a697c     interop.obj
 0002:00006984       ??_C@_0L@CIJOHFF@automerge?$DN?$AA@ 100a6984     interop.obj
 0002:00006990       ??_C@_0P@LDDNGGJP@SAVEPOINT?5fts3?$AA@ 100a6990     interop.obj
 0002:000069a0       ??_C@_0N@MGHAAGPN@RELEASE?5fts3?$AA@ 100a69a0     interop.obj
 0002:000069b0       ??_C@_0BB@FILGCGJ@ROLLBACK?5TO?5fts3?$AA@ 100a69b0     interop.obj
 0002:000069c4       ??_C@_0CD@HGBIMAPM@unrecognized?5matchinfo?5request?3?5@ 100a69c4     interop.obj
 0002:000069e8       ??_C@_0N@CAAIIPHA@?$CFd?5?$CFd?5?$CFd?5?$CFd?5?$AA@ 100a69e8     interop.obj
 0002:000069f8       ??_C@_03BIPDAGPI@pcx?$AA@  100a69f8     interop.obj
 0002:00006a00       ??_C@_0FC@PCOGINLL@DROP?5TABLE?5?8?$CFq?8?4?8?$CFq_node?8?$DLDROP?5T@ 100a6a00     interop.obj
 0002:00006a58       ??_C@_0JB@OPIDJEFG@ALTER?5TABLE?5?$CFQ?4?8?$CFq_node?8?5?5?5RENAM@ 100a6a58     interop.obj
 0002:00006aec       ??_C@_0DI@KGIILJME@SELECT?5stat?5FROM?5?$CFQ?4sqlite_stat1@ 100a6aec     interop.obj
 0002:00006b24       ??_C@_0DC@LADEDDNO@SELECT?5data?5FROM?5?8?$CFq?8?4?8?$CFq_node?8?5@ 100a6b24     interop.obj
 0002:00006b58       ??_C@_0DF@HGBHOIBO@INSERT?5OR?5REPLACE?5INTO?5?8?$CFq?8?4?8?$CFq_@ 100a6b58     interop.obj
 0002:00006b90       ??_C@_0CN@NJAIPDIA@DELETE?5FROM?5?8?$CFq?8?4?8?$CFq_node?8?5WHERE@ 100a6b90     interop.obj
 0002:00006bc0       ??_C@_0DE@NMCAHMCK@SELECT?5nodeno?5FROM?5?8?$CFq?8?4?8?$CFq_rowi@ 100a6bc0     interop.obj
 0002:00006bf4       ??_C@_0DG@OPBLMGLD@INSERT?5OR?5REPLACE?5INTO?5?8?$CFq?8?4?8?$CFq_@ 100a6bf4     interop.obj
 0002:00006c2c       ??_C@_0CN@JLLIJKKP@DELETE?5FROM?5?8?$CFq?8?4?8?$CFq_rowid?8?5WHER@ 100a6c2c     interop.obj
 0002:00006c5c       ??_C@_0DK@LBKGHCLI@SELECT?5parentnode?5FROM?5?8?$CFq?8?4?8?$CFq_@ 100a6c5c     interop.obj
 0002:00006c98       ??_C@_0DH@IPNBEOMK@INSERT?5OR?5REPLACE?5INTO?5?8?$CFq?8?4?8?$CFq_@ 100a6c98     interop.obj
 0002:00006cd0       ??_C@_0CP@DMLOGJAI@DELETE?5FROM?5?8?$CFq?8?4?8?$CFq_parent?8?5WHE@ 100a6cd0     interop.obj
 0002:00006d00       ??_C@_0BAM@HLINMDBI@CREATE?5TABLE?5?$CC?$CFw?$CC?4?$CC?$CFw_node?$CC?$CInode@ 100a6d00     interop.obj
 0002:00006e0c       ??_C@_0DJ@FJHIAAMI@SELECT?5length?$CIdata?$CJ?5FROM?5?8?$CFq?8?4?8?$CF@ 100a6e0c     interop.obj
 0002:00006e48       ??_C@_0CL@JLGEGOKF@Wrong?5number?5of?5columns?5for?5an?5r@ 100a6e48     interop.obj
 0002:00006e74       ??_C@_0CD@LNBABDIB@Too?5few?5columns?5for?5an?5rtree?5tab@ 100a6e74     interop.obj
 0002:00006e98       ??_C@_0CE@OFDKEPLE@Too?5many?5columns?5for?5an?5rtree?5ta@ 100a6e98     interop.obj
 0002:00006ebc       ??_C@_0BC@EHLBCEFD@CREATE?5TABLE?5x?$CI?$CFs?$AA@ 100a6ebc     interop.obj
 0002:00006ed0       ??_C@_06OMDHIKNA@?$CFs?0?5?$CFs?$AA@ 100a6ed0     interop.obj
 0002:00006ed8       ??_C@_04ECFIDFLD@?$CFs?$CJ?$DL?$AA@ 100a6ed8     interop.obj
 0002:00006ee0       ??_C@_03GKLDPGLG@?5?$CFg?$AA@ 100a6ee0     interop.obj
 0002:00006ee4       ??_C@_07CEKPNMEE@?$CFs?5?$HL?$CFs?$HN?$AA@ 100a6ee4     interop.obj
 0002:00006eec       ??_C@_04OMBFFHIC@?$HL?$CFs?$HN?$AA@ 100a6eec     interop.obj
 0002:00006ef4       ??_C@_0CB@GBDNHMJO@Invalid?5argument?5to?5rtreedepth?$CI?$CJ@ 100a6ef4     interop.obj
 0002:00006f18       ??_C@_09DOFHOJNE@rtreenode?$AA@ 100a6f18     interop.obj
 0002:00006f24       ??_C@_0L@FBAJCMD@rtreedepth?$AA@ 100a6f24     interop.obj
 0002:00006f30       ??_C@_05JDCFEKKH@rtree?$AA@ 100a6f30     interop.obj
 0002:00006f38       ??_C@_09BLHENEJI@rtree_i32?$AA@ 100a6f38     interop.obj
 0002:00006f44       ??_C@_0CB@CGLCOOIM@virtual?5table?5was?5disposed?3?5?$CC?$CFs?$CC@ 100a6f44     interop.obj
 0002:00006f68       ??_C@_0ED@OEJKFPLO@2nd?5argument?5to?5percentile?$CI?$CJ?5is?5@ 100a6f68     interop.obj
 0002:00006fb0       ??_C@_0EA@BKMGCEPO@2nd?5argument?5to?5percentile?$CI?$CJ?5is?5@ 100a6fb0     interop.obj
 0002:00006ff0       ??_C@_0CM@EJOMGILO@1st?5argument?5to?5percentile?$CI?$CJ?5is?5@ 100a6ff0     interop.obj
 0002:0000701c       ??_C@_0BK@LJDALHEI@Inf?5input?5to?5percentile?$CI?$CJ?$AA@ 100a701c     interop.obj
 0002:00007038       ??_C@_0L@CFOOMBJH@percentile?$AA@ 100a7038     interop.obj
 0002:00007044       ??_C@_09EAKFBKNJ@tointeger?$AA@ 100a7044     interop.obj
 0002:00007050       ??_C@_06IMKBFIBE@toreal?$AA@ 100a7050     interop.obj
 0002:00007058       ??_C@_0BB@HILABBIL@unknown?5?2?5escape?$AA@ 100a7058     interop.obj
 0002:0000706c       ??_C@_0O@FACMLJNN@unmatched?5?8?$CI?8?$AA@ 100a706c     interop.obj
 0002:0000707c       ??_C@_0BE@CFACGOLF@?8?$CK?8?5without?5operand?$AA@ 100a707c     interop.obj
 0002:00007090       ??_C@_0BE@PCOAOOON@?8?$CL?8?5without?5operand?$AA@ 100a7090     interop.obj
 0002:000070a4       ??_C@_0BE@IMKNIAF@?8?$DP?8?5without?5operand?$AA@ 100a70a4     interop.obj
 0002:000070b8       ??_C@_0BI@PPDBEGLA@?8?$HLm?0n?$HN?8?5without?5operand?$AA@ 100a70b8     interop.obj
 0002:000070d0       ??_C@_0O@DONGCJDE@unmatched?5?8?$HL?8?$AA@ 100a70d0     interop.obj
 0002:000070e0       ??_C@_0BJ@NKJEOJON@n?5less?5than?5m?5in?5?8?$HLm?0n?$HN?8?$AA@ 100a70e0     interop.obj
 0002:000070fc       ??_C@_0CB@LCAEBHHB@both?5m?5and?5n?5are?5zero?5in?5?8?$HLm?0n?$HN?8@ 100a70fc     interop.obj
 0002:00007120       ??_C@_0CG@PFMKOOCB@POSIX?5character?5classes?5not?5supp@ 100a7120     interop.obj
 0002:00007148       ??_C@_0N@DJDIOAIE@unclosed?5?8?$FL?8?$AA@ 100a7148     interop.obj
 0002:00007158       ??_C@_0BH@GALMDGKD@unrecognized?5character?$AA@ 100a7158     interop.obj
 0002:00007170       ??_C@_06BDGKJDBI@regexp?$AA@ 100a7170     interop.obj
 0002:00007178       ??_C@_0N@HPOBCAGP@domain?5error?$AA@ 100a7178     interop.obj
 0002:00007188       ??_C@_04PDIFKINK@acos?$AA@ 100a7188     interop.obj
 0002:00007190       ??_C@_04FIHNOPOL@asin?$AA@ 100a7190     interop.obj
 0002:00007198       ??_C@_04MLLJIGOK@atan?$AA@ 100a7198     interop.obj
 0002:000071a0       ??_C@_04NGOLNDIP@atn2?$AA@ 100a71a0     interop.obj
 0002:000071a8       ??_C@_05KNGEOGJB@atan2?$AA@ 100a71a8     interop.obj
 0002:000071b0       ??_C@_05MLNBFPMN@acosh?$AA@ 100a71b0     interop.obj
 0002:000071b8       ??_C@_05JKKEKHLA@asinh?$AA@ 100a71b8     interop.obj
 0002:000071c0       ??_C@_05ONDAFDEP@atanh?$AA@ 100a71c0     interop.obj
 0002:000071c8       ??_C@_0L@CHCOIIBP@difference?$AA@ 100a71c8     interop.obj
 0002:000071d4       ??_C@_07MHOHEFBH@degrees?$AA@ 100a71d4     interop.obj
 0002:000071dc       ??_C@_07JLOPPFCD@radians?$AA@ 100a71dc     interop.obj
 0002:000071e4       ??_C@_03LALBNOCG@cos?$AA@  100a71e4     interop.obj
 0002:000071e8       ??_C@_03BLEJJJBH@sin?$AA@  100a71e8     interop.obj
 0002:000071ec       ??_C@_03IIINPABG@tan?$AA@  100a71ec     interop.obj
 0002:000071f0       ??_C@_03PPPAEIOB@cot?$AA@  100a71f0     interop.obj
 0002:000071f4       ??_C@_04HPJJNFIM@cosh?$AA@ 100a71f4     interop.obj
 0002:000071fc       ??_C@_04COOMCNPB@sinh?$AA@ 100a71fc     interop.obj
 0002:00007204       ??_C@_04FJHINJAO@tanh?$AA@ 100a7204     interop.obj
 0002:0000720c       ??_C@_04HKNGMDAJ@coth?$AA@ 100a720c     interop.obj
 0002:00007214       ??_C@_03KHJOGHMM@exp?$AA@  100a7214     interop.obj
 0002:00007218       ??_C@_05HGHHAHAP@log10?$AA@ 100a7218     interop.obj
 0002:00007220       ??_C@_05PLIADJJL@power?$AA@ 100a7220     interop.obj
 0002:00007228       ??_C@_04HHGHLBPI@sign?$AA@ 100a7228     interop.obj
 0002:00007230       ??_C@_04EIAKFFMI@sqrt?$AA@ 100a7230     interop.obj
 0002:00007238       ??_C@_06ICDKOIFG@square?$AA@ 100a7238     interop.obj
 0002:00007240       ??_C@_04GFPJNGEK@ceil?$AA@ 100a7240     interop.obj
 0002:00007248       ??_C@_07EANFIDJB@ceiling?$AA@ 100a7248     interop.obj
 0002:00007250       ??_C@_05PBJFFIGL@floor?$AA@ 100a7250     interop.obj
 0002:00007258       ??_C@_02OAHAJOFD@pi?$AA@   100a7258     interop.obj
 0002:0000725c       ??_C@_0BD@IFENDAKA@last_rows_affected?$AA@ 100a725c     interop.obj
 0002:00007270       ??_C@_09CBPKCNMB@replicate?$AA@ 100a7270     interop.obj
 0002:0000727c       ??_C@_09LCOPGHLO@charindex?$AA@ 100a727c     interop.obj
 0002:00007288       ??_C@_07CBJDIIOC@leftstr?$AA@ 100a7288     interop.obj
 0002:00007290       ??_C@_08JJJINGEL@rightstr?$AA@ 100a7290     interop.obj
 0002:0000729c       ??_C@_07KOIEOCCE@reverse?$AA@ 100a729c     interop.obj
 0002:000072a4       ??_C@_06OLFJAONP@proper?$AA@ 100a72a4     interop.obj
 0002:000072ac       ??_C@_04MFADDPBM@padl?$AA@ 100a72ac     interop.obj
 0002:000072b4       ??_C@_04BBECAAMD@padr?$AA@ 100a72b4     interop.obj
 0002:000072bc       ??_C@_04ECJLCDND@padc?$AA@ 100a72bc     interop.obj
 0002:000072c4       ??_C@_09GOCGDFFD@strfilter?$AA@ 100a72c4     interop.obj
 0002:000072d0       ??_C@_05EMOENAND@stdev?$AA@ 100a72d0     interop.obj
 0002:000072d8       ??_C@_08PPLCFKON@variance?$AA@ 100a72d8     interop.obj
 0002:000072e4       ??_C@_06EIDMBNHH@median?$AA@ 100a72e4     interop.obj
 0002:000072ec       ??_C@_0P@BHPBIMCK@lower_quartile?$AA@ 100a72ec     interop.obj
 0002:000072fc       ??_C@_0P@GILEIKMI@upper_quartile?$AA@ 100a72fc     interop.obj
 0002:00007310       ??_C@_1FO@GBKEFGLF@?$AAM?$AAi?$AAc?$AAr?$AAo?$AAs?$AAo?$AAf?$AAt?$AA?5?$AAE?$AAn?$AAh?$AAa?$AAn?$AAc?$AAe?$AAd?$AA?5?$AAC?$AAr?$AAy?$AAp?$AAt?$AAo?$AAg?$AAr?$AAa?$AAp?$AAh?$AAi?$AAc@ 100a7310     interop.obj
 0002:00007370       ??_C@_0CF@PDNGJJHH@Cryptographic?5provider?5not?5avail@ 100a7370     interop.obj
 0002:00007398       ??_C@_05KECBHFIB@CODEC?$AA@ 100a7398     interop.obj
 0002:000073a0       ??_C@_0BE@FBEPHJOJ@EXTENSION_FUNCTIONS?$AA@ 100a73a0     interop.obj
 0002:000073b4       ??_C@_0BF@ICFBEBIE@PERCENTILE_EXTENSION?$AA@ 100a73b4     interop.obj
 0002:000073cc       ??_C@_0BB@CDMPNKEH@REGEXP_EXTENSION?$AA@ 100a73cc     interop.obj
 0002:000073e0       ??_C@_0BB@KHKIMGJF@TOTYPE_EXTENSION?$AA@ 100a73e0     interop.obj
 0002:000073f4       ??_C@_0BH@GGPGGNFM@VERSION_NUMBER?$DN3008005?$AA@ 100a73f4     interop.obj
 0002:0000740c       ??_C@_0O@NJNGIHJL@VIRTUAL_TABLE?$AA@ 100a740c     interop.obj
 0002:0000741c       ??_C@_08POEGDEC@INTEROP_?$AA@ 100a741c     interop.obj
 0002:00007428       ??_C@_08GHGIGGKI@1?40?494?40?$AA@ 100a7428     interop.obj
 0002:00007438       ??_C@_0EB@BIBJKLHN@00000000000000000000000000000000@ 100a7438     interop.obj
 0002:0000aa48       _sqlite3_version           100aaa48     interop.obj
 0002:0000b3c8       __load_config_used         100ab3c8     MSVCRT:loadcfg.obj
 0002:00036880       ___safe_se_handler_table   100d6880     <linker-defined>
 0002:00036884       ___rtc_iaa                 100d6884     MSVCRT:initsect.obj
 0002:00036888       ___rtc_izz                 100d6888     MSVCRT:initsect.obj
 0002:0003688c       ___rtc_taa                 100d688c     MSVCRT:initsect.obj
 0002:00036890       ___rtc_tzz                 100d6890     MSVCRT:initsect.obj
 0002:000368fc       __IMPORT_DESCRIPTOR_KERNEL32 100d68fc     kernel32:KERNEL32.dll
 0002:00036910       __IMPORT_DESCRIPTOR_ADVAPI32 100d6910     advapi32:ADVAPI32.dll
 0002:00036924       __IMPORT_DESCRIPTOR_MSVCR110 100d6924     MSVCRT:MSVCR110.dll
 0002:00036938       __IMPORT_DESCRIPTOR_mscoree 100d6938     mscoree:mscoree.dll
 0002:0003694c       __NULL_IMPORT_DESCRIPTOR   100d694c     kernel32:KERNEL32.dll
 0003:00000000       ___security_cookie         100da000     MSVCRT:gs_cookie.obj
 0003:00000004       ___security_cookie_complement 100da004     MSVCRT:gs_cookie.obj
 0003:00000010       ___native_dllmain_reason   100da010     MSVCRT:natstart.obj
 0003:00001090       ___isa_enabled             100db090     MSVCRT:cpu_disp.obj
 0003:000013bc       ?__type_info_root_node@@3U__type_info_node@@A 100db3bc     MSVCRT:tncleanup.obj
 0003:000013dc       _g_hProvider               100db3dc     interop.obj
 0003:0000141c       _sqlite3_data_directory    100db41c     interop.obj
 0003:00001520       _sqlite3_temp_directory    100db520     interop.obj
 0003:00002e78       ___isa_available           100dce78     MSVCRT:cpu_disp.obj
 0003:00002e7c       ___favor                   100dce7c     MSVCRT:cpu_disp.obj
 0003:00002e80       ___native_startup_lock     100dce80     <common>
 0003:00002e84       ___native_startup_state    100dce84     <common>
 0003:00002e88       ___onexitend               100dce88     <common>
 0003:00002e8c       ___onexitbegin             100dce8c     <common>
 0003:00002e90       ___dyn_tls_init_callback   100dce90     <common>
 0004:00000000       __real@4066800000000000    100dd000     System.Data.SQLite.netmodule
 0004:00000008       __real@400921fb54442d18    100dd008     System.Data.SQLite.netmodule
 0004:00000010       __real@3ff0000000000000    100dd010     System.Data.SQLite.netmodule
 0004:00000018       __real@3fe0000000000000    100dd018     System.Data.SQLite.netmodule
 0004:00000020       __real@3f50624dd2f1a9fc    100dd020     System.Data.SQLite.netmodule
 0004:00000028       __real@4014000000000000    100dd028     System.Data.SQLite.netmodule
 0004:00000030       __real@40d3880000000000    100dd030     System.Data.SQLite.netmodule
 0004:00000038       __real@8000000000000000    100dd038     System.Data.SQLite.netmodule
 0004:00000040       __real@4024000000000000    100dd040     System.Data.SQLite.netmodule
 0004:00000048       __real@7fe1ccf385ebc8a0    100dd048     System.Data.SQLite.netmodule
 0004:00000050       __real@7ff0000000000000    100dd050     System.Data.SQLite.netmodule
 0004:00000058       __real@4480f0cf064dd592    100dd058     System.Data.SQLite.netmodule
 0004:00000060       __real@4194997000000000    100dd060     System.Data.SQLite.netmodule
 0004:00000068       __real@413c7dd040000000    100dd068     System.Data.SQLite.netmodule
 0004:00000070       __real@40e1d58800000000    100dd070     System.Data.SQLite.netmodule
 0004:00000078       __real@405e866666666666    100dd078     System.Data.SQLite.netmodule
 0004:00000080       __real@4076d40000000000    100dd080     System.Data.SQLite.netmodule
 0004:00000088       __real@403e99a027525461    100dd088     System.Data.SQLite.netmodule
 0004:00000090       __real@4097d20000000000    100dd090     System.Data.SQLite.netmodule
 0004:00000098       __real@c08f400000000000    100dd098     System.Data.SQLite.netmodule
 0004:000000a0       __real@bff0000000000000    100dd0a0     System.Data.SQLite.netmodule
 0004:000000a8       __real@408f400000000000    100dd0a8     System.Data.SQLite.netmodule
 0004:000000b0       __real@41ddcd6500000000    100dd0b0     System.Data.SQLite.netmodule
 0004:000000b8       __real@43e0000000000000    100dd0b8     System.Data.SQLite.netmodule
 0004:000000c0       __real@415312d000000000    100dd0c0     System.Data.SQLite.netmodule
 0004:000000c8       __real@4000000000000000    100dd0c8     System.Data.SQLite.netmodule
 0004:000000d0       __real@4a511b0ec57e649a    100dd0d0     System.Data.SQLite.netmodule
 0004:000000d8       __real@4048000000000000    100dd0d8     System.Data.SQLite.netmodule
 0004:000000e0       __real@3fefffffc0000000    100dd0e0     System.Data.SQLite.netmodule
 0004:000000e8       __real@3ff0000020000000    100dd0e8     System.Data.SQLite.netmodule
 0004:000000f0       __xmm@41f00000000000000000000000000000 100dd0f0     System.Data.SQLite.netmodule
 0004:00000100       __real@3f847ae147ae147b    100dd100     System.Data.SQLite.netmodule
 0004:00000110       __xmm@80000000000000008000000000000000 100dd110     System.Data.SQLite.netmodule
 0004:00000120       __real@3fd0000000000000    100dd120     System.Data.SQLite.netmodule
 0004:00000128       __real@4059000000000000    100dd128     System.Data.SQLite.netmodule
 0004:00000130       __real@0000000000000000    100dd130     System.Data.SQLite.netmodule
 0004:00000138       __real@bf50624dd2f1a9fc    100dd138     System.Data.SQLite.netmodule
 0004:00000140       __real@401c000000000000    100dd140     System.Data.SQLite.netmodule
 0004:00000148       __real@bfe0000000000000    100dd148     System.Data.SQLite.netmodule
 0004:00000150       __real@414b774000000000    100dd150     System.Data.SQLite.netmodule
 0004:00000158       __real@4076d00000000000    100dd158     System.Data.SQLite.netmodule
 0004:00000160       __real@40ed4c0000000000    100dd160     System.Data.SQLite.netmodule
 0004:00000168       __real@403e000000000000    100dd168     System.Data.SQLite.netmodule
 0004:00000170       __real@3fb999999999999a    100dd170     System.Data.SQLite.netmodule
 0004:00000178       __real@54b249ad2594c37d    100dd178     System.Data.SQLite.netmodule
 0004:00000180       __real@4d384f03e93ff9f5    100dd180     System.Data.SQLite.netmodule
 0004:00000188       __real@4197d78400000000    100dd188     System.Data.SQLite.netmodule
 0004:00000190       __real@3e45798ee2308c3a    100dd190     System.Data.SQLite.netmodule
 0004:00000198       __real@404dffdf3b645a1d    100dd198     System.Data.SQLite.netmodule
 0004:000001a0       __real@4018000000000000    100dd1a0     System.Data.SQLite.netmodule
 0004:000001a8       __real@546d42aea2879f2e    100dd1a8     System.Data.SQLite.netmodule
 0004:000001b0       __real@c3e0000000000000    100dd1b0     System.Data.SQLite.netmodule
 0004:000001c0       __xmm@00000003000000020000000100000000 100dd1c0     System.Data.SQLite.netmodule
 0004:000001d0       __xmm@00000028000000280000002800000028 100dd1d0     System.Data.SQLite.netmodule
 0004:000001e0       __xmm@00000001000000010000000100000001 100dd1e0     System.Data.SQLite.netmodule
 0004:000001f0       __xmm@40000000000000004000000000000000 100dd1f0     System.Data.SQLite.netmodule

 entry point at        0001:0009e45e

 Static symbols

 0000:fff1d000       .debug$S                   10000000     MSVCRT:MSVCR110.dll
 0000:fff1d000       .debug$S                   10000000     MSVCRT:MSVCR110.dll
 0000:fff1d000       .debug$S                   10000000     MSVCRT:MSVCR110.dll
 0000:fff1d000       .debug$S                   10000000     MSVCRT:MSVCR110.dll
 0000:fff1d000       .debug$S                   10000000     MSVCRT:MSVCR110.dll
 0000:fff1d000       .debug$S                   10000000     MSVCRT:MSVCR110.dll
 0000:fff1d000       .debug$S                   10000000     MSVCRT:MSVCR110.dll
 0000:fff1d000       .debug$S                   10000000     MSVCRT:MSVCR110.dll
 0000:fff1d000       .debug$S                   10000000     MSVCRT:MSVCR110.dll
 0000:fff1d000       .debug$S                   10000000     MSVCRT:MSVCR110.dll
 0000:fff1d000       .debug$S                   10000000     MSVCRT:MSVCR110.dll
 0000:fff1d000       .debug$S                   10000000     MSVCRT:MSVCR110.dll
 0000:fff1d000       .debug$S                   10000000     MSVCRT:MSVCR110.dll
 0000:fff1d000       .debug$S                   10000000     MSVCRT:MSVCR110.dll
 0000:fff1d000       .debug$S                   10000000     MSVCRT:MSVCR110.dll
 0000:fff1d000       .debug$S                   10000000     MSVCRT:MSVCR110.dll
 0000:fff1d000       .debug$S                   10000000     MSVCRT:MSVCR110.dll
 0000:fff1d000       .debug$S                   10000000     MSVCRT:MSVCR110.dll
 0000:fff1d000       .debug$S                   10000000     MSVCRT:MSVCR110.dll
 0000:fff1d000       .debug$S                   10000000     MSVCRT:MSVCR110.dll
 0000:fff1d000       .debug$S                   10000000     MSVCRT:MSVCR110.dll
 0000:fff1d000       .debug$S                   10000000     MSVCRT:MSVCR110.dll
 0000:fff1d000       .debug$S                   10000000     MSVCRT:MSVCR110.dll
 0000:fff1d000       .debug$S                   10000000     MSVCRT:MSVCR110.dll
 0000:fff1d000       .debug$S                   10000000     MSVCRT:MSVCR110.dll
 0000:fff1d000       .debug$S                   10000000     MSVCRT:MSVCR110.dll
 0000:fff1d000       .debug$S                   10000000     MSVCRT:MSVCR110.dll
 0000:fff1d000       .debug$S                   10000000     MSVCRT:MSVCR110.dll
 0000:fff1d000       .debug$S                   10000000     MSVCRT:MSVCR110.dll
 0000:fff1d000       .debug$S                   10000000     MSVCRT:MSVCR110.dll
 0000:fff1d000       .debug$S                   10000000     MSVCRT:MSVCR110.dll
 0000:fff1d000       .debug$S                   10000000     MSVCRT:MSVCR110.dll
 0000:fff1d000       .debug$S                   10000000     MSVCRT:MSVCR110.dll
 0000:fff1d000       .debug$S                   10000000     MSVCRT:MSVCR110.dll
 0000:fff1d000       .debug$S                   10000000     MSVCRT:MSVCR110.dll
 0000:fff1d000       .debug$S                   10000000     MSVCRT:MSVCR110.dll
 0000:fff1d000       .debug$S                   10000000     MSVCRT:MSVCR110.dll
 0000:fff1d000       .debug$S                   10000000     MSVCRT:MSVCR110.dll
 0000:fff1d000       .debug$S                   10000000     MSVCRT:MSVCR110.dll
 0000:fff1d000       .debug$S                   10000000     MSVCRT:MSVCR110.dll
 0000:fff1d000       .debug$S                   10000000     MSVCRT:MSVCR110.dll
 0000:fff1d000       .debug$S                   10000000     MSVCRT:MSVCR110.dll
 0000:fff1d000       .debug$S                   10000000     MSVCRT:MSVCR110.dll
 0000:fff1d000       .debug$S                   10000000     MSVCRT:MSVCR110.dll
 0000:fff1d000       .debug$S                   10000000     MSVCRT:MSVCR110.dll
 0000:fff1d000       .debug$S                   10000000     MSVCRT:MSVCR110.dll
 0000:fff1d000       .debug$S                   10000000     MSVCRT:MSVCR110.dll
 0000:fff1d000       .debug$S                   10000000     kernel32:KERNEL32.dll
 0000:fff1d000       .debug$S                   10000000     kernel32:KERNEL32.dll
 0000:fff1d000       .debug$S                   10000000     kernel32:KERNEL32.dll
 0000:fff1d000       .debug$S                   10000000     mscoree:mscoree.dll
 0000:fff1d000       .debug$S                   10000000     advapi32:ADVAPI32.dll
 0000:fff1d000       .debug$S                   10000000     advapi32:ADVAPI32.dll
 0000:fff1d000       .debug$S                   10000000     advapi32:ADVAPI32.dll
 0000:fff1d000       .debug$S                   10000000     advapi32:ADVAPI32.dll
 0000:fff1d000       .debug$S                   10000000     advapi32:ADVAPI32.dll
 0000:fff1d000       .debug$S                   10000000     advapi32:ADVAPI32.dll
 0000:fff1d000       .debug$S                   10000000     advapi32:ADVAPI32.dll
 0000:fff1d000       .debug$S                   10000000     advapi32:ADVAPI32.dll
 0000:fff1d000       .debug$S                   10000000     advapi32:ADVAPI32.dll
 0000:fff1d000       .debug$S                   10000000     kernel32:KERNEL32.dll
 0000:fff1d000       .debug$S                   10000000     kernel32:KERNEL32.dll
 0000:fff1d000       .debug$S                   10000000     kernel32:KERNEL32.dll
 0000:fff1d000       .debug$S                   10000000     kernel32:KERNEL32.dll
 0000:fff1d000       .debug$S                   10000000     kernel32:KERNEL32.dll
 0000:fff1d000       .debug$S                   10000000     kernel32:KERNEL32.dll
 0000:fff1d000       .debug$S                   10000000     kernel32:KERNEL32.dll
 0000:fff1d000       .debug$S                   10000000     kernel32:KERNEL32.dll
 0000:fff1d000       .debug$S                   10000000     kernel32:KERNEL32.dll
 0000:fff1d000       .debug$S                   10000000     kernel32:KERNEL32.dll
 0000:fff1d000       .debug$S                   10000000     kernel32:KERNEL32.dll
 0000:fff1d000       .debug$S                   10000000     kernel32:KERNEL32.dll
 0000:fff1d000       .debug$S                   10000000     kernel32:KERNEL32.dll
 0000:fff1d000       .debug$S                   10000000     kernel32:KERNEL32.dll
 0000:fff1d000       .debug$S                   10000000     kernel32:KERNEL32.dll
 0000:fff1d000       .debug$S                   10000000     kernel32:KERNEL32.dll
 0000:fff1d000       .debug$S                   10000000     kernel32:KERNEL32.dll
 0000:fff1d000       .debug$S                   10000000     kernel32:KERNEL32.dll
 0000:fff1d000       .debug$S                   10000000     kernel32:KERNEL32.dll
 0000:fff1d000       .debug$S                   10000000     kernel32:KERNEL32.dll
 0000:fff1d000       .debug$S                   10000000     kernel32:KERNEL32.dll
 0000:fff1d000       .debug$S                   10000000     kernel32:KERNEL32.dll
 0000:fff1d000       .debug$S                   10000000     kernel32:KERNEL32.dll
 0000:fff1d000       .debug$S                   10000000     kernel32:KERNEL32.dll
 0000:fff1d000       .debug$S                   10000000     kernel32:KERNEL32.dll
 0000:fff1d000       .debug$S                   10000000     kernel32:KERNEL32.dll
 0000:fff1d000       .debug$S                   10000000     kernel32:KERNEL32.dll
 0000:fff1d000       .debug$S                   10000000     kernel32:KERNEL32.dll
 0000:fff1d000       .debug$S                   10000000     kernel32:KERNEL32.dll
 0000:fff1d000       .debug$S                   10000000     kernel32:KERNEL32.dll
 0000:fff1d000       .debug$S                   10000000     kernel32:KERNEL32.dll
 0000:fff1d000       .debug$S                   10000000     kernel32:KERNEL32.dll
 0000:fff1d000       .debug$S                   10000000     kernel32:KERNEL32.dll
 0000:fff1d000       .debug$S                   10000000     kernel32:KERNEL32.dll
 0000:fff1d000       .debug$S                   10000000     kernel32:KERNEL32.dll
 0000:fff1d000       .debug$S                   10000000     kernel32:KERNEL32.dll
 0000:fff1d000       .debug$S                   10000000     kernel32:KERNEL32.dll
 0000:fff1d000       .debug$S                   10000000     kernel32:KERNEL32.dll
 0000:fff1d000       .debug$S                   10000000     kernel32:KERNEL32.dll
 0000:fff1d000       .debug$S                   10000000     kernel32:KERNEL32.dll
 0000:fff1d000       .debug$S                   10000000     kernel32:KERNEL32.dll
 0000:fff1d000       .debug$S                   10000000     kernel32:KERNEL32.dll
 0000:fff1d000       .debug$S                   10000000     kernel32:KERNEL32.dll
 0000:fff1d000       .debug$S                   10000000     kernel32:KERNEL32.dll
 0000:fff1d000       .debug$S                   10000000     kernel32:KERNEL32.dll
 0000:fff1d000       .debug$S                   10000000     kernel32:KERNEL32.dll
 0000:fff1d000       .debug$S                   10000000     kernel32:KERNEL32.dll
 0000:fff1d000       .debug$S                   10000000     kernel32:KERNEL32.dll
 0000:fff1d000       .debug$S                   10000000     kernel32:KERNEL32.dll
 0000:fff1d000       .debug$S                   10000000     kernel32:KERNEL32.dll
 0000:fff1d000       .debug$S                   10000000     kernel32:KERNEL32.dll
 0000:fff1d000       .debug$S                   10000000     kernel32:KERNEL32.dll
 0000:fff1d000       .debug$S                   10000000     kernel32:KERNEL32.dll
 0000:fff1d000       .debug$S                   10000000     kernel32:KERNEL32.dll
 0000:fff1d000       .debug$S                   10000000     kernel32:KERNEL32.dll
 0000:fff1d000       .debug$S                   10000000     kernel32:KERNEL32.dll
 0000:fff1d000       .debug$S                   10000000     kernel32:KERNEL32.dll
 0000:fff1d000       .debug$S                   10000000     kernel32:KERNEL32.dll
 0000:fff1d000       .debug$S                   10000000     kernel32:KERNEL32.dll
 0000:fff1d000       .debug$S                   10000000     kernel32:KERNEL32.dll
 0000:fff1d000       .debug$S                   10000000     kernel32:KERNEL32.dll
 0000:fff1d000       .debug$S                   10000000     kernel32:KERNEL32.dll
 0000:fff1d000       .debug$S                   10000000     kernel32:KERNEL32.dll
 0000:fff1d000       .debug$S                   10000000     kernel32:KERNEL32.dll
 0000:fff1d000       .debug$S                   10000000     kernel32:KERNEL32.dll
 0000:fff1d000       .debug$S                   10000000     kernel32:KERNEL32.dll
 0000:fff1d000       .debug$S                   10000000     kernel32:KERNEL32.dll
 0000:fff1d000       .debug$S                   10000000     kernel32:KERNEL32.dll
 0000:fff1d000       .debug$S                   10000000     kernel32:KERNEL32.dll
 0000:fff1d000       .debug$S                   10000000     kernel32:KERNEL32.dll
 0001:00000393       _pre_c_init                10001393 f   MSVCRT:crtdll.obj
 0001:000005f7       ___DllMainCRTStartup       100015f7 f   MSVCRT:crtdll.obj
 0001:00000aa0       $$000000                   10001aa0     MSVCRT:sehprolg4.obj
 0001:00000b40       GlobalVar48                10001b40     * CIL library *:* CIL module *
 0001:00001e60       __catch$?System.Data.SQLite.SQLiteConvert.LooksLikeDateTime@@00020212140O$0 10002e60 f   * CIL library *:* CIL module *
 0001:000027c7       __catch$?System.Data.SQLite.SQLiteBase.GetErrorString@@00010O1180O0$0 100037c7 f   * CIL library *:* CIL module *
 0001:00005e7a       __catch$?System.Data.SQLite.SQLiteCommand.Dispose@@20010102$0 10006e7a f   * CIL library *:* CIL module *
 0001:00005ead       __catch$?System.Data.SQLite.SQLiteCommand.Dispose@@20010102$1 10006ead f   * CIL library *:* CIL module *
 0001:00005f18       __catch$?System.Data.SQLite.SQLiteCommand.GetFlags@@000111301238$0 10006f18 f   * CIL library *:* CIL module *
 0001:00005fb5       __catch$?System.Data.SQLite.SQLiteCommand.ClearCommands@@200001$0 10006fb5 f   * CIL library *:* CIL module *
 0001:000060c6       __catch$?System.Data.SQLite.SQLiteCommand.BuildNextCommand@@2000128138$0 100070c6 f   * CIL library *:* CIL module *
 0001:0000767e       __catch$?System.Data.SQLite.SQLiteConnection.BackupDatabase@@20060112480O0O08127408$0 1000867e f   * CIL library *:* CIL module *
 0001:000076b2       __catch$?System.Data.SQLite.SQLiteConnection.BackupDatabase@@20060112480O0O08127408$1 100086b2 f   * CIL library *:* CIL module *
 0001:000081ff       __catch$?System.Data.SQLite.SQLiteConnection.TryParseEnum@@00031M12808N0O02$0 100091ff f   * CIL library *:* CIL module *
 0001:0000864c       __catch$?System.Data.SQLite.SQLiteConnection.Open@@200001$0 1000964c f   * CIL library *:* CIL module *
 0001:00008dae       __catch$?System.Data.SQLite.SQLiteConnection.Open@@200001$1 10009dae f   * CIL library *:* CIL module *
 0001:00008e7b       __catch$?System.Data.SQLite.SQLiteConnection.Open@@200001$2 10009e7b f   * CIL library *:* CIL module *
 0001:00008e8a       __catch$?System.Data.SQLite.SQLiteConnection.Open@@200001$3 10009e8a f   * CIL library *:* CIL module *
 0001:0000a5cd       __catch$?System.Data.SQLite.SQLiteConnection.Schema_Columns@@20031280L90O0O0O$0 1000b5cd f   * CIL library *:* CIL module *
 0001:0000a5e4       __catch$?System.Data.SQLite.SQLiteConnection.Schema_Columns@@20031280L90O0O0O$1 1000b5e4 f   * CIL library *:* CIL module *
 0001:0000a5f2       __catch$?System.Data.SQLite.SQLiteConnection.Schema_Columns@@20031280L90O0O0O$2 1000b5f2 f   * CIL library *:* CIL module *
 0001:0000a600       __catch$?System.Data.SQLite.SQLiteConnection.Schema_Columns@@20031280L90O0O0O$3 1000b600 f   * CIL library *:* CIL module *
 0001:0000a60e       __catch$?System.Data.SQLite.SQLiteConnection.Schema_Columns@@20031280L90O0O0O$4 1000b60e f   * CIL library *:* CIL module *
 0001:0000a61e       __catch$?System.Data.SQLite.SQLiteConnection.Schema_Columns@@20031280L90O0O0O$5 1000b61e f   * CIL library *:* CIL module *
 0001:0000a62a       __catch$?System.Data.SQLite.SQLiteConnection.Schema_Columns@@20031280L90O0O0O$6 1000b62a f   * CIL library *:* CIL module *
 0001:0000aadf       __catch$?System.Data.SQLite.SQLiteConnection.Schema_Indexes@@20031280L90O0O0O$0 1000badf f   * CIL library *:* CIL module *
 0001:0000aaed       __catch$?System.Data.SQLite.SQLiteConnection.Schema_Indexes@@20031280L90O0O0O$1 1000baed f   * CIL library *:* CIL module *
 0001:0000aafb       __catch$?System.Data.SQLite.SQLiteConnection.Schema_Indexes@@20031280L90O0O0O$2 1000bafb f   * CIL library *:* CIL module *
 0001:0000ad0f       __catch$?System.Data.SQLite.SQLiteConnection.Schema_Indexes@@20031280L90O0O0O$3 1000bd0f f   * CIL library *:* CIL module *
 0001:0000ad1d       __catch$?System.Data.SQLite.SQLiteConnection.Schema_Indexes@@20031280L90O0O0O$4 1000bd1d f   * CIL library *:* CIL module *
 0001:0000ade2       __catch$?System.Data.SQLite.SQLiteConnection.Schema_Indexes@@20031280L90O0O0O$5 1000bde2 f   * CIL library *:* CIL module *
 0001:0000adf0       __catch$?System.Data.SQLite.SQLiteConnection.Schema_Indexes@@20031280L90O0O0O$6 1000bdf0 f   * CIL library *:* CIL module *
 0001:0000ae15       __catch$?System.Data.SQLite.SQLiteConnection.Schema_Indexes@@20031280L90O0O0O$7 1000be15 f   * CIL library *:* CIL module *
 0001:0000ae21       __catch$?System.Data.SQLite.SQLiteConnection.Schema_Indexes@@20031280L90O0O0O$8 1000be21 f   * CIL library *:* CIL module *
 0001:0000ae2f       __catch$?System.Data.SQLite.SQLiteConnection.Schema_Indexes@@20031280L90O0O0O$9 1000be2f f   * CIL library *:* CIL module *
 0001:0000ae3f       __catch$?System.Data.SQLite.SQLiteConnection.Schema_Indexes@@20031280L90O0O0O$10 1000be3f f   * CIL library *:* CIL module *
 0001:0000ae4b       __catch$?System.Data.SQLite.SQLiteConnection.Schema_Indexes@@20031280L90O0O0O$11 1000be4b f   * CIL library *:* CIL module *
 0001:0000bd1b       __catch$?System.Data.SQLite.SQLiteConnection.Schema_IndexColumns@@20041280L90O0O0O0O$0 1000cd1b f   * CIL library *:* CIL module *
 0001:0000bd29       __catch$?System.Data.SQLite.SQLiteConnection.Schema_IndexColumns@@20041280L90O0O0O0O$1 1000cd29 f   * CIL library *:* CIL module *
 0001:0000bd37       __catch$?System.Data.SQLite.SQLiteConnection.Schema_IndexColumns@@20041280L90O0O0O0O$2 1000cd37 f   * CIL library *:* CIL module *
 0001:0000c027       __catch$?System.Data.SQLite.SQLiteConnection.Schema_IndexColumns@@20041280L90O0O0O0O$3 1000d027 f   * CIL library *:* CIL module *
 0001:0000c035       __catch$?System.Data.SQLite.SQLiteConnection.Schema_IndexColumns@@20041280L90O0O0O0O$4 1000d035 f   * CIL library *:* CIL module *
 0001:0000c043       __catch$?System.Data.SQLite.SQLiteConnection.Schema_IndexColumns@@20041280L90O0O0O0O$5 1000d043 f   * CIL library *:* CIL module *
 0001:0000c053       __catch$?System.Data.SQLite.SQLiteConnection.Schema_IndexColumns@@20041280L90O0O0O0O$6 1000d053 f   * CIL library *:* CIL module *
 0001:0000c05f       __catch$?System.Data.SQLite.SQLiteConnection.Schema_IndexColumns@@20041280L90O0O0O0O$7 1000d05f f   * CIL library *:* CIL module *
 0001:0000c078       __catch$?System.Data.SQLite.SQLiteConnection.Schema_IndexColumns@@20041280L90O0O0O0O$8 1000d078 f   * CIL library *:* CIL module *
 0001:0000c084       __catch$?System.Data.SQLite.SQLiteConnection.Schema_IndexColumns@@20041280L90O0O0O0O$9 1000d084 f   * CIL library *:* CIL module *
 0001:0000ce31       __catch$?System.Data.SQLite.SQLiteConnection.Schema_ForeignKeys@@20031280L90O0O0O$0 1000de31 f   * CIL library *:* CIL module *
 0001:0000ce3d       __catch$?System.Data.SQLite.SQLiteConnection.Schema_ForeignKeys@@20031280L90O0O0O$1 1000de3d f   * CIL library *:* CIL module *
 0001:0000ce4b       __catch$?System.Data.SQLite.SQLiteConnection.Schema_ForeignKeys@@20031280L90O0O0O$2 1000de4b f   * CIL library *:* CIL module *
 0001:0000ce59       __catch$?System.Data.SQLite.SQLiteConnection.Schema_ForeignKeys@@20031280L90O0O0O$3 1000de59 f   * CIL library *:* CIL module *
 0001:0000ce69       __catch$?System.Data.SQLite.SQLiteConnection.Schema_ForeignKeys@@20031280L90O0O0O$4 1000de69 f   * CIL library *:* CIL module *
 0001:0000ce75       __catch$?System.Data.SQLite.SQLiteConnection.Schema_ForeignKeys@@20031280L90O0O0O$5 1000de75 f   * CIL library *:* CIL module *
 0001:0000db92       __catch$?System.Data.SQLite.SQLiteConnectionStringBuilder.Initialize@@2001010O$0 1000eb92 f   * CIL library *:* CIL module *
 0001:0000efa9       __catch$?System.Data.SQLite.SQLiteDataReader.Close@@200001$0 1000ffa9 f   * CIL library *:* CIL module *
 0001:0000efb9       __catch$?System.Data.SQLite.SQLiteDataReader.Close@@200001$1 1000ffb9 f   * CIL library *:* CIL module *
 0001:0000efe4       __catch$?System.Data.SQLite.SQLiteDataReader.Close@@200001$2 1000ffe4 f   * CIL library *:* CIL module *
 0001:0000f016       __catch$?System.Data.SQLite.SQLiteDataReader.Close@@200001$3 10010016 f   * CIL library *:* CIL module *
 0001:000109d1       __catch$?System.Data.SQLite.SQLiteDataReader.GetConnection@@000112481280N0$0 100119d1 f   * CIL library *:* CIL module *
 0001:0001167e       __catch$?System.Data.SQLite.SQLiteFunction.ScalarCallback@@200301180818$0 1001267e f   * CIL library *:* CIL module *
 0001:000116b1       __catch$?System.Data.SQLite.SQLiteFunction.ScalarCallback@@200301180818$1 100126b1 f   * CIL library *:* CIL module *
 0001:00011711       __catch$?System.Data.SQLite.SQLiteFunction.CompareCallback@@2005081808180818$0 10012711 f   * CIL library *:* CIL module *
 0001:00011744       __catch$?System.Data.SQLite.SQLiteFunction.CompareCallback@@2005081808180818$1 10012744 f   * CIL library *:* CIL module *
 0001:000117c9       __catch$?System.Data.SQLite.SQLiteFunction.CompareCallback16@@2005081808180818$0 100127c9 f   * CIL library *:* CIL module *
 0001:000117fc       __catch$?System.Data.SQLite.SQLiteFunction.CompareCallback16@@2005081808180818$1 100127fc f   * CIL library *:* CIL module *
 0001:000118d7       __catch$?System.Data.SQLite.SQLiteFunction.StepCallback@@200301180818$0 100128d7 f   * CIL library *:* CIL module *
 0001:000118e8       __catch$?System.Data.SQLite.SQLiteFunction.StepCallback@@200301180818$1 100128e8 f   * CIL library *:* CIL module *
 0001:0001191b       __catch$?System.Data.SQLite.SQLiteFunction.StepCallback@@200301180818$2 1001291b f   * CIL library *:* CIL module *
 0001:000119d8       __catch$?System.Data.SQLite.SQLiteFunction.FinalCallback@@20010118$0 100129d8 f   * CIL library *:* CIL module *
 0001:000119eb       __catch$?System.Data.SQLite.SQLiteFunction.FinalCallback@@20010118$1 100129eb f   * CIL library *:* CIL module *
 0001:00011a20       __catch$?System.Data.SQLite.SQLiteFunction.FinalCallback@@20010118$2 10012a20 f   * CIL library *:* CIL module *
 0001:00011b18       __catch$?System.Data.SQLite.SQLiteFunction..cctor@@000001$0 10012b18 f   * CIL library *:* CIL module *
 0001:00011b9c       __catch$?System.Data.SQLite.SQLiteFunction..cctor@@000001$1 10012b9c f   * CIL library *:* CIL module *
 0001:00014edb       __catch$?System.Data.SQLite.SQLiteTransaction..ctor@@200201124802$0 10015edb f   * CIL library *:* CIL module *
 0001:00014ee7       __catch$?System.Data.SQLite.SQLiteTransaction..ctor@@200201124802$1 10015ee7 f   * CIL library *:* CIL module *
 0001:000150f3       __catch$?System.Data.SQLite.SQLiteTransaction.IssueRollback@@20010102$0 100160f3 f   * CIL library *:* CIL module *
 0001:000150ff       __catch$?System.Data.SQLite.SQLiteTransaction.IssueRollback@@20010102$1 100160ff f   * CIL library *:* CIL module *
 0001:000153ff       __catch$?System.Data.SQLite.UnsafeNativeMethods.GetSettingValue@@00020O0O0O$0 100163ff f   * CIL library *:* CIL module *
 0001:00015428       __catch$?System.Data.SQLite.UnsafeNativeMethods.GetSettingValue@@00020O0O0O$1 10016428 f   * CIL library *:* CIL module *
 0001:0001566e       __catch$?System.Data.SQLite.UnsafeNativeMethods.CheckAssemblyCodeBase@@0002021280N1100O$0 1001666e f   * CIL library *:* CIL module *
 0001:00015693       __catch$?System.Data.SQLite.UnsafeNativeMethods.CheckAssemblyCodeBase@@0002021280N1100O$1 10016693 f   * CIL library *:* CIL module *
 0001:00015728       __catch$?System.Data.SQLite.UnsafeNativeMethods.GetAssemblyDirectory@@00000O$0 10016728 f   * CIL library *:* CIL module *
 0001:0001574d       __catch$?System.Data.SQLite.UnsafeNativeMethods.GetAssemblyDirectory@@00000O$1 1001674d f   * CIL library *:* CIL module *
 0001:000158ca       __catch$?System.Data.SQLite.SQLiteConnectionHandle.ReleaseHandle@@200002$0 100168ca f   * CIL library *:* CIL module *
 0001:000158cf       __catch$?System.Data.SQLite.SQLiteConnectionHandle.ReleaseHandle@@200002$1 100168cf f   * CIL library *:* CIL module *
 0001:000159d0       __catch$?System.Data.SQLite.SQLiteStatementHandle.ReleaseHandle@@200002$0 100169d0 f   * CIL library *:* CIL module *
 0001:000159d5       __catch$?System.Data.SQLite.SQLiteStatementHandle.ReleaseHandle@@200002$1 100169d5 f   * CIL library *:* CIL module *
 0001:00015ac4       __catch$?System.Data.SQLite.SQLiteBackupHandle.ReleaseHandle@@200002$0 10016ac4 f   * CIL library *:* CIL module *
 0001:00015ac9       __catch$?System.Data.SQLite.SQLiteBackupHandle.ReleaseHandle@@200002$1 10016ac9 f   * CIL library *:* CIL module *
 0001:00017d65       __catch$?System.Data.SQLite.SQLiteModule.CreateOrConnect@@20071180O0021818081810181018$0 10018d65 f   * CIL library *:* CIL module *
 0001:00017d71       __catch$?System.Data.SQLite.SQLiteModule.CreateOrConnect@@20071180O0021818081810181018$1 10018d71 f   * CIL library *:* CIL module *
 0001:00017e0a       __catch$?System.Data.SQLite.SQLiteModule.DestroyOrDisconnect@@20021180O00218$0 10018e0a f   * CIL library *:* CIL module *
 0001:00017e4c       __catch$?System.Data.SQLite.SQLiteModule.DestroyOrDisconnect@@20021180O00218$1 10018e4c f   * CIL library *:* CIL module *
 0001:00017e53       __catch$?System.Data.SQLite.SQLiteModule.DestroyOrDisconnect@@20021180O00218$2 10018e53 f   * CIL library *:* CIL module *
 0001:00017ee2       __catch$?System.Data.SQLite.SQLiteModule.SetTableError@@0005021282181802020O$0 10018ee2 f   * CIL library *:* CIL module *
 0001:00017f64       __catch$?System.Data.SQLite.SQLiteModule.SetTableError@@0005021282181802020O$1 10018f64 f   * CIL library *:* CIL module *
 0001:00017f94       __catch$?System.Data.SQLite.SQLiteModule.SetTableError@@0005021282181802020O$2 10018f94 f   * CIL library *:* CIL module *
 0001:00017f9b       __catch$?System.Data.SQLite.SQLiteModule.SetTableError@@0005021282181802020O$3 10018f9b f   * CIL library *:* CIL module *
 0001:000186cc       __catch$?System.Data.SQLite.SQLiteModule.xBestIndex@@20021180O01818$0 100196cc f   * CIL library *:* CIL module *
 0001:00018798       __catch$?System.Data.SQLite.SQLiteModule.xOpen@@20021180O0181018$0 10019798 f   * CIL library *:* CIL module *
 0001:00018816       __catch$?System.Data.SQLite.SQLiteModule.xClose@@20011180O018$0 10019816 f   * CIL library *:* CIL module *
 0001:00018829       __catch$?System.Data.SQLite.SQLiteModule.xClose@@20011180O018$1 10019829 f   * CIL library *:* CIL module *
 0001:000188b1       __catch$?System.Data.SQLite.SQLiteModule.xFilter@@20051180O01808180818$0 100198b1 f   * CIL library *:* CIL module *
 0001:00018919       __catch$?System.Data.SQLite.SQLiteModule.xNext@@20011180O018$0 10019919 f   * CIL library *:* CIL module *
 0001:00018984       __catch$?System.Data.SQLite.SQLiteModule.xEof@@20010818$0 10019984 f   * CIL library *:* CIL module *
 0001:000189f5       __catch$?System.Data.SQLite.SQLiteModule.xColumn@@20031180O0181808$0 100199f5 f   * CIL library *:* CIL module *
 0001:00018a5b       __catch$?System.Data.SQLite.SQLiteModule.xRowId@@20021180O018100K$0 10019a5b f   * CIL library *:* CIL module *
 0001:00018ab8       __catch$?System.Data.SQLite.SQLiteModule.xUpdate@@20041180O0180818100K$0 10019ab8 f   * CIL library *:* CIL module *
 0001:00018b0f       __catch$?System.Data.SQLite.SQLiteModule.xBegin@@20011180O018$0 10019b0f f   * CIL library *:* CIL module *
 0001:00018b63       __catch$?System.Data.SQLite.SQLiteModule.xSync@@20011180O018$0 10019b63 f   * CIL library *:* CIL module *
 0001:00018bb7       __catch$?System.Data.SQLite.SQLiteModule.xCommit@@20011180O018$0 10019bb7 f   * CIL library *:* CIL module *
 0001:00018c0b       __catch$?System.Data.SQLite.SQLiteModule.xRollback@@20011180O018$0 10019c0b f   * CIL library *:* CIL module *
 0001:00018caa       __catch$?System.Data.SQLite.SQLiteModule.xFindFunction@@200508180818101280P81018$0 10019caa f   * CIL library *:* CIL module *
 0001:00018d05       __catch$?System.Data.SQLite.SQLiteModule.xRename@@20021180O01818$0 10019d05 f   * CIL library *:* CIL module *
 0001:00018d5c       __catch$?System.Data.SQLite.SQLiteModule.xSavepoint@@20021180O01808$0 10019d5c f   * CIL library *:* CIL module *
 0001:00018db4       __catch$?System.Data.SQLite.SQLiteModule.xRelease@@20021180O01808$0 10019db4 f   * CIL library *:* CIL module *
 0001:00018e0c       __catch$?System.Data.SQLite.SQLiteModule.xRollbackTo@@20021180O01808$0 10019e0c f   * CIL library *:* CIL module *
 0001:00018f2c       __catch$?System.Data.SQLite.SQLiteModule.Dispose@@20010102$0 10019f2c f   * CIL library *:* CIL module *
 0001:00018f5c       __catch$?System.Data.SQLite.SQLiteModule.Dispose@@20010102$1 10019f5c f   * CIL library *:* CIL module *
 0001:0001a378       $LN18                      1001b378     * CIL library *:* CIL module *
 0001:0001a3b0       _sqlite3pager_get_codecarg 1001b3b0 f   * CIL library *:* CIL module *
 0001:0001a4e0       _soundex                   1001b4e0 f   * CIL library *:* CIL module *
 0001:0001a5b0       _medianIterate             1001b5b0 f   * CIL library *:* CIL module *
 0001:0001a670       _modeIterate               1001b670 f   * CIL library *:* CIL module *
 0001:0001a740       _rad2deg                   1001b740 f   * CIL library *:* CIL module *
 0001:0001a760       _deg2rad                   1001b760 f   * CIL library *:* CIL module *
 0001:0001a780       _coth                      1001b780 f   * CIL library *:* CIL module *
 0001:0001a7b0       _cot                       1001b7b0 f   * CIL library *:* CIL module *
 0001:0001a7d0       _atanh                     1001b7d0 f   * CIL library *:* CIL module *
 0001:0001a800       _asinh                     1001b800 f   * CIL library *:* CIL module *
 0001:0001a840       _acosh                     1001b840 f   * CIL library *:* CIL module *
 0001:0001a880       _sqlite3ReadUtf8           1001b880 f   * CIL library *:* CIL module *
 0001:0001a8e8       $LN12                      1001b8e8     * CIL library *:* CIL module *
 0001:0001a900       _rePeek                    1001b900 f   * CIL library *:* CIL module *
 0001:0001a920       _re_hex                    1001b920 f   * CIL library *:* CIL module *
 0001:0001a970       _re_space_char             1001b970 f   * CIL library *:* CIL module *
 0001:0001a9a0       _re_digit_char             1001b9a0 f   * CIL library *:* CIL module *
 0001:0001a9b0       _re_word_char              1001b9b0 f   * CIL library *:* CIL module *
 0001:0001a9e0       _re_next_char              1001b9e0 f   * CIL library *:* CIL module *
 0001:0001ab50       _re_add_state              1001bb50 f   * CIL library *:* CIL module *
 0001:0001ab80       _totypeCompare2pow63       1001bb80 f   * CIL library *:* CIL module *
 0001:0001abc0       _totypeIsdigit             1001bbc0 f   * CIL library *:* CIL module *
 0001:0001abd0       _totypeIsspace             1001bbd0 f   * CIL library *:* CIL module *
 0001:0001ac00       _doubleCmp                 1001bc00 f   * CIL library *:* CIL module *
 0001:0001ac40       _sameValue                 1001bc40 f   * CIL library *:* CIL module *
 0001:0001ac60       _isInfinity                1001bc60 f   * CIL library *:* CIL module *
 0001:0001ad20       _SortByDimension           1001bd20 f   * CIL library *:* CIL module *
 0001:0001ae90       _SortByDistance            1001be90 f   * CIL library *:* CIL module *
 0001:0001af60       _cellOverlap               1001bf60 f   * CIL library *:* CIL module *
 0001:0001b080       _cellContains              1001c080 f   * CIL library *:* CIL module *
 0001:0001b100       _cellUnion                 1001c100 f   * CIL library *:* CIL module *
 0001:0001b1d0       _cellMargin                1001c1d0 f   * CIL library *:* CIL module *
 0001:0001b230       _cellArea                  1001c230 f   * CIL library *:* CIL module *
 0001:0001b290       _rtreeSearchPointFirst     1001c290 f   * CIL library *:* CIL module *
 0001:0001b2b0       _rtreeSearchPointCompare   1001c2b0 f   * CIL library *:* CIL module *
 0001:0001b2e0       _rtreeLeafConstraint       1001c2e0 f   * CIL library *:* CIL module *
 0001:0001b3bc       $LN18                      1001c3bc     * CIL library *:* CIL module *
 0001:0001b3d0       _rtreeNonleafConstraint    1001c3d0 f   * CIL library *:* CIL module *
 0001:0001b4b0       _rtreeEof                  1001c4b0 f   * CIL library *:* CIL module *
 0001:0001b4c0       _rtreeReference            1001c4c0 f   * CIL library *:* CIL module *
 0001:0001b4d0       _nodeHash                  1001c4d0 f   * CIL library *:* CIL module *
 0001:0001b4f0       _nodeZero                  1001c4f0 f   * CIL library *:* CIL module *
 0001:0001b520       _nodeReference             1001c520 f   * CIL library *:* CIL module *
 0001:0001b530       _writeInt64                1001c530 f   * CIL library *:* CIL module *
 0001:0001b5a0       _writeCoord                1001c5a0 f   * CIL library *:* CIL module *
 0001:0001b5d0       _writeInt16                1001c5d0 f   * CIL library *:* CIL module *
 0001:0001b5e0       _readInt64                 1001c5e0 f   * CIL library *:* CIL module *
 0001:0001b660       _readCoord                 1001c660 f   * CIL library *:* CIL module *
 0001:0001b690       _readInt16                 1001c690 f   * CIL library *:* CIL module *
 0001:0001b6a0       _fts3MatchinfoLcsCb        1001c6a0 f   * CIL library *:* CIL module *
 0001:0001b6c0       _fts3MatchinfoSize         1001c6c0 f   * CIL library *:* CIL module *
 0001:0001b6f0       $LN10                      1001c6f0     * CIL library *:* CIL module *
 0001:0001b6fc       $LN8                       1001c6fc     * CIL library *:* CIL module *
 0001:0001b710       _fts3ColumnlistCount       1001c710 f   * CIL library *:* CIL module *
 0001:0001b740       _fts3ExprPhraseCountCb     1001c740 f   * CIL library *:* CIL module *
 0001:0001b750       _fts3ExprLoadDoclistsCb    1001c750 f   * CIL library *:* CIL module *
 0001:0001b770       _fts3ExprIterate2          1001c770 f   * CIL library *:* CIL module *
 0001:0001b7d0       _fts3ChecksumEntry         1001c7d0 f   * CIL library *:* CIL module *
 0001:0001b890       _fts3Getint                1001c890 f   * CIL library *:* CIL module *
 0001:0001b8c0       _fts3TermCmp               1001c8c0 f   * CIL library *:* CIL module *
 0001:0001b940       _sqlite3Fts3MsrIncrRestart 1001c940 f   * CIL library *:* CIL module *
 0001:0001b990       _fts3PrefixCompress        1001c990 f   * CIL library *:* CIL module *
 0001:0001b9c0       _fts3SegReaderSort         1001c9c0 f   * CIL library *:* CIL module *
 0001:0001ba30       _fts3SegReaderTermCmp      1001ca30 f   * CIL library *:* CIL module *
 0001:0001bad0       _fts3SegReaderDoclistCmpRev 1001cad0 f   * CIL library *:* CIL module *
 0001:0001bb30       _fts3SegReaderDoclistCmp   1001cb30 f   * CIL library *:* CIL module *
 0001:0001bb90       _fts3SegReaderCmp          1001cb90 f   * CIL library *:* CIL module *
 0001:0001bca0       _fts3CompareElemByTerm     1001cca0 f   * CIL library *:* CIL module *
 0001:0001bd30       _getAbsoluteLevel          1001cd30 f   * CIL library *:* CIL module *
 0001:0001bd60       _fts3tokRowidMethod        1001cd60 f   * CIL library *:* CIL module *
 0001:0001bd80       _fts3tokEofMethod          1001cd80 f   * CIL library *:* CIL module *
 0001:0001bd90       _fts3tokBestIndexMethod    1001cd90 f   * CIL library *:* CIL module *
 0001:0001be00       _sqlite3Fts3SimpleTokenizerModule 1001ce00 f   * CIL library *:* CIL module *
 0001:0001be10       _fts3_isalnum              1001ce10 f   * CIL library *:* CIL module *
 0001:0001be40       _simpleDelim               1001ce40 f   * CIL library *:* CIL module *
 0001:0001be60       _sqlite3Fts3IsIdChar       1001ce60 f   * CIL library *:* CIL module *
 0001:0001be80       _sqlite3Fts3PorterTokenizerModule 1001ce80 f   * CIL library *:* CIL module *
 0001:0001be90       _copy_stemmer              1001ce90 f   * CIL library *:* CIL module *
 0001:0001bf30       _stem                      1001cf30 f   * CIL library *:* CIL module *
 0001:0001bf90       _isVowel                   1001cf90 f   * CIL library *:* CIL module *
 0001:0001bfc0       _isConsonant               1001cfc0 f   * CIL library *:* CIL module *
 0001:0001bff0       _fts3HashInsertElement     1001cff0 f   * CIL library *:* CIL module *
 0001:0001c060       _fts3BinCompare            1001d060 f   * CIL library *:* CIL module *
 0001:0001c0d0       _fts3BinHash               1001d0d0 f   * CIL library *:* CIL module *
 0001:0001c100       _fts3StrCompare            1001d100 f   * CIL library *:* CIL module *
 0001:0001c130       _fts3StrHash               1001d130 f   * CIL library *:* CIL module *
 0001:0001c180       _sqlite3Fts3HashInit       1001d180 f   * CIL library *:* CIL module *
 0001:0001c1b0       _fts3ExprCheckDepth        1001d1b0 f   * CIL library *:* CIL module *
 0001:0001c1f0       _opPrecedence              1001d1f0 f   * CIL library *:* CIL module *
 0001:0001c210       _sqlite3Fts3OpenTokenizer  1001d210 f   * CIL library *:* CIL module *
 0001:0001c2a0       _fts3isspace               1001d2a0 f   * CIL library *:* CIL module *
 0001:0001c2d0       _fts3auxRowidMethod        1001d2d0 f   * CIL library *:* CIL module *
 0001:0001c2f0       _fts3auxEofMethod          1001d2f0 f   * CIL library *:* CIL module *
 0001:0001c300       _fts3auxBestIndexMethod    1001d300 f   * CIL library *:* CIL module *
 0001:0001c480       _fts3ReleaseMethod         1001d480 f   * CIL library *:* CIL module *
 0001:0001c490       _fts3ReversePoslist        1001d490 f   * CIL library *:* CIL module *
 0001:0001c4e0       _fts3CommitMethod          1001d4e0 f   * CIL library *:* CIL module *
 0001:0001c4f0       _fts3RowidMethod           1001d4f0 f   * CIL library *:* CIL module *
 0001:0001c510       _fts3EofMethod             1001d510 f   * CIL library *:* CIL module *
 0001:0001c520       _fts3ColumnlistCopy        1001d520 f   * CIL library *:* CIL module *
 0001:0001c590       _fts3PoslistCopy           1001d590 f   * CIL library *:* CIL module *
 0001:0001c600       _fts3GobbleInt             1001d600 f   * CIL library *:* CIL module *
 0001:0001c650       _sqlite3Fts3Dequote        1001d650 f   * CIL library *:* CIL module *
 0001:0001c6d0       _sqlite3Fts3VarintLen      1001d6d0 f   * CIL library *:* CIL module *
 0001:0001c700       _sqlite3Fts3GetVarint32    1001d700 f   * CIL library *:* CIL module *
 0001:0001c780       _sqlite3Fts3GetVarint      1001d780 f   * CIL library *:* CIL module *
 0001:0001c890       _sqlite3Fts3PutVarint      1001d890 f   * CIL library *:* CIL module *
 0001:0001c940       _sqlite3TempInMemory       1001d940 f   * CIL library *:* CIL module *
 0001:0001c970       _sqlite3InvokeBusyHandler  1001d970 f   * CIL library *:* CIL module *
 0001:0001c9b0       _sqlite3ErrStr             1001d9b0 f   * CIL library *:* CIL module *
 0001:0001ca00       _allSpaces                 1001da00 f   * CIL library *:* CIL module *
 0001:0001ca70       _yy_find_reduce_action     1001da70 f   * CIL library *:* CIL module *
 0001:0001ca90       _yy_find_shift_action      1001da90 f   * CIL library *:* CIL module *
 0001:0001cb20       _sqlite3ParserAlloc        1001db20 f   * CIL library *:* CIL module *
 0001:0001cb40       _spanSet                   1001db40 f   * CIL library *:* CIL module *
 0001:0001cb60       _sqlite3WhereIsSorted      1001db60 f   * CIL library *:* CIL module *
 0001:0001cb70       _columnsInIndex            1001db70 f   * CIL library *:* CIL module *
 0001:0001cbe0       _whereLoopOutputAdjust     1001dbe0 f   * CIL library *:* CIL module *
 0001:0001ccb0       _whereLoopFindLesser       1001dcb0 f   * CIL library *:* CIL module *
 0001:0001cd40       _whereLoopCheaperProperSubset 1001dd40 f   * CIL library *:* CIL module *
 0001:0001cdc0       _whereLoopInit             1001ddc0 f   * CIL library *:* CIL module *
 0001:0001cde0       _disableTerm               1001dde0 f   * CIL library *:* CIL module *
 0001:0001ce30       _whereRangeAdjust          1001de30 f   * CIL library *:* CIL module *
 0001:0001ce60       _transferJoinMarkings      1001de60 f   * CIL library *:* CIL module *
 0001:0001ce80       _operatorMask              1001de80 f   * CIL library *:* CIL module *
 0001:0001ceb0       _allowedOp                 1001deb0 f   * CIL library *:* CIL module *
 0001:0001ced0       _exprListTableUsage        1001ded0 f   * CIL library *:* CIL module *
 0001:0001cf40       _createMask                1001df40 f   * CIL library *:* CIL module *
 0001:0001cf50       _getMask                   1001df50 f   * CIL library *:* CIL module *
 0001:0001cf90       _whereClauseInit           1001df90 f   * CIL library *:* CIL module *
 0001:0001cfb0       _whereOrInsert             1001dfb0 f   * CIL library *:* CIL module *
 0001:0001d0b0       _whereOrMove               1001e0b0 f   * CIL library *:* CIL module *
 0001:0001d0d0       _sqlite3WhereOkOnePass     1001e0d0 f   * CIL library *:* CIL module *
 0001:0001d0e0       _sqlite3WhereBreakLabel    1001e0e0 f   * CIL library *:* CIL module *
 0001:0001d0f0       _sqlite3WhereContinueLabel 1001e0f0 f   * CIL library *:* CIL module *
 0001:0001d100       _sqlite3WhereIsOrdered     1001e100 f   * CIL library *:* CIL module *
 0001:0001d110       _sqlite3WhereIsDistinct    1001e110 f   * CIL library *:* CIL module *
 0001:0001d140       _sqlite3VtabSavepoint      1001e140 f   * CIL library *:* CIL module *
 0001:0001d1d0       _sqlite3VtabArgExtend      1001e1d0 f   * CIL library *:* CIL module *
 0001:0001d200       _vtabDisconnectAll         1001e200 f   * CIL library *:* CIL module *
 0001:0001d250       _sqlite3GetVTable          1001e250 f   * CIL library *:* CIL module *
 0001:0001d270       _sqlite3VtabLock           1001e270 f   * CIL library *:* CIL module *
 0001:0001d280       _exprWalkNoop              1001e280 f   * CIL library *:* CIL module *
 0001:0001d290       _sqlite3WithPush           1001e290 f   * CIL library *:* CIL module *
 0001:0001d2c0       _isSimpleCount             1001e2c0 f   * CIL library *:* CIL module *
 0001:0001d320       _substExprList             1001e320 f   * CIL library *:* CIL module *
 0001:0001d370       _selectOpName              1001e370 f   * CIL library *:* CIL module *
 0001:0001d3a0       _sqlite3KeyInfoRef         1001e3a0 f   * CIL library *:* CIL module *
 0001:0001d3b0       _setJoinExpr               1001e3b0 f   * CIL library *:* CIL module *
 0001:0001d3e0       _findRightmost             1001e3e0 f   * CIL library *:* CIL module *
 0001:0001d400       _sqlite3SelectDestInit     1001e400 f   * CIL library *:* CIL module *
 0001:0001d460       _sqlite3SchemaToIndex      1001e460 f   * CIL library *:* CIL module *
 0001:0001d490       _sqlite3JournalModename    1001e490 f   * CIL library *:* CIL module *
 0001:0001d4a0       _actionName                1001e4a0 f   * CIL library *:* CIL module *
 0001:0001d4d0       $LN11                      1001e4d0     * CIL library *:* CIL module *
 0001:0001d4e0       _fkChildIsModified         1001e4e0 f   * CIL library *:* CIL module *
 0001:0001d540       _sqlite3SkipAccumulatorLoad 1001e540 f   * CIL library *:* CIL module *
 0001:0001d550       _sqlite3GetFuncCollSeq     1001e550 f   * CIL library *:* CIL module *
 0001:0001d560       _matchQuality              1001e560 f   * CIL library *:* CIL module *
 0001:0001d5d0       _sqlite3MayAbort           1001e5d0 f   * CIL library *:* CIL module *
 0001:0001d5e0       _sqlite3MultiWrite         1001e5e0 f   * CIL library *:* CIL module *
 0001:0001d5f0       _sqlite3SrcListShiftJoinType 1001e5f0 f   * CIL library *:* CIL module *
 0001:0001d630       _sqlite3SrcListAssignCursors 1001e630 f   * CIL library *:* CIL module *
 0001:0001d690       _sqlite3DefaultRowEst      1001e690 f   * CIL library *:* CIL module *
 0001:0001d730       _sqlite3DeferForeignKey    1001e730 f   * CIL library *:* CIL module *
 0001:0001d750       _sqlite3RootPageMoved      1001e750 f   * CIL library *:* CIL module *
 0001:0001d7b0       _hasColumn                 1001e7b0 f   * CIL library *:* CIL module *
 0001:0001d7e0       _identLength               1001e7e0 f   * CIL library *:* CIL module *
 0001:0001d800       _sqlite3AddNotNull         1001e800 f   * CIL library *:* CIL module *
 0001:0001d830       _sqlite3ColumnOfIndex      1001e830 f   * CIL library *:* CIL module *
 0001:0001d860       _sqlite3PrimaryKeyIndex    1001e860 f   * CIL library *:* CIL module *
 0001:0001d880       _sqlite3CommitInternalChanges 1001e880 f   * CIL library *:* CIL module *
 0001:0001d890       _sqlite3BeginParse         1001e890 f   * CIL library *:* CIL module *
 0001:0001d8b0       _sqlite3AuthContextPop     1001e8b0 f   * CIL library *:* CIL module *
 0001:0001d8d0       _sqlite3AuthContextPush    1001e8d0 f   * CIL library *:* CIL module *
 0001:0001d8f0       _sqlite3FixExprList        1001e8f0 f   * CIL library *:* CIL module *
 0001:0001d940       _sqlite3FixInit            1001e940 f   * CIL library *:* CIL module *
 0001:0001d980       _initAvgEq                 1001e980 f   * CIL library *:* CIL module *
 0001:0001da60       _sampleIsBetterPost        1001ea60 f   * CIL library *:* CIL module *
 0001:0001dad0       _sqlite3ClearTempRegCache  1001ead0 f   * CIL library *:* CIL module *
 0001:0001dae0       _sqlite3GetTempRange       1001eae0 f   * CIL library *:* CIL module *
 0001:0001db10       _sqlite3ReleaseTempReg     1001eb10 f   * CIL library *:* CIL module *
 0001:0001db50       _sqlite3GetTempReg         1001eb50 f   * CIL library *:* CIL module *
 0001:0001db70       _analyzeAggregatesInSelect 1001eb70 f   * CIL library *:* CIL module *
 0001:0001db80       _exprSrcCount              1001eb80 f   * CIL library *:* CIL module *
 0001:0001dbd0       _sqlite3ExprListCompare    1001ebd0 f   * CIL library *:* CIL module *
 0001:0001dc60       _sqlite3ExprCompare        1001ec60 f   * CIL library *:* CIL module *
 0001:0001de00       _exprToRegister            1001ee00 f   * CIL library *:* CIL module *
 0001:0001de20       _sqlite3ExprCachePinRegister 1001ee20 f   * CIL library *:* CIL module *
 0001:0001dec0       _sqlite3ExprCachePush      1001eec0 f   * CIL library *:* CIL module *
 0001:0001ded0       _sqlite3ExprCacheStore     1001eed0 f   * CIL library *:* CIL module *
 0001:0001e020       _cacheEntryClear           1001f020 f   * CIL library *:* CIL module *
 0001:0001e050       _isCandidateForInOpt       1001f050 f   * CIL library *:* CIL module *
 0001:0001e0a0       _sqlite3ExprNeedsNoAffinityChange 1001f0a0 f   * CIL library *:* CIL module *
 0001:0001e104       $LN34                      1001f104     * CIL library *:* CIL module *
 0001:0001e11c       $LN27                      1001f11c     * CIL library *:* CIL module *
 0001:0001e160       _sqlite3ExprCanBeNull      1001f160 f   * CIL library *:* CIL module *
 0001:0001e190       _sqlite3ExprIsInteger      1001f190 f   * CIL library *:* CIL module *
 0001:0001e200       _selectNodeIsConstant      1001f200 f   * CIL library *:* CIL module *
 0001:0001e220       _exprNodeIsConstant        1001f220 f   * CIL library *:* CIL module *
 0001:0001e274       $LN13                      1001f274     * CIL library *:* CIL module *
 0001:0001e280       $LN11                      1001f280     * CIL library *:* CIL module *
 0001:0001e310       _dupedExprStructSize       1001f310 f   * CIL library *:* CIL module *
 0001:0001e330       _exprStructSize            1001f330 f   * CIL library *:* CIL module *
 0001:0001e350       _exprAlwaysFalse           1001f350 f   * CIL library *:* CIL module *
 0001:0001e380       _exprAlwaysTrue            1001f380 f   * CIL library *:* CIL module *
 0001:0001e3b0       _heightOfExpr              1001f3b0 f   * CIL library *:* CIL module *
 0001:0001e3c0       _sqlite3ExprSkipCollate    1001f3c0 f   * CIL library *:* CIL module *
 0001:0001e3f0       _incrAggDepth              1001f3f0 f   * CIL library *:* CIL module *
 0001:0001e410       _sqlite3WalkSelectFrom     1001f410 f   * CIL library *:* CIL module *
 0001:0001e450       _sqlite3WalkExprList       1001f450 f   * CIL library *:* CIL module *
 0001:0001e490       _sqlite3WalkExpr           1001f490 f   * CIL library *:* CIL module *
 0001:0001e510       _sqlite3MemJournalSize     1001f510 f   * CIL library *:* CIL module *
 0001:0001e520       _sqlite3IsMemJournal       1001f520 f   * CIL library *:* CIL module *
 0001:0001e530       _sqlite3MemJournalOpen     1001f530 f   * CIL library *:* CIL module *
 0001:0001e560       _memjrnlFileSize           1001f560 f   * CIL library *:* CIL module *
 0001:0001e580       _memjrnlSync               1001f580 f   * CIL library *:* CIL module *
 0001:0001e590       _memjrnlRead               1001f590 f   * CIL library *:* CIL module *
 0001:0001e680       _vdbeSorterRowkey          1001f680 f   * CIL library *:* CIL module *
 0001:0001e760       _sqlite3VdbeParameterIndex 1001f760 f   * CIL library *:* CIL module *
 0001:0001e820       _columnNullValue           1001f820 f   * CIL library *:* CIL module *
 0001:0001e920       _sqlite3VdbeSetVarmask     1001f920 f   * CIL library *:* CIL module *
 0001:0001e950       _sqlite3VdbeDb             1001f950 f   * CIL library *:* CIL module *
 0001:0001e960       _sqlite3ExpirePreparedStatements 1001f960 f   * CIL library *:* CIL module *
 0001:0001e980       _sqlite3VdbeCountChanges   1001f980 f   * CIL library *:* CIL module *
 0001:0001e990       _sqlite3VdbeSetChanges     1001f990 f   * CIL library *:* CIL module *
 0001:0001e9a0       _vdbeRecordDecodeInt       1001f9a0 f   * CIL library *:* CIL module *
 0001:0001ea94       $LN12                      1001fa94     * CIL library *:* CIL module *
 0001:0001eab0       _sqlite3VdbeSerialTypeLen  1001fab0 f   * CIL library *:* CIL module *
 0001:0001ead0       _sqlite3VdbeSerialType     1001fad0 f   * CIL library *:* CIL module *
 0001:0001ebe0       _sqlite3VdbeResetStepResult 1001fbe0 f   * CIL library *:* CIL module *
 0001:0001ebf0       _sqlite3VdbeFrameRestore   1001fbf0 f   * CIL library *:* CIL module *
 0001:0001ec50       _sqlite3VdbeRewind         1001fc50 f   * CIL library *:* CIL module *
 0001:0001eca0       _allocSpace                1001fca0 f   * CIL library *:* CIL module *
 0001:0001ece0       _sqlite3VdbeGetOp          1001fce0 f   * CIL library *:* CIL module *
 0001:0001ed10       _sqlite3VdbeLinkSubProgram 1001fd10 f   * CIL library *:* CIL module *
 0001:0001ed20       _sqlite3VdbeChangeP5       1001fd20 f   * CIL library *:* CIL module *
 0001:0001ed40       _sqlite3VdbeChangeP3       1001fd40 f   * CIL library *:* CIL module *
 0001:0001ed60       _sqlite3VdbeChangeP2       1001fd60 f   * CIL library *:* CIL module *
 0001:0001ed80       _sqlite3VdbeChangeP1       1001fd80 f   * CIL library *:* CIL module *
 0001:0001eda0       _sqlite3VdbeCurrentAddr    1001fda0 f   * CIL library *:* CIL module *
 0001:0001edb0       _sqlite3VdbeRunOnlyOnce    1001fdb0 f   * CIL library *:* CIL module *
 0001:0001edc0       _sqlite3VdbeResolveLabel   1001fdc0 f   * CIL library *:* CIL module *
 0001:0001edf0       _sqlite3VdbeSwap           1001fdf0 f   * CIL library *:* CIL module *
 0001:0001ee90       _sqlite3VdbeMemTooBig      1001fe90 f   * CIL library *:* CIL module *
 0001:0001eec0       _doubleToInt64             1001fec0 f   * CIL library *:* CIL module *
 0001:0001ef40       _sqlite3BackupRestart      1001ff40 f   * CIL library *:* CIL module *
 0001:0001ef80       _isFatalError              1001ff80 f   * CIL library *:* CIL module *
 0001:0001efa0       _sqlite3BtreeIsReadonly    1001ffa0 f   * CIL library *:* CIL module *
 0001:0001efb0       _sqlite3BtreeCursorHints   1001ffb0 f   * CIL library *:* CIL module *
 0001:0001efc0       _sqlite3BtreeIncrblobCursor 1001ffc0 f   * CIL library *:* CIL module *
 0001:0001efd0       _sqlite3BtreeIsInBackup    1001ffd0 f   * CIL library *:* CIL module *
 0001:0001efe0       _sqlite3BtreeIsInReadTrans 1001ffe0 f   * CIL library *:* CIL module *
 0001:0001eff0       _sqlite3BtreeIsInTrans     1001fff0 f   * CIL library *:* CIL module *
 0001:0001f010       _setPageReferenced         10020010 f   * CIL library *:* CIL module *
 0001:0001f030       _getPageReferenced         10020030 f   * CIL library *:* CIL module *
 0001:0001f050       _sqlite3BtreePager         10020050 f   * CIL library *:* CIL module *
 0001:0001f060       _assemblePage              10020060 f   * CIL library *:* CIL module *
 0001:0001f100       _sqlite3BtreeEof           10020100 f   * CIL library *:* CIL module *
 0001:0001f110       _fetchPayload              10020110 f   * CIL library *:* CIL module *
 0001:0001f120       _sqlite3BtreeCursorZero    10020120 f   * CIL library *:* CIL module *
 0001:0001f130       _sqlite3BtreeCursorSize    10020130 f   * CIL library *:* CIL module *
 0001:0001f140       _sqlite3BtreeGetReserveNoMutex 10020140 f   * CIL library *:* CIL module *
 0001:0001f150       _sqlite3BtreeGetPageSize   10020150 f   * CIL library *:* CIL module *
 0001:0001f160       _btreeInvokeBusyHandler    10020160 f   * CIL library *:* CIL module *
 0001:0001f180       _btreePagecount            10020180 f   * CIL library *:* CIL module *
 0001:0001f190       _findOverflowCell          10020190 f   * CIL library *:* CIL module *
 0001:0001f1e0       _ptrmapPageno              100201e0 f   * CIL library *:* CIL module *
 0001:0001f230       _invalidateIncrblobCursors 10020230 f   * CIL library *:* CIL module *
 0001:0001f270       _invalidateAllOverflowCache 10020270 f   * CIL library *:* CIL module *
 0001:0001f290       _downgradeAllSharedCacheTableLocks 10020290 f   * CIL library *:* CIL module *
 0001:0001f2c0       _querySharedCacheTableLock 100202c0 f   * CIL library *:* CIL module *
 0001:0001f330       _sqlite3BtreeSharable      10020330 f   * CIL library *:* CIL module *
 0001:0001f340       _sqlite3WalHeapMemory      10020340 f   * CIL library *:* CIL module *
 0001:0001f360       _sqlite3WalCallback        10020360 f   * CIL library *:* CIL module *
 0001:0001f380       _sqlite3WalSavepoint       10020380 f   * CIL library *:* CIL module *
 0001:0001f3a0       _sqlite3WalDbsize          100203a0 f   * CIL library *:* CIL module *
 0001:0001f3c0       _walPagesize               100203c0 f   * CIL library *:* CIL module *
 0001:0001f3e0       _walMerge                  100203e0 f   * CIL library *:* CIL module *
 0001:0001f4b0       _walIteratorNext           100204b0 f   * CIL library *:* CIL module *
 0001:0001f550       _sqlite3WalLimit           10020550 f   * CIL library *:* CIL module *
 0001:0001f570       _walFramePage              10020570 f   * CIL library *:* CIL module *
 0001:0001f580       _walNextHash               10020580 f   * CIL library *:* CIL module *
 0001:0001f590       _walHash                   10020590 f   * CIL library *:* CIL module *
 0001:0001f5a0       _walChecksumBytes          100205a0 f   * CIL library *:* CIL module *
 0001:0001f660       _walIndexHdr               10020660 f   * CIL library *:* CIL module *
 0001:0001f670       _walCkptInfo               10020670 f   * CIL library *:* CIL module *
 0001:0001f680       _sqlite3PagerWalSupported  10020680 f   * CIL library *:* CIL module *
 0001:0001f6a0       _sqlite3PagerWalCallback   100206a0 f   * CIL library *:* CIL module *
 0001:0001f6c0       _sqlite3PagerBackupPtr     100206c0 f   * CIL library *:* CIL module *
 0001:0001f6d0       _sqlite3PagerJournalSizeLimit 100206d0 f   * CIL library *:* CIL module *
 0001:0001f720       _sqlite3PagerOkToChangeJournalMode 10020720 f   * CIL library *:* CIL module *
 0001:0001f750       _sqlite3PagerGetJournalMode 10020750 f   * CIL library *:* CIL module *
 0001:0001f760       _sqlite3PagerLockingMode   10020760 f   * CIL library *:* CIL module *
 0001:0001f790       _sqlite3PagerGetExtra      10020790 f   * CIL library *:* CIL module *
 0001:0001f7a0       _sqlite3PagerGetData       100207a0 f   * CIL library *:* CIL module *
 0001:0001f7b0       _sqlite3PagerCodec         100207b0 f   * CIL library *:* CIL module *
 0001:0001f7e0       _sqlite3PagerGetCodec      100207e0 f   * CIL library *:* CIL module *
 0001:0001f7f0       _sqlite3PagerNosync        100207f0 f   * CIL library *:* CIL module *
 0001:0001f800       _sqlite3PagerJournalname   10020800 f   * CIL library *:* CIL module *
 0001:0001f810       _sqlite3PagerFile          10020810 f   * CIL library *:* CIL module *
 0001:0001f820       _sqlite3PagerVfs           10020820 f   * CIL library *:* CIL module *
 0001:0001f830       _sqlite3PagerFilename      10020830 f   * CIL library *:* CIL module *
 0001:0001f850       _sqlite3PagerIsMemdb       10020850 f   * CIL library *:* CIL module *
 0001:0001f860       _sqlite3PagerCacheStat     10020860 f   * CIL library *:* CIL module *
 0001:0001f890       _sqlite3PagerIsreadonly    10020890 f   * CIL library *:* CIL module *
 0001:0001f8a0       _sqlite3PagerDontWrite     100208a0 f   * CIL library *:* CIL module *
 0001:0001f8c0       _sqlite3PagerTruncateImage 100208c0 f   * CIL library *:* CIL module *
 0001:0001f8d0       _sqlite3PagerPagecount     100208d0 f   * CIL library *:* CIL module *
 0001:0001f8e0       _sqlite3PagerMaxPageCount  100208e0 f   * CIL library *:* CIL module *
 0001:0001f900       _sqlite3PagerTempSpace     10020900 f   * CIL library *:* CIL module *
 0001:0001f910       _sqlite3PagerSetFlags      10020910 f   * CIL library *:* CIL module *
 0001:0001f9a0       _pagerReportSize           100209a0 f   * CIL library *:* CIL module *
 0001:0001f9d0       _pager_cksum               100209d0 f   * CIL library *:* CIL module *
 0001:0001fa50       _pager_error               10020a50 f   * CIL library *:* CIL module *
 0001:0001fa70       _journalHdrOffset          10020a70 f   * CIL library *:* CIL module *
 0001:0001fad0       _pagerUseWal               10020ad0 f   * CIL library *:* CIL module *
 0001:0001fae0       _rowSetNDeepTree           10020ae0 f   * CIL library *:* CIL module *
 0001:0001fb40       _rowSetTreeToList          10020b40 f   * CIL library *:* CIL module *
 0001:0001fb80       _rowSetEntryMerge          10020b80 f   * CIL library *:* CIL module *
 0001:0001fbf0       _sqlite3RowSetInit         10020bf0 f   * CIL library *:* CIL module *
 0001:0001fc40       _pcache1Shutdown           10020c40 f   * CIL library *:* CIL module *
 0001:0001fc60       _pcache1RemoveFromHash     10020c60 f   * CIL library *:* CIL module *
 0001:0001fc90       _pcache1PinPage            10020c90 f   * CIL library *:* CIL module *
 0001:0001fce0       _sqlite3PCacheBufferSetup  10020ce0 f   * CIL library *:* CIL module *
 0001:0001fd60       _sqlite3PcacheShrink       10020d60 f   * CIL library *:* CIL module *
 0001:0001fd70       _sqlite3PcachePagecount    10020d70 f   * CIL library *:* CIL module *
 0001:0001fd90       _sqlite3PcachePageRefcount 10020d90 f   * CIL library *:* CIL module *
 0001:0001fda0       _sqlite3PcacheRefCount     10020da0 f   * CIL library *:* CIL module *
 0001:0001fdb0       _pcacheMergeDirtyList      10020db0 f   * CIL library *:* CIL module *
 0001:0001fe10       _sqlite3PcacheClose        10020e10 f   * CIL library *:* CIL module *
 0001:0001fe20       _sqlite3PcacheClearSyncFlags 10020e20 f   * CIL library *:* CIL module *
 0001:0001fe50       _sqlite3PcacheRef          10020e50 f   * CIL library *:* CIL module *
 0001:0001fe60       _numberOfCachePages        10020e60 f   * CIL library *:* CIL module *
 0001:0001fea0       _sqlite3PcacheSetPageSize  10020ea0 f   * CIL library *:* CIL module *
 0001:0001fed0       _sqlite3PcacheOpen         10020ed0 f   * CIL library *:* CIL module *
 0001:0001ff20       _sqlite3PcacheSize         10020f20 f   * CIL library *:* CIL module *
 0001:0001ff30       _sqlite3PcacheShutdown     10020f30 f   * CIL library *:* CIL module *
 0001:0001ff50       _pcacheUnpin               10020f50 f   * CIL library *:* CIL module *
 0001:0001ff80       _pcacheAddToDirtyList      10020f80 f   * CIL library *:* CIL module *
 0001:0001ffc0       _pcacheRemoveFromDirtyList 10020fc0 f   * CIL library *:* CIL module *
 0001:00020030       _sqlite3BitvecSize         10021030 f   * CIL library *:* CIL module *
 0001:00020040       _sqlite3BitvecClear        10021040 f   * CIL library *:* CIL module *
 0001:00020110       _sqlite3BitvecTest         10021110 f   * CIL library *:* CIL module *
 0001:000201c0       _winCurrentTimeInt64       100211c0 f   * CIL library *:* CIL module *
 0001:00020210       _winRandomness             10021210 f   * CIL library *:* CIL module *
 0001:000202d0       _winDlClose                100212d0 f   * CIL library *:* CIL module *
 0001:000202e0       _winDlSym                  100212e0 f   * CIL library *:* CIL module *
 0001:00020300       _winIsDriveLetterAndColon  10021300 f   * CIL library *:* CIL module *
 0001:00020320       _winDeviceCharacteristics  10021320 f   * CIL library *:* CIL module *
 0001:00020340       _winSectorSize             10021340 f   * CIL library *:* CIL module *
 0001:00020350       _winModeBit                10021350 f   * CIL library *:* CIL module *
 0001:00020380       _winMemRoundup             10021380 f   * CIL library *:* CIL module *
 0001:00020390       _osIsNT                    10021390 f   * CIL library *:* CIL module *
 0001:00020480       _winNextSystemCall         10021480 f   * CIL library *:* CIL module *
 0001:00020510       _winGetSystemCall          10021510 f   * CIL library *:* CIL module *
 0001:00020580       _winSetSystemCall          10021580 f   * CIL library *:* CIL module *
 0001:00020670       _sqlite3OpcodeName         10021670 f   * CIL library *:* CIL module *
 0001:00020680       _insertElement             10021680 f   * CIL library *:* CIL module *
 0001:000206f0       _strHash                   100216f0 f   * CIL library *:* CIL module *
 0001:00020730       _sqlite3HashInit           10021730 f   * CIL library *:* CIL module *
 0001:00020750       _sqlite3LogEstToInt        10021750 f   * CIL library *:* CIL module *
 0001:000207e0       _sqlite3LogEst             100217e0 f   * CIL library *:* CIL module *
 0001:00020890       _sqlite3LogEstAdd          10021890 f   * CIL library *:* CIL module *
 0001:000208f0       _sqlite3AbsInt32           100218f0 f   * CIL library *:* CIL module *
 0001:00020910       _sqlite3AddInt64           10021910 f   * CIL library *:* CIL module *
 0001:000209b0       _sqlite3HexToInt           100219b0 f   * CIL library *:* CIL module *
 0001:000209d0       _sqlite3Put4byte           100219d0 f   * CIL library *:* CIL module *
 0001:000209f0       _sqlite3Get4byte           100219f0 f   * CIL library *:* CIL module *
 0001:00020a10       _sqlite3VarintLen          10021a10 f   * CIL library *:* CIL module *
 0001:00020a40       _sqlite3GetVarint          10021a40 f   * CIL library *:* CIL module *
 0001:00020bc0       _sqlite3PutVarint          10021bc0 f   * CIL library *:* CIL module *
 0001:00020cc0       _sqlite3GetInt32           10021cc0 f   * CIL library *:* CIL module *
 0001:00020da0       _compare2pow63             10021da0 f   * CIL library *:* CIL module *
 0001:00020df0       _sqlite3AtoF               10021df0 f   * CIL library *:* CIL module *
 0001:00021520       _sqlite3Dequote            10022520 f   * CIL library *:* CIL module *
 0001:0002157c       $LN23                      1002257c     * CIL library *:* CIL module *
 0001:00021588       $LN20                      10022588     * CIL library *:* CIL module *
 0001:000215d0       _sqlite3Strlen30           100225d0 f   * CIL library *:* CIL module *
 0001:000215f0       _sqlite3IsNaN              100225f0 f   * CIL library *:* CIL module *
 0001:00021630       _sqlite3FaultSim           10022630 f   * CIL library *:* CIL module *
 0001:00021650       _sqlite3Utf16ByteLen       10022650 f   * CIL library *:* CIL module *
 0001:00021690       _sqlite3Utf8CharLen        10022690 f   * CIL library *:* CIL module *
 0001:000216d0       _sqlite3Utf8Read           100226d0 f   * CIL library *:* CIL module *
 0001:00021740       _sqlite3PrngRestoreState   10022740 f   * CIL library *:* CIL module *
 0001:00021760       _sqlite3PrngSaveState      10022760 f   * CIL library *:* CIL module *
 0001:00021780       _sqlite3StrAccumInit       10022780 f   * CIL library *:* CIL module *
 0001:000217b0       _setStrAccumError          100227b0 f   * CIL library *:* CIL module *
 0001:000217c0       _et_getdigit               100227c0 f   * CIL library *:* CIL module *
 0001:00021800       _sqlite3MallocSize         10022800 f   * CIL library *:* CIL module *
 0001:00021810       _isLookaside               10022810 f   * CIL library *:* CIL module *
 0001:00021830       _sqlite3MallocEnd          10022830 f   * CIL library *:* CIL module *
 0001:00021870       _sqlite3HeapNearlyFull     10022870 f   * CIL library *:* CIL module *
 0001:00021880       _winMutexLeave             10022880 f   * CIL library *:* CIL module *
 0001:00021890       _winMutexTry               10022890 f   * CIL library *:* CIL module *
 0001:000218a0       _winMutexEnter             100228a0 f   * CIL library *:* CIL module *
 0001:000218b0       _winMutexEnd               100228b0 f   * CIL library *:* CIL module *
 0001:00021900       _winMutexInit              10022900 f   * CIL library *:* CIL module *
 0001:00021960       _noopMutexLeave            10022960 f   * CIL library *:* CIL module *
 0001:00021970       _noopMutexTry              10022970 f   * CIL library *:* CIL module *
 0001:00021980       _noopMutexEnter            10022980 f   * CIL library *:* CIL module *
 0001:00021990       _noopMutexFree             10022990 f   * CIL library *:* CIL module *
 0001:000219a0       _noopMutexAlloc            100229a0 f   * CIL library *:* CIL module *
 0001:000219b0       _noopMutexEnd              100229b0 f   * CIL library *:* CIL module *
 0001:000219c0       _noopMutexInit             100229c0 f   * CIL library *:* CIL module *
 0001:00021a50       _sqlite3MutexAlloc         10022a50 f   * CIL library *:* CIL module *
 0001:00021a90       _sqlite3MutexEnd           10022a90 f   * CIL library *:* CIL module *
 0001:00021aa0       _sqlite3EndBenignMalloc    10022aa0 f   * CIL library *:* CIL module *
 0001:00021ab0       _sqlite3BeginBenignMalloc  10022ab0 f   * CIL library *:* CIL module *
 0001:00021ac0       _sqlite3BenignMallocHooks  10022ac0 f   * CIL library *:* CIL module *
 0001:00021ad0       _vfsUnlink                 10022ad0 f   * CIL library *:* CIL module *
 0001:00021bb0       _sqlite3OsCurrentTimeInt64 10022bb0 f   * CIL library *:* CIL module *
 0001:00021c10       _sqlite3OsSleep            10022c10 f   * CIL library *:* CIL module *
 0001:00021c20       _sqlite3OsRandomness       10022c20 f   * CIL library *:* CIL module *
 0001:00021c40       _sqlite3OsDlClose          10022c40 f   * CIL library *:* CIL module *
 0001:00021c50       _sqlite3OsDlSym            10022c50 f   * CIL library *:* CIL module *
 0001:00021c70       _sqlite3OsDlError          10022c70 f   * CIL library *:* CIL module *
 0001:00021c90       _sqlite3OsDlOpen           10022c90 f   * CIL library *:* CIL module *
 0001:00021ca0       _sqlite3OsFullPathname     10022ca0 f   * CIL library *:* CIL module *
 0001:00021cc0       _sqlite3OsAccess           10022cc0 f   * CIL library *:* CIL module *
 0001:00021ce0       _sqlite3OsDelete           10022ce0 f   * CIL library *:* CIL module *
 0001:00021d00       _sqlite3OsOpen             10022d00 f   * CIL library *:* CIL module *
 0001:00021d20       _sqlite3OsUnfetch          10022d20 f   * CIL library *:* CIL module *
 0001:00021d40       _sqlite3OsFetch            10022d40 f   * CIL library *:* CIL module *
 0001:00021d60       _sqlite3OsShmMap           10022d60 f   * CIL library *:* CIL module *
 0001:00021d80       _sqlite3OsShmUnmap         10022d80 f   * CIL library *:* CIL module *
 0001:00021d90       _sqlite3OsShmBarrier       10022d90 f   * CIL library *:* CIL module *
 0001:00021da0       _sqlite3OsShmLock          10022da0 f   * CIL library *:* CIL module *
 0001:00021dc0       _sqlite3OsDeviceCharacteristics 10022dc0 f   * CIL library *:* CIL module *
 0001:00021dd0       _sqlite3OsSectorSize       10022dd0 f   * CIL library *:* CIL module *
 0001:00021df0       _sqlite3OsFileControlHint  10022df0 f   * CIL library *:* CIL module *
 0001:00021e10       _sqlite3OsFileControl      10022e10 f   * CIL library *:* CIL module *
 0001:00021e30       _sqlite3OsCheckReservedLock 10022e30 f   * CIL library *:* CIL module *
 0001:00021e40       _sqlite3OsUnlock           10022e40 f   * CIL library *:* CIL module *
 0001:00021e50       _sqlite3OsLock             10022e50 f   * CIL library *:* CIL module *
 0001:00021e60       _sqlite3OsFileSize         10022e60 f   * CIL library *:* CIL module *
 0001:00021e70       _sqlite3OsSync             10022e70 f   * CIL library *:* CIL module *
 0001:00021e80       _sqlite3OsTruncate         10022e80 f   * CIL library *:* CIL module *
 0001:00021ea0       _sqlite3OsWrite            10022ea0 f   * CIL library *:* CIL module *
 0001:00021ec0       _sqlite3OsRead             10022ec0 f   * CIL library *:* CIL module *
 0001:00021ee0       _sqlite3OsClose            10022ee0 f   * CIL library *:* CIL module *
 0001:00021f00       _clearYMD_HMS_TZ           10022f00 f   * CIL library *:* CIL module *
 0001:00021f10       _computeYMD                10022f10 f   * CIL library *:* CIL module *
 0001:00022030       _computeJD                 10023030 f   * CIL library *:* CIL module *
 0001:00022170       _getDigits                 10023170 f   * CIL library *:* CIL module *
 0001:00022210       _localtime_s               10023210 f   * CIL library *:* CIL module *
 0001:00022220       _sqlite3StatusSet          10023220 f   * CIL library *:* CIL module *
 0001:00022240       _sqlite3StatusAdd          10023240 f   * CIL library *:* CIL module *
 0001:00022260       _sqlite3StatusValue        10023260 f   * CIL library *:* CIL module *
 0001:00022590       _InitializeProvider        10023590 f   * CIL library *:* CIL module *
 0001:000226e0       __substr                   100236e0 f   * CIL library *:* CIL module *
 0001:00022810       _re_esc_char               10023810 f   * CIL library *:* CIL module *
 0001:00022920       _re_next_char_nocase       10023920 f   * CIL library *:* CIL module *
 0001:00022940       _totypeAtoF                10023940 f   * CIL library *:* CIL module *
 0001:00022f90       _totypeAtoi64              10023f90 f   * CIL library *:* CIL module *
 0001:00023100       _cellGrowth                10024100 f   * CIL library *:* CIL module *
 0001:00023190       _setEstimatedRows          10024190 f   * CIL library *:* CIL module *
 0001:000231b0       _rtreeCallbackConstraint   100241b0 f   * CIL library *:* CIL module *
 0001:00023320       _nodeGetCoord              10024320 f   * CIL library *:* CIL module *
 0001:00023340       _nodeGetRowid              10024340 f   * CIL library *:* CIL module *
 0001:00023360       _nodeDeleteCell            10024360 f   * CIL library *:* CIL module *
 0001:000233d0       _nodeOverwriteCell         100243d0 f   * CIL library *:* CIL module *
 0001:00023450       _nodeHashDelete            10024450 f   * CIL library *:* CIL module *
 0001:000234a0       _nodeHashInsert            100244a0 f   * CIL library *:* CIL module *
 0001:000234d0       _nodeHashLookup            100244d0 f   * CIL library *:* CIL module *
 0001:00023520       _fts3LcsIteratorAdvance    10024520 f   * CIL library *:* CIL module *
 0001:00023580       _fts3SnippetShift          10024580 f   * CIL library *:* CIL module *
 0001:00023700       _fts3ExprIterate           10024700 f   * CIL library *:* CIL module *
 0001:00023720       _fts3GetDeltaPosition      10024720 f   * CIL library *:* CIL module *
 0001:00023760       _fts3IncrmergeHintPop      10024760 f   * CIL library *:* CIL module *
 0001:000237f0       _fts3StartNode             100247f0 f   * CIL library *:* CIL module *
 0001:00023810       _fts3DecodeIntArray        10024810 f   * CIL library *:* CIL module *
 0001:00023850       _fts3EncodeIntArray        10024850 f   * CIL library *:* CIL module *
 0001:00023890       _fts3ColumnFilter          10024890 f   * CIL library *:* CIL module *
 0001:00023970       _fts3TreeFinishNode        10024970 f   * CIL library *:* CIL module *
 0001:000239d0       _sqlite3Fts3NextToken      100249d0 f   * CIL library *:* CIL module *
 0001:00023a70       $LN46                      10024a70     * CIL library *:* CIL module *
 0001:00023a80       $LN41                      10024a80     * CIL library *:* CIL module *
 0001:00023af0       _star_oh                   10024af0 f   * CIL library *:* CIL module *
 0001:00023b30       _doubleConsonant           10024b30 f   * CIL library *:* CIL module *
 0001:00023b50       _hasVowel                  10024b50 f   * CIL library *:* CIL module *
 0001:00023b80       _m_gt_1                    10024b80 f   * CIL library *:* CIL module *
 0001:00023c10       _m_eq_1                    10024c10 f   * CIL library *:* CIL module *
 0001:00023ca0       _m_gt_0                    10024ca0 f   * CIL library *:* CIL module *
 0001:00023cf0       _ftsCompareFunction        10024cf0 f   * CIL library *:* CIL module *
 0001:00023d10       _ftsHashFunction           10024d10 f   * CIL library *:* CIL module *
 0001:00023d30       _insertBinaryOperator      10024d30 f   * CIL library *:* CIL module *
 0001:00023db0       _fts3EvalUpdateCounts      10024db0 f   * CIL library *:* CIL module *
 0001:00023e80       _fts3EvalDlPhraseNext      10024e80 f   * CIL library *:* CIL module *
 0001:00023f30       _sqlite3Fts3DoclistNext    10024f30 f   * CIL library *:* CIL module *
 0001:00023fd0       _fts3DoclistCountDocids    10024fd0 f   * CIL library *:* CIL module *
 0001:00024020       _sqlite3Fts3FirstFilter    10025020 f   * CIL library *:* CIL module *
 0001:00024100       _fts3PutDeltaVarint3       10025100 f   * CIL library *:* CIL module *
 0001:00024170       _fts3GetDeltaVarint3       10025170 f   * CIL library *:* CIL module *
 0001:000241b0       _fts3PutColNumber          100251b0 f   * CIL library *:* CIL module *
 0001:000241f0       _fts3PutDeltaVarint        100251f0 f   * CIL library *:* CIL module *
 0001:00024230       _fts3SetEstimatedRows      10025230 f   * CIL library *:* CIL module *
 0001:00024240       _fts3GetReverseVarint      10025240 f   * CIL library *:* CIL module *
 0001:00024280       _fts3GetDeltaVarint        10025280 f   * CIL library *:* CIL module *
 0001:000242b0       _sqlite3DbNameToBtree      100252b0 f   * CIL library *:* CIL module *
 0001:000247c0       _sqliteDefaultBusyCallback 100257c0 f   * CIL library *:* CIL module *
 0001:00024830       _connectionIsBusy          10025830 f   * CIL library *:* CIL module *
 0001:00024870       _nocaseCollatingFunc       10025870 f   * CIL library *:* CIL module *
 0001:000248a0       _binCollFunc               100258a0 f   * CIL library *:* CIL module *
 0001:00024b9c       $LN132                     10025b9c     * CIL library *:* CIL module *
 0001:00024bb8       $LN115                     10025bb8     * CIL library *:* CIL module *
 0001:00024c10       $LN133                     10025c10     * CIL library *:* CIL module *
 0001:00024c20       $LN116                     10025c20     * CIL library *:* CIL module *
 0001:00024c60       _keywordCode               10025c60 f   * CIL library *:* CIL module *
 0001:00024d00       _indexMightHelpWithOrderBy 10025d00 f   * CIL library *:* CIL module *
 0001:00024d90       _whereLoopAdjustCost       10025d90 f   * CIL library *:* CIL module *
 0001:00024e10       _estLog                    10025e10 f   * CIL library *:* CIL module *
 0001:00024e30       _isMatchOfColumn           10025e30 f   * CIL library *:* CIL module *
 0001:00024e70       _exprSelectTableUsage      10025e70 f   * CIL library *:* CIL module *
 0001:00024f60       _exprTableUsage            10025f60 f   * CIL library *:* CIL module *
 0001:00025030       _sqlite3WhereOutputRowCount 10026030 f   * CIL library *:* CIL module *
 0001:00025040       _addToVTrans               10026040 f   * CIL library *:* CIL module *
 0001:00025060       _sqlite3TriggerList        10026060 f   * CIL library *:* CIL module *
 0001:000250e0       _selectPopWith             100260e0 f   * CIL library *:* CIL module *
 0001:00025110       _searchWith                10026110 f   * CIL library *:* CIL module *
 0001:00025180       _minMaxQuery               10026180 f   * CIL library *:* CIL module *
 0001:000251f0       _substSelect               100261f0 f   * CIL library *:* CIL module *
 0001:00025380       _columnTypeImpl            10026380 f   * CIL library *:* CIL module *
 0001:00025560       _columnIndex               10026560 f   * CIL library *:* CIL module *
 0001:000255c0       _getTempStore              100265c0 f   * CIL library *:* CIL module *
 0001:00025610       _getLockingMode            10026610 f   * CIL library *:* CIL module *
 0001:00025720       _xferCompatibleCollation   10026720 f   * CIL library *:* CIL module *
 0001:00025750       _fkParentIsModified        10026750 f   * CIL library *:* CIL module *
 0001:00025800       _patternCompare            10026800 f   * CIL library *:* CIL module *
 0001:00025b20       _functionSearch            10026b20 f   * CIL library *:* CIL module *
 0001:00025b70       _collationMatch            10026b70 f   * CIL library *:* CIL module *
 0001:00025bc0       _sqlite3IdListIndex        10026bc0 f   * CIL library *:* CIL module *
 0001:00025c00       _estimateIndexWidth        10026c00 f   * CIL library *:* CIL module *
 0001:00025c60       _estimateTableWidth        10026c60 f   * CIL library *:* CIL module *
 0001:00025cf0       _sqlite3AffinityType       10026cf0 f   * CIL library *:* CIL module *
 0001:00025e40       _sqlite3FindDbName         10026e40 f   * CIL library *:* CIL module *
 0001:00025f20       _sampleIsBetter            10026f20 f   * CIL library *:* CIL module *
 0001:00025f70       _sqlite3FunctionUsesThisSrc 10026f70 f   * CIL library *:* CIL module *
 0001:00025fd0       _sqlite3ExprImpliesExpr    10026fd0 f   * CIL library *:* CIL module *
 0001:00026050       _sqlite3ExprCacheClear     10027050 f   * CIL library *:* CIL module *
 0001:00026080       _sqlite3ExprCachePop       10027080 f   * CIL library *:* CIL module *
 0001:000260c0       _sqlite3ExprCacheRemove    100270c0 f   * CIL library *:* CIL module *
 0001:00026110       _sqlite3IsRowid            10027110 f   * CIL library *:* CIL module *
 0001:00026160       _exprIsConst               10027160 f   * CIL library *:* CIL module *
 0001:000261a0       _dupedExprNodeSize         100271a0 f   * CIL library *:* CIL module *
 0001:00026200       _heightOfExprList          10027200 f   * CIL library *:* CIL module *
 0001:00026230       _sqlite3ExprAffinity       10027230 f   * CIL library *:* CIL module *
 0001:000262c0       _resolveAsName             100272c0 f   * CIL library *:* CIL module *
 0001:00026310       _exprProbability           10027310 f   * CIL library *:* CIL module *
 0001:00026380       _sqlite3MatchSpanName      10027380 f   * CIL library *:* CIL module *
 0001:00026420       _nameInUsingClause         10027420 f   * CIL library *:* CIL module *
 0001:00026460       _incrAggFunctionDepth      10027460 f   * CIL library *:* CIL module *
 0001:000264a0       _sqlite3WalkSelectExpr     100274a0 f   * CIL library *:* CIL module *
 0001:00026520       _fileWriterWrite           10027520 f   * CIL library *:* CIL module *
 0001:00026670       _columnName                10027670 f   * CIL library *:* CIL module *
 0001:000266e0       _sqlite3StmtCurrentTime    100276e0 f   * CIL library *:* CIL module *
 0001:00026720       _doWalCallbacks            10027720 f   * CIL library *:* CIL module *
 0001:000267a0       _sqlite3VdbeSerialGet      100277a0 f   * CIL library *:* CIL module *
 0001:000269dc       $LN21                      100279dc     * CIL library *:* CIL module *
 0001:00026a10       _sqlite3VdbeSerialPut      10027a10 f   * CIL library *:* CIL module *
 0001:00026a90       _sqlite3VdbeUsesBtree      10027a90 f   * CIL library *:* CIL module *
 0001:00026ac0       _sqlite3VdbeJumpHere       10027ac0 f   * CIL library *:* CIL module *
 0001:00026ae0       _sqlite3VdbeIntegerAffinity 10027ae0 f   * CIL library *:* CIL module *
 0001:00026bb0       _sqlite3VdbeRealValue      10027bb0 f   * CIL library *:* CIL module *
 0001:00026c20       _attachBackupObject        10027c20 f   * CIL library *:* CIL module *
 0001:00026c40       _backupTruncateFile        10027c40 f   * CIL library *:* CIL module *
 0001:00026c80       _sqlite3BtreeGetJournalname 10027c80 f   * CIL library *:* CIL module *
 0001:00026c90       _sqlite3BtreeGetFilename   10027c90 f   * CIL library *:* CIL module *
 0001:00026cb0       _sqlite3BtreeDataFetch     10027cb0 f   * CIL library *:* CIL module *
 0001:00026cc0       _sqlite3BtreeKeyFetch      10027cc0 f   * CIL library *:* CIL module *
 0001:00026cd0       _btreeCursor               10027cd0 f   * CIL library *:* CIL module *
 0001:00026d40       _finalDbSize               10027d40 f   * CIL library *:* CIL module *
 0001:00026dc0       _removeFromSharingList     10027dc0 f   * CIL library *:* CIL module *
 0001:00026e50       _sqlite3BtreeLastPage      10027e50 f   * CIL library *:* CIL module *
 0001:00026e60       _btreePageFromDbPage       10027e60 f   * CIL library *:* CIL module *
 0001:00026e90       _btreeGetHasContent        10027e90 f   * CIL library *:* CIL module *
 0001:00026f40       _unlockBtreeMutex          10027f40 f   * CIL library *:* CIL module *
 0001:00026f60       _lockBtreeMutex            10027f60 f   * CIL library *:* CIL module *
 0001:00026f90       _walWriteToLog             10027f90 f   * CIL library *:* CIL module *
 0001:00027050       _sqlite3WalReadFrame       10028050 f   * CIL library *:* CIL module *
 0001:000270b0       _walMergesort              100280b0 f   * CIL library *:* CIL module *
 0001:000271e0       _walFramePgno              100281e0 f   * CIL library *:* CIL module *
 0001:00027210       _walUnlockExclusive        10028210 f   * CIL library *:* CIL module *
 0001:00027230       _walLockExclusive          10028230 f   * CIL library *:* CIL module *
 0001:00027260       _walUnlockShared           10028260 f   * CIL library *:* CIL module *
 0001:00027280       _walLockShared             10028280 f   * CIL library *:* CIL module *
 0001:000272a0       _walDecodeFrame            100282a0 f   * CIL library *:* CIL module *
 0001:00027350       _walEncodeFrame            10028350 f   * CIL library *:* CIL module *
 0001:00027410       _walShmBarrier             10028410 f   * CIL library *:* CIL module *
 0001:00027430       _sqlite3PagerSetCodec      10028430 f   * CIL library *:* CIL module *
 0001:000274a0       _sqlite3PagerPageRefcount  100284a0 f   * CIL library *:* CIL module *
 0001:000274b0       _sqlite3PagerMemUsed       100284b0 f   * CIL library *:* CIL module *
 0001:00027500       _sqlite3PagerRefcount      10028500 f   * CIL library *:* CIL module *
 0001:00027510       _sqlite3PagerSync          10028510 f   * CIL library *:* CIL module *
 0001:00027560       _databaseIsUnmoved         10028560 f   * CIL library *:* CIL module *
 0001:000275b0       _sqlite3PagerRef           100285b0 f   * CIL library *:* CIL module *
 0001:000275c0       _pagerReleaseMapPage       100285c0 f   * CIL library *:* CIL module *
 0001:00027610       _pagerSyncHotJournal       10028610 f   * CIL library *:* CIL module *
 0001:00027650       _sqlite3PagerReadFileheader 10028650 f   * CIL library *:* CIL module *
 0001:000276a0       _sqlite3PagerSetBusyhandler 100286a0 f   * CIL library *:* CIL module *
 0001:000276c0       _pagerOpentemp             100286c0 f   * CIL library *:* CIL module *
 0001:000276f0       _sqlite3PagerShrink        100286f0 f   * CIL library *:* CIL module *
 0001:00027710       _pagerFixMaplimit          10028710 f   * CIL library *:* CIL module *
 0001:00027770       _pagerPagecount            10028770 f   * CIL library *:* CIL module *
 0001:00027800       _pager_write_changecounter 10028800 f   * CIL library *:* CIL module *
 0001:00027860       _readDbPage                10028860 f   * CIL library *:* CIL module *
 0001:00027940       _sqlite3SectorSize         10028940 f   * CIL library *:* CIL module *
 0001:00027970       _pager_truncate            10028970 f   * CIL library *:* CIL module *
 0001:00027a80       _zeroJournalHdr            10028a80 f   * CIL library *:* CIL module *
 0001:00027b50       _pagerLockDb               10028b50 f   * CIL library *:* CIL module *
 0001:00027ba0       _pagerUnlockDb             10028ba0 f   * CIL library *:* CIL module *
 0001:00027be0       _write32bits               10028be0 f   * CIL library *:* CIL module *
 0001:00027c20       _read32bits                10028c20 f   * CIL library *:* CIL module *
 0001:00027c60       _pageInJournal             10028c60 f   * CIL library *:* CIL module *
 0001:00027d10       _subjRequiresPage          10028d10 f   * CIL library *:* CIL module *
 0001:00027e10       _rowSetListToTree          10028e10 f   * CIL library *:* CIL module *
 0001:00027e70       _rowSetEntrySort           10028e70 f   * CIL library *:* CIL module *
 0001:00027f10       _pcache1Rekey              10028f10 f   * CIL library *:* CIL module *
 0001:00027f90       _pcache1Pagecount          10028f90 f   * CIL library *:* CIL module *
 0001:00027fd0       _pcache1Init               10028fd0 f   * CIL library *:* CIL module *
 0001:00028040       _pcache1UnderMemoryPressure 10029040 f   * CIL library *:* CIL module *
 0001:00028070       _pcache1MemSize            10029070 f   * CIL library *:* CIL module *
 0001:000280a0       _sqlite3PcacheSetCachesize 100290a0 f   * CIL library *:* CIL module *
 0001:000280f0       _pcacheSortDirtyList       100290f0 f   * CIL library *:* CIL module *
 0001:00028180       _sqlite3PcacheMove         10029180 f   * CIL library *:* CIL module *
 0001:000281c0       _sqlite3PcacheMakeClean    100291c0 f   * CIL library *:* CIL module *
 0001:000281f0       _sqlite3PcacheMakeDirty    100291f0 f   * CIL library *:* CIL module *
 0001:00028210       _sqlite3PcacheDrop         10029210 f   * CIL library *:* CIL module *
 0001:00028250       _sqlite3PcacheRelease      10029250 f   * CIL library *:* CIL module *
 0001:00028280       _sqlite3PcacheFetch        10029280 f   * CIL library *:* CIL module *
 0001:00028430       _winCurrentTime            10029430 f   * CIL library *:* CIL module *
 0001:00028490       _winSleep                  10029490 f   * CIL library *:* CIL module *
 0001:000284c0       _winIsVerbatimPathname     100294c0 f   * CIL library *:* CIL module *
 0001:000284e0       _winMakeEndInDirSep        100294e0 f   * CIL library *:* CIL module *
 0001:00028530       _winShmLeaveMutex          10029530 f   * CIL library *:* CIL module *
 0001:00028560       _winShmEnterMutex          10029560 f   * CIL library *:* CIL module *
 0001:00028590       _winUnlockFile             10029590 f   * CIL library *:* CIL module *
 0001:00028600       _winLockFile               10029600 f   * CIL library *:* CIL module *
 0001:00028670       _winRetryIoerr             10029670 f   * CIL library *:* CIL module *
 0001:000286e0       _findElementGivenHash      100296e0 f   * CIL library *:* CIL module *
 0001:00028750       _sqlite3LogEstFromDouble   10029750 f   * CIL library *:* CIL module *
 0001:000287f0       _sqlite3MulInt64           100297f0 f   * CIL library *:* CIL module *
 0001:00028930       _sqlite3SubInt64           10029930 f   * CIL library *:* CIL module *
 0001:00028a10       _sqlite3GetVarint32        10029a10 f   * CIL library *:* CIL module *
 0001:00028a90       _sqlite3PutVarint32        10029a90 f   * CIL library *:* CIL module *
 0001:00028ac0       _sqlite3Atoi               10029ac0 f   * CIL library *:* CIL module *
 0001:00028af0       _sqlite3Atoi64             10029af0 f   * CIL library *:* CIL module *
 0001:00028ed0       _sqlite3DbMallocSize       10029ed0 f   * CIL library *:* CIL module *
 0001:00028f00       _sqlite3ScratchFree        10029f00 f   * CIL library *:* CIL module *
 0001:00028fe0       _sqlite3MallocAlarm        10029fe0 f   * CIL library *:* CIL module *
 0001:00029060       _sqlite3MemoryAlarm        1002a060 f   * CIL library *:* CIL module *
 0001:000290f0       _winMutexFree              1002a0f0 f   * CIL library *:* CIL module *
 0001:00029110       _sqlite3NoopMutex          1002a110 f   * CIL library *:* CIL module *
 0001:000291f0       _sqlite3OsCloseFree        1002a1f0 f   * CIL library *:* CIL module *
 0001:00029220       _osLocaltime               1002a220 f   * CIL library *:* CIL module *
 0001:00029240       _computeHMS                1002a240 f   * CIL library *:* CIL module *
 0001:000292f0       _setDateTimeToCurrent      1002a2f0 f   * CIL library *:* CIL module *
 0001:00029320       _parseTimezone             1002a320 f   * CIL library *:* CIL module *
 0001:00029400       _DeriveKey                 1002a400 f   * CIL library *:* CIL module *
 0001:000294d0       _sqlite3CodecFree          1002a4d0 f   * CIL library *:* CIL module *
 0001:00029570       _vtshimAuxDestructor       1002a570 f   * CIL library *:* CIL module *
 0001:000295b0       _vtshimDestroy             1002a5b0 f   * CIL library *:* CIL module *
 0001:00029600       _vtshimDisconnect          1002a600 f   * CIL library *:* CIL module *
 0001:00029650       _rtreeFreeCallback         1002a650 f   * CIL library *:* CIL module *
 0001:00029680       _nodeRowidIndex            1002a680 f   * CIL library *:* CIL module *
 0001:00029700       _freeCursorConstraints     1002a700 f   * CIL library *:* CIL module *
 0001:00029770       _nodeGetCell               1002a770 f   * CIL library *:* CIL module *
 0001:000297e0       _nodeInsertCell            1002a7e0 f   * CIL library *:* CIL module *
 0001:00029850       _fts3SnippetDetails        1002a850 f   * CIL library *:* CIL module *
 0001:000299f0       _fts3SnippetAdvance        1002a9f0 f   * CIL library *:* CIL module *
 0001:00029a50       _fts3ExprPhraseCount       1002aa50 f   * CIL library *:* CIL module *
 0001:00029a80       _fts3ExprLoadDoclists      1002aa80 f   * CIL library *:* CIL module *
 0001:00029ae0       _nodeReaderRelease         1002aae0 f   * CIL library *:* CIL module *
 0001:00029af0       _fts3NodeFree              1002aaf0 f   * CIL library *:* CIL module *
 0001:00029b30       _fts3PendingListDelete     1002ab30 f   * CIL library *:* CIL module *
 0001:00029b40       _fts3tokResetCursor        1002ab40 f   * CIL library *:* CIL module *
 0001:00029ba0       _fts3tokDisconnectMethod   1002aba0 f   * CIL library *:* CIL module *
 0001:00029bc0       _simpleClose               1002abc0 f   * CIL library *:* CIL module *
 0001:00029be0       _simpleDestroy             1002abe0 f   * CIL library *:* CIL module *
 0001:00029c00       _porter_stemmer            1002ac00 f   * CIL library *:* CIL module *
 0001:0002a4b0       $LN393                     1002b4b0     * CIL library *:* CIL module *
 0001:0002a4d4       $LN373                     1002b4d4     * CIL library *:* CIL module *
 0001:0002a4e8       $LN394                     1002b4e8     * CIL library *:* CIL module *
 0001:0002a4fc       $LN374                     1002b4fc     * CIL library *:* CIL module *
 0001:0002a50c       $LN395                     1002b50c     * CIL library *:* CIL module *
 0001:0002a53c       $LN375                     1002b53c     * CIL library *:* CIL module *
 0001:0002a560       _porterClose               1002b560 f   * CIL library *:* CIL module *
 0001:0002a580       _porterDestroy             1002b580 f   * CIL library *:* CIL module *
 0001:0002a5a0       _fts3FindElementByHash     1002b5a0 f   * CIL library *:* CIL module *
 0001:0002a610       _fts3HashFree              1002b610 f   * CIL library *:* CIL module *
 0001:0002a620       _fts3EvalInvalidatePoslist 1002b620 f   * CIL library *:* CIL module *
 0001:0002a650       _sqlite3Fts3DoclistPrev    1002b650 f   * CIL library *:* CIL module *
 0001:0002a7b0       _fts3PoslistPhraseMerge    1002b7b0 f   * CIL library *:* CIL module *
 0001:0002ab30       _fts3ReadNextPos           1002bb30 f   * CIL library *:* CIL module *
 0001:0002ab80       _fts3BestIndexMethod       1002bb80 f   * CIL library *:* CIL module *
 0001:0002ad54       $LN43                      1002bd54     * CIL library *:* CIL module *
 0001:0002ad60       $LN36                      1002bd60     * CIL library *:* CIL module *
 0001:0002ae80       _sqlite3GetToken           1002be80 f   * CIL library *:* CIL module *
 0001:0002b3c0       $LN207                     1002c3c0     * CIL library *:* CIL module *
 0001:0002b424       $LN199                     1002c424     * CIL library *:* CIL module *
 0001:0002b4a0       _sqlite3KeywordCode        1002c4a0 f   * CIL library *:* CIL module *
 0001:0002b4b0       _whereUsablePartialIndex   1002c4b0 f   * CIL library *:* CIL module *
 0001:0002b500       _checkColumnOverlap        1002c500 f   * CIL library *:* CIL module *
 0001:0002b5f0       _tableAndColumnIndex       1002c5f0 f   * CIL library *:* CIL module *
 0001:0002b690       _getAutoVacuum             1002c690 f   * CIL library *:* CIL module *
 0001:0002b710       _getSafetyLevel            1002c710 f   * CIL library *:* CIL module *
 0001:0002b7c0       _xferCompatibleIndex       1002c7c0 f   * CIL library *:* CIL module *
 0001:0002b890       _sqlite3ResolvePartIdxLabel 1002c890 f   * CIL library *:* CIL module *
 0001:0002b8b0       _sqlite3FuncDefInsert      1002c8b0 f   * CIL library *:* CIL module *
 0001:0002b950       _identPut                  1002c950 f   * CIL library *:* CIL module *
 0001:0002ba00       _decodeIntArray            1002ca00 f   * CIL library *:* CIL module *
 0001:0002bb00       _sqlite3ReleaseTempRange   1002cb00 f   * CIL library *:* CIL module *
 0001:0002bb30       _sqlite3ExprCacheAffinityChange 1002cb30 f   * CIL library *:* CIL module *
 0001:0002bb40       _sqlite3ExprIsConstantOrFunction 1002cb40 f   * CIL library *:* CIL module *
 0001:0002bb80       _sqlite3ExprIsConstantNotJoin 1002cb80 f   * CIL library *:* CIL module *
 0001:0002bbc0       _sqlite3ExprIsConstant     1002cbc0 f   * CIL library *:* CIL module *
 0001:0002bc00       _dupedExprSize             1002cc00 f   * CIL library *:* CIL module *
 0001:0002bc50       _heightOfSelect            1002cc50 f   * CIL library *:* CIL module *
 0001:0002bcd0       _sqlite3CompareAffinity    1002ccd0 f   * CIL library *:* CIL module *
 0001:0002bd00       _sqlite3WalkSelect         1002cd00 f   * CIL library *:* CIL module *
 0001:0002bd80       _memjrnlTruncate           1002cd80 f   * CIL library *:* CIL module *
 0001:0002bdd0       _fileWriterWriteVarint     1002cdd0 f   * CIL library *:* CIL module *
 0001:0002be10       _numericType               1002ce10 f   * CIL library *:* CIL module *
 0001:0002be70       _applyNumericAffinity      1002ce70 f   * CIL library *:* CIL module *
 0001:0002bf00       _findNextHostParameter     1002cf00 f   * CIL library *:* CIL module *
 0001:0002bf70       _sqlite3VdbeRecordUnpack   1002cf70 f   * CIL library *:* CIL module *
 0001:0002c040       _sqlite3VdbeMemNumerify    1002d040 f   * CIL library *:* CIL module *
 0001:0002c0c0       _sqlite3VdbeMemRealify     1002d0c0 f   * CIL library *:* CIL module *
 0001:0002c0f0       _sqlite3VdbeIntValue       1002d0f0 f   * CIL library *:* CIL module *
 0001:0002c1d0       _cellSizePtr               1002d1d0 f   * CIL library *:* CIL module *
 0001:0002c2b0       _btreeParseCellPtr         1002d2b0 f   * CIL library *:* CIL module *
 0001:0002c3f0       _sqlite3BtreeClearCursor   1002d3f0 f   * CIL library *:* CIL module *
 0001:0002c410       _clearAllSharedCacheTableLocks 1002d410 f   * CIL library *:* CIL module *
 0001:0002c480       _sqlite3BtreeLeave         1002d480 f   * CIL library *:* CIL module *
 0001:0002c4b0       _sqlite3BtreeEnter         1002d4b0 f   * CIL library *:* CIL module *
 0001:0002c540       _sqlite3WalExclusiveMode   1002d540 f   * CIL library *:* CIL module *
 0001:0002c5b0       _walWriteOneFrame          1002d5b0 f   * CIL library *:* CIL module *
 0001:0002c650       _sqlite3WalEndWriteTransaction 1002d650 f   * CIL library *:* CIL module *
 0001:0002c680       _sqlite3WalBeginWriteTransaction 1002d680 f   * CIL library *:* CIL module *
 0001:0002c710       _sqlite3WalEndReadTransaction 1002d710 f   * CIL library *:* CIL module *
 0001:0002c750       _walIndexTryHdr            1002d750 f   * CIL library *:* CIL module *
 0001:0002c910       _walBusyLock               1002d910 f   * CIL library *:* CIL module *
 0001:0002c960       _walIteratorFree           1002d960 f   * CIL library *:* CIL module *
 0001:0002c970       _walIndexClose             1002d970 f   * CIL library *:* CIL module *
 0001:0002c9c0       _walIndexWriteHdr          1002d9c0 f   * CIL library *:* CIL module *
 0001:0002ca80       _pagerExclusiveLock        1002da80 f   * CIL library *:* CIL module *
 0001:0002cab0       _sqlite3PagerUnrefNotNull  1002dab0 f   * CIL library *:* CIL module *
 0001:0002caf0       _sqlite3PagerLookup        1002daf0 f   * CIL library *:* CIL module *
 0001:0002cb20       _hasHotJournal             1002db20 f   * CIL library *:* CIL module *
 0001:0002ccc0       _openSubJournal            1002dcc0 f   * CIL library *:* CIL module *
 0001:0002cd10       _pagerFreeMapHdrs          1002dd10 f   * CIL library *:* CIL module *
 0001:0002cd40       _pager_wait_on_lock        1002dd40 f   * CIL library *:* CIL module *
 0001:0002cd80       _sqlite3PagerSetMmapLimit  1002dd80 f   * CIL library *:* CIL module *
 0001:0002cda0       _sqlite3PagerSetCachesize  1002dda0 f   * CIL library *:* CIL module *
 0001:0002ce00       _setSectorSize             1002de00 f   * CIL library *:* CIL module *
 0001:0002ce40       _pager_lookup              1002de40 f   * CIL library *:* CIL module *
 0001:0002ce70       _writeMasterJournal        1002de70 f   * CIL library *:* CIL module *
 0001:0002cff0       _writeJournalHdr           1002dff0 f   * CIL library *:* CIL module *
 0001:0002d180       _readMasterJournal         1002e180 f   * CIL library *:* CIL module *
 0001:0002d310       _rowSetToList              1002e310 f   * CIL library *:* CIL module *
 0001:0002d330       _pcache1Free               1002e330 f   * CIL library *:* CIL module *
 0001:0002d400       _sqlite3PcacheDirtyList    1002e400 f   * CIL library *:* CIL module *
 0001:0002d420       _sqlite3PcacheTruncate     1002e420 f   * CIL library *:* CIL module *
 0001:0002d480       _sqlite3PcacheCleanAll     1002e480 f   * CIL library *:* CIL module *
 0001:0002d4a0       _sqlite3BitvecDestroy      1002e4a0 f   * CIL library *:* CIL module *
 0001:0002d4e0       _winIsDir                  1002e4e0 f   * CIL library *:* CIL module *
 0001:0002d580       _winShmBarrier             1002e580 f   * CIL library *:* CIL module *
 0001:0002d590       _winShmSystemLock          1002e590 f   * CIL library *:* CIL module *
 0001:0002d5f0       _winCheckReservedLock      1002e5f0 f   * CIL library *:* CIL module *
 0001:0002d660       _winGetReadLock            1002e660 f   * CIL library *:* CIL module *
 0001:0002d6f0       _sqlite3HashFind           1002e6f0 f   * CIL library *:* CIL module *
 0001:0002d770       _sqlite3HashClear          1002e770 f   * CIL library *:* CIL module *
 0001:0002d7c0       _getDoubleArg              1002e7c0 f   * CIL library *:* CIL module *
 0001:0002d7f0       _sqlite3DbFree             1002e7f0 f   * CIL library *:* CIL module *
 0001:0002d870       _mallocWithAlarm           1002e870 f   * CIL library *:* CIL module *
 0001:0002d980       _computeYMD_HMS            1002e980 f   * CIL library *:* CIL module *
 0001:0002d990       _parseHhMmSs               1002e990 f   * CIL library *:* CIL module *
 0001:0002daf0       _rtreeValueUp              1002eaf0 f   * CIL library *:* CIL module *
 0001:0002db40       _rtreeValueDown            1002eb40 f   * CIL library *:* CIL module *
 0001:0002db90       _nodeParentIndex           1002eb90 f   * CIL library *:* CIL module *
 0001:0002dbc0       _fts3SnippetNextCandidate  1002ebc0 f   * CIL library *:* CIL module *
 0001:0002dd60       _sqlite3Fts3FreeDeferredTokens 1002ed60 f   * CIL library *:* CIL module *
 0001:0002dda0       _sqlite3Fts3FreeDeferredDoclists 1002eda0 f   * CIL library *:* CIL module *
 0001:0002ddd0       _fts3SegWriterFree         1002edd0 f   * CIL library *:* CIL module *
 0001:0002de00       _fts3tokNextMethod         1002ee00 f   * CIL library *:* CIL module *
 0001:0002de50       _fts3tokCloseMethod        1002ee50 f   * CIL library *:* CIL module *
 0001:0002de70       _sqlite3Fts3HashFindElem   1002ee70 f   * CIL library *:* CIL module *
 0001:0002dec0       _sqlite3Fts3HashClear      1002eec0 f   * CIL library *:* CIL module *
 0001:0002df30       _hashDestroy               1002ef30 f   * CIL library *:* CIL module *
 0001:0002df50       _fts3DoclistPhraseMerge    1002ef50 f   * CIL library *:* CIL module *
 0001:0002e1b0       _fts3PoslistMerge          1002f1b0 f   * CIL library *:* CIL module *
 0001:0002e440       _functionDestroy           1002f440 f   * CIL library *:* CIL module *
 0001:0002e470       _sqlite3CloseSavepoints    1002f470 f   * CIL library *:* CIL module *
 0001:0002e4c0       _whereAndInfoDelete        1002f4c0 f   * CIL library *:* CIL module *
 0001:0002e4e0       _whereOrInfoDelete         1002f4e0 f   * CIL library *:* CIL module *
 0001:0002e500       _sqlite3VtabClear          1002f500 f   * CIL library *:* CIL module *
 0001:0002e550       _sqlite3VtabUnlock         1002f550 f   * CIL library *:* CIL module *
 0001:0002e580       _sqlite3TriggerColmask     1002f580 f   * CIL library *:* CIL module *
 0001:0002e5f0       _transferParseError        1002f5f0 f   * CIL library *:* CIL module *
 0001:0002e620       _sqlite3TriggersExist      1002f620 f   * CIL library *:* CIL module *
 0001:0002e680       _tableOfTrigger            1002f680 f   * CIL library *:* CIL module *
 0001:0002e6c0       _sqlite3KeyInfoUnref       1002f6c0 f   * CIL library *:* CIL module *
 0001:0002e6e0       _sqlite3GetBoolean         1002f6e0 f   * CIL library *:* CIL module *
 0001:0002e700       _sqlite3CloseExtensions    1002f700 f   * CIL library *:* CIL module *
 0001:0002e740       _sqlite3FkReferences       1002f740 f   * CIL library *:* CIL module *
 0001:0002e780       _sqlite3IdListDelete       1002f780 f   * CIL library *:* CIL module *
 0001:0002e7c0       _sqliteDeleteColumnNames   1002f7c0 f   * CIL library *:* CIL module *
 0001:0002e840       _sqlite3CollapseDatabaseArray 1002f840 f   * CIL library *:* CIL module *
 0001:0002e930       _sqlite3FindIndex          1002f930 f   * CIL library *:* CIL module *
 0001:0002e9c0       _sqlite3FindTable          1002f9c0 f   * CIL library *:* CIL module *
 0001:0002ea70       _findIndexOrPrimaryKey     1002fa70 f   * CIL library *:* CIL module *
 0001:0002ead0       _sqlite3DeleteIndexSamples 1002fad0 f   * CIL library *:* CIL module *
 0001:0002eb40       _analysisLoader            1002fb40 f   * CIL library *:* CIL module *
 0001:0002ec30       _sampleSetRowidInt64       1002fc30 f   * CIL library *:* CIL module *
 0001:0002ec60       _sampleClear               1002fc60 f   * CIL library *:* CIL module *
 0001:0002ec80       _sqlite3ExprListDelete     1002fc80 f   * CIL library *:* CIL module *
 0001:0002ecf0       _sqlite3SelectExprHeight   1002fcf0 f   * CIL library *:* CIL module *
 0001:0002ed10       _exprSetHeight             1002fd10 f   * CIL library *:* CIL module *
 0001:0002ed80       _binaryCompareP5           1002fd80 f   * CIL library *:* CIL module *
 0001:0002eda0       _comparisonAffinity        1002fda0 f   * CIL library *:* CIL module *
 0001:0002edf0       _memjrnlClose              1002fdf0 f   * CIL library *:* CIL module *
 0001:0002ee10       _fileWriterFinish          1002fe10 f   * CIL library *:* CIL module *
 0001:0002eea0       _vdbeSorterRecordFree      1002fea0 f   * CIL library *:* CIL module *
 0001:0002eed0       _vdbeSorterIterZero        1002fed0 f   * CIL library *:* CIL module *
 0001:0002ef60       _sqlite3VdbeDeleteAuxData  1002ff60 f   * CIL library *:* CIL module *
 0001:0002efd0       _Cleanup                   1002ffd0 f   * CIL library *:* CIL module *
 0001:0002eff0       _sqlite3VdbeLeave          1002fff0 f   * CIL library *:* CIL module *
 0001:0002f050       _sqlite3VdbeEnter          10030050 f   * CIL library *:* CIL module *
 0001:0002f0b0       _freeEphemeralFunction     100300b0 f   * CIL library *:* CIL module *
 0001:0002f0c0       _sqlite3Stat4ProbeFree     100300c0 f   * CIL library *:* CIL module *
 0001:0002f130       _sqlite3VdbeMemIntegerify  10030130 f   * CIL library *:* CIL module *
 0001:0002f160       _sqlite3VdbeMemFinalize    10030160 f   * CIL library *:* CIL module *
 0001:0002f210       _sqlite3BtreeSchemaLocked  10030210 f   * CIL library *:* CIL module *
 0001:0002f240       _sqlite3BtreeGetMeta       10030240 f   * CIL library *:* CIL module *
 0001:0002f280       _sqlite3BtreeCursor        10030280 f   * CIL library *:* CIL module *
 0001:0002f2c0       _sqlite3BtreeGetAutoVacuum 100302c0 f   * CIL library *:* CIL module *
 0001:0002f2f0       _sqlite3BtreeSetAutoVacuum 100302f0 f   * CIL library *:* CIL module *
 0001:0002f360       _sqlite3BtreeSecureDelete  10030360 f   * CIL library *:* CIL module *
 0001:0002f3b0       _sqlite3BtreeMaxPageCount  100303b0 f   * CIL library *:* CIL module *
 0001:0002f3e0       _sqlite3BtreeGetReserve    100303e0 f   * CIL library *:* CIL module *
 0001:0002f400       _sqlite3BtreeSyncDisabled  10030400 f   * CIL library *:* CIL module *
 0001:0002f420       _sqlite3BtreeSetPagerFlags 10030420 f   * CIL library *:* CIL module *
 0001:0002f450       _sqlite3BtreeSetMmapLimit  10030450 f   * CIL library *:* CIL module *
 0001:0002f490       _sqlite3BtreeSetCacheSize  10030490 f   * CIL library *:* CIL module *
 0001:0002f4c0       _releasePage               100304c0 f   * CIL library *:* CIL module *
 0001:0002f4d0       _btreePageLookup           100304d0 f   * CIL library *:* CIL module *
 0001:0002f530       _btreeParseCell            10030530 f   * CIL library *:* CIL module *
 0001:0002f560       _btreeReleaseAllCursorPages 10030560 f   * CIL library *:* CIL module *
 0001:0002f5a0       _btreeClearHasContent      100305a0 f   * CIL library *:* CIL module *
 0001:0002f5c0       _sqlite3BtreeLeaveAll      100305c0 f   * CIL library *:* CIL module *
 0001:0002f5f0       _sqlite3BtreeEnterAll      100305f0 f   * CIL library *:* CIL module *
 0001:0002f620       _sqlite3BtreeLeaveCursor   10030620 f   * CIL library *:* CIL module *
 0001:0002f630       _sqlite3BtreeEnterCursor   10030630 f   * CIL library *:* CIL module *
 0001:0002f640       _sqlite3PagerExclusiveLock 10030640 f   * CIL library *:* CIL module *
 0001:0002f690       _sqlite3PagerBegin         10030690 f   * CIL library *:* CIL module *
 0001:0002f780       _sqlite3PagerUnref         10030780 f   * CIL library *:* CIL module *
 0001:0002f790       _syncJournal               10030790 f   * CIL library *:* CIL module *
 0001:0002f970       _releaseAllSavepoints      10030970 f   * CIL library *:* CIL module *
 0001:0002f9f0       _sqlite3RowSetClear        100309f0 f   * CIL library *:* CIL module *
 0001:0002fa40       _sqlite3PageFree           10030a40 f   * CIL library *:* CIL module *
 0001:0002fa50       _pcache1FreePage           10030a50 f   * CIL library *:* CIL module *
 0001:0002fa70       _sqlite3PcacheClear        10030a70 f   * CIL library *:* CIL module *
 0001:0002fa80       _winShmLock                10030a80 f   * CIL library *:* CIL module *
 0001:0002fc00       _removeElementGivenHash    10030c00 f   * CIL library *:* CIL module *
 0001:0002fc60       _sqlite3StrAccumReset      10030c60 f   * CIL library *:* CIL module *
 0001:0002fca0       _getIntArg                 10030ca0 f   * CIL library *:* CIL module *
 0001:0002fcd0       _sqlite3ScratchMalloc      10030cd0 f   * CIL library *:* CIL module *
 0001:0002fdd0       _sqlite3Malloc             10030dd0 f   * CIL library *:* CIL module *
 0001:0002fe40       _parseYyyyMmDd             10030e40 f   * CIL library *:* CIL module *
 0001:00030010       _fixBoundingBox            10031010 f   * CIL library *:* CIL module *
 0001:00030100       _AdjustTree                10031100 f   * CIL library *:* CIL module *
 0001:000301c0       _sqlite3Fts3PendingTermsClear 100311c0 f   * CIL library *:* CIL module *
 0001:00030240       _sqlite3Fts3HashFind       10031240 f   * CIL library *:* CIL module *
 0001:00030260       _fts3RemoveElementByHash   10031260 f   * CIL library *:* CIL module *
 0001:000302e0       _fts3EvalPhraseMergeToken  100312e0 f   * CIL library *:* CIL module *
 0001:000303a0       _fts3RollbackToMethod      100313a0 f   * CIL library *:* CIL module *
 0001:000303b0       _fts3RollbackMethod        100313b0 f   * CIL library *:* CIL module *
 0001:000303c0       _fts3DocidRange            100313c0 f   * CIL library *:* CIL module *
 0001:000303f0       _fts3PoslistNearMerge      100313f0 f   * CIL library *:* CIL module *
 0001:000304e0       _invalidateCachedKeyInfo   100314e0 f   * CIL library *:* CIL module *
 0001:000305f0       _setupLookaside            100315f0 f   * CIL library *:* CIL module *
 0001:00030720       _whereLoopClearUnion       10031720 f   * CIL library *:* CIL module *
 0001:000307a0       _callFinaliser             100317a0 f   * CIL library *:* CIL module *
 0001:00030830       _sqlite3VtabCallDestroy    10031830 f   * CIL library *:* CIL module *
 0001:000308a0       _sqlite3VtabUnlockList     100318a0 f   * CIL library *:* CIL module *
 0001:000308e0       _sqlite3VtabDisconnect     100318e0 f   * CIL library *:* CIL module *
 0001:00030910       _sqlite3ParserReset        10031910 f   * CIL library *:* CIL module *
 0001:00030940       _setAllPagerFlags          10031940 f   * CIL library *:* CIL module *
 0001:000309b0       _sqlite3FkRequired         100319b0 f   * CIL library *:* CIL module *
 0001:00030a70       _fkTriggerDelete           10031a70 f   * CIL library *:* CIL module *
 0001:00030ad0       _sqlite3WithDelete         10031ad0 f   * CIL library *:* CIL module *
 0001:00030b40       _sqliteViewResetAll        10031b40 f   * CIL library *:* CIL module *
 0001:00030bb0       _freeIndex                 10031bb0 f   * CIL library *:* CIL module *
 0001:00030c10       _stat4Destructor           10031c10 f   * CIL library *:* CIL module *
 0001:00030cc0       _sqlite3IndexAffinityOk    10031cc0 f   * CIL library *:* CIL module *
 0001:00030cf0       _sqlite3VdbeSorterReset    10031cf0 f   * CIL library *:* CIL module *
 0001:00030de0       _sqlite3VdbeMemSetNull     10031de0 f   * CIL library *:* CIL module *
 0001:00030e30       _sqlite3VdbeMemReleaseExternal 10031e30 f   * CIL library *:* CIL module *
 0001:00030e80       _moveToParent              10031e80 f   * CIL library *:* CIL module *
 0001:00030eb0       _getCellInfo               10031eb0 f   * CIL library *:* CIL module *
 0001:00030ee0       _sqlite3BtreeTripAllCursors 10031ee0 f   * CIL library *:* CIL module *
 0001:00030f70       _unlockBtreeIfUnused       10031f70 f   * CIL library *:* CIL module *
 0001:00030fa0       _freeTempSpace             10031fa0 f   * CIL library *:* CIL module *
 0001:00030fc0       _pager_end_transaction     10031fc0 f   * CIL library *:* CIL module *
 0001:00031180       _pager_reset               10032180 f   * CIL library *:* CIL module *
 0001:000311b0       _sqlite3RowSetNext         100321b0 f   * CIL library *:* CIL module *
 0001:00031200       _sqlite3PcacheReleaseMemory 10032200 f   * CIL library *:* CIL module *
 0001:00031290       _pcache1Unpin              10032290 f   * CIL library *:* CIL module *
 0001:00031310       _pcache1TruncateUnsafe     10032310 f   * CIL library *:* CIL module *
 0001:00031390       _pcache1EnforceMaxPage     10032390 f   * CIL library *:* CIL module *
 0001:000313d0       _pcache1Alloc              100323d0 f   * CIL library *:* CIL module *
 0001:000314c0       _rehash                    100324c0 f   * CIL library *:* CIL module *
 0001:000315c0       _sqlite3DbMallocRaw        100325c0 f   * CIL library *:* CIL module *
 0001:00031640       _sqlite3DbMallocZero       10032640 f   * CIL library *:* CIL module *
 0001:00031670       _sqlite3MallocZero         10032670 f   * CIL library *:* CIL module *
 0001:000316a0       _sqlite3Realloc            100326a0 f   * CIL library *:* CIL module *
 0001:00031810       _winMutexAlloc             10032810 f   * CIL library *:* CIL module *
 0001:00031870       _sqlite3OsOpenMalloc       10032870 f   * CIL library *:* CIL module *
 0001:000318f0       _parseDateOrTime           100328f0 f   * CIL library *:* CIL module *
 0001:000319c0       _fts3EvalNearTrim          100329c0 f   * CIL library *:* CIL module *
 0001:00031a40       _disconnectAllVtab         10032a40 f   * CIL library *:* CIL module *
 0001:00031b70       _whereLoopResize           10032b70 f   * CIL library *:* CIL module *
 0001:00031bf0       _whereLoopClear            10032bf0 f   * CIL library *:* CIL module *
 0001:00031c30       _termCanDriveIndex         10032c30 f   * CIL library *:* CIL module *
 0001:00031ca0       _sqlite3VtabCommit         10032ca0 f   * CIL library *:* CIL module *
 0001:00031cb0       _sqlite3VtabRollback       10032cb0 f   * CIL library *:* CIL module *
 0001:00031cc0       _triggerStepAllocate       10032cc0 f   * CIL library *:* CIL module *
 0001:00031d20       _sqlite3KeyInfoAlloc       10032d20 f   * CIL library *:* CIL module *
 0001:00031da0       _autoIncBegin              10032da0 f   * CIL library *:* CIL module *
 0001:00031e20       _sqlite3IndexAffinityStr   10032e20 f   * CIL library *:* CIL module *
 0001:00031ea0       _sqlite3FindFunction       10032ea0 f   * CIL library *:* CIL module *
 0001:00032040       _sqlite3AllocateIndexObject 10033040 f   * CIL library *:* CIL module *
 0001:000320d0       _resizeIndexObject         100330d0 f   * CIL library *:* CIL module *
 0001:00032170       _sampleSetRowid            10033170 f   * CIL library *:* CIL module *
 0001:000321c0       _dup8bytes                 100331c0 f   * CIL library *:* CIL module *
 0001:000321e0       _sqlite3ExprAlloc          100331e0 f   * CIL library *:* CIL module *
 0001:000322e0       _sqlite3ExprAddCollateToken 100332e0 f   * CIL library *:* CIL module *
 0001:00032320       _sqlite3CreateColumnExpr   10033320 f   * CIL library *:* CIL module *
 0001:000323b0       _fileWriterInit            100333b0 f   * CIL library *:* CIL module *
 0001:00032440       _vdbeSorterOpenTempFile    10033440 f   * CIL library *:* CIL module *
 0001:00032460       _sqlite3VdbeSorterClose    10033460 f   * CIL library *:* CIL module *
 0001:000325b0       _sqlite3VdbeAllocUnpackedRecord 100335b0 f   * CIL library *:* CIL module *
 0001:00032620       _sqlite3VdbeCreate         10033620 f   * CIL library *:* CIL module *
 0001:00032680       _sqlite3ValueNew           10033680 f   * CIL library *:* CIL module *
 0001:000326c0       _sqlite3VdbeMemShallowCopy 100336c0 f   * CIL library *:* CIL module *
 0001:00032730       _sqlite3ValueSetNull       10033730 f   * CIL library *:* CIL module *
 0001:00032740       _sqlite3VdbeMemRelease     10033740 f   * CIL library *:* CIL module *
 0001:00032780       _sqlite3BtreeSchema        10033780 f   * CIL library *:* CIL module *
 0001:000327e0       _sqlite3BtreeDataSize      100337e0 f   * CIL library *:* CIL module *
 0001:00032800       _sqlite3BtreeKeySize       10033800 f   * CIL library *:* CIL module *
 0001:00032840       _sqlite3BtreeCloseCursor   10033840 f   * CIL library *:* CIL module *
 0001:000328f0       _btreeEndTransaction       100338f0 f   * CIL library *:* CIL module *
 0001:00032940       _setSharedCacheTableLock   10033940 f   * CIL library *:* CIL module *
 0001:000329b0       _sqlite3WalOpen            100339b0 f   * CIL library *:* CIL module *
 0001:00032ad0       _pagerOpenWal              10033ad0 f   * CIL library *:* CIL module *
 0001:00032b40       _sqlite3PagerClearCache    10033b40 f   * CIL library *:* CIL module *
 0001:00032b60       _sqlite3PagerCommitPhaseTwo 10033b60 f   * CIL library *:* CIL module *
 0001:00032bb0       _pagerAcquireMapPage       10033bb0 f   * CIL library *:* CIL module *
 0001:00032c90       _pager_delmaster           10033c90 f   * CIL library *:* CIL module *
 0001:00032ed0       _pager_unlock              10033ed0 f   * CIL library *:* CIL module *
 0001:00032fd0       _rowSetEntryAlloc          10033fd0 f   * CIL library *:* CIL module *
 0001:00033020       _pcache1Destroy            10034020 f   * CIL library *:* CIL module *
 0001:00033090       _pcache1Truncate           10034090 f   * CIL library *:* CIL module *
 0001:000330e0       _pcache1Shrink             100340e0 f   * CIL library *:* CIL module *
 0001:00033130       _pcache1Cachesize          10034130 f   * CIL library *:* CIL module *
 0001:000331a0       _pcache1Create             100341a0 f   * CIL library *:* CIL module *
 0001:00033240       _pcache1ResizeHash         10034240 f   * CIL library *:* CIL module *
 0001:00033350       _sqlite3PageMalloc         10034350 f   * CIL library *:* CIL module *
 0001:00033360       _pcache1AllocPage          10034360 f   * CIL library *:* CIL module *
 0001:000333d0       _sqlite3BitvecCreate       100343d0 f   * CIL library *:* CIL module *
 0001:00033400       _winUnicodeToMbcs          10034400 f   * CIL library *:* CIL module *
 0001:00033490       _winMbcsToUnicode          10034490 f   * CIL library *:* CIL module *
 0001:00033520       _winUnicodeToUtf8          10034520 f   * CIL library *:* CIL module *
 0001:000335a0       _winUtf8ToUnicode          100345a0 f   * CIL library *:* CIL module *
 0001:00033620       _sqlite3HashInsert         10034620 f   * CIL library *:* CIL module *
 0001:00033790       _sqlite3HexToBlob          10034790 f   * CIL library *:* CIL module *
 0001:00033820       _sqlite3StrAccumFinish     10034820 f   * CIL library *:* CIL module *
 0001:000338b0       _sqlite3DbStrNDup          100348b0 f   * CIL library *:* CIL module *
 0001:000338f0       _sqlite3DbStrDup           100348f0 f   * CIL library *:* CIL module *
 0001:00033960       _softHeapLimitEnforcer     10034960 f   * CIL library *:* CIL module *
 0001:00033970       _sqlite3DefaultMutex       10034970 f   * CIL library *:* CIL module *
 0001:00033980       _sqlite3MutexInit          10034980 f   * CIL library *:* CIL module *
 0001:000339f0       _re_resize                 100349f0 f   * CIL library *:* CIL module *
 0001:00033a50       _fts3StringAppend          10034a50 f   * CIL library *:* CIL module *
 0001:00033af0       _blobGrowBuffer            10034af0 f   * CIL library *:* CIL module *
 0001:00033b40       _fts3MsrBufferData         10034b40 f   * CIL library *:* CIL module *
 0001:00033ba0       _simpleNext                10034ba0 f   * CIL library *:* CIL module *
 0001:00033cc0       _porterNext                10034cc0 f   * CIL library *:* CIL module *
 0001:00033dd0       _fts3ReallocOrFree         10034dd0 f   * CIL library *:* CIL module *
 0001:00033e10       _fts3auxGrowStatArray      10034e10 f   * CIL library *:* CIL module *
 0001:00033e70       _fts3ScanInteriorNode      10034e70 f   * CIL library *:* CIL module *
 0001:000340b0       _whereLoopDelete           100350b0 f   * CIL library *:* CIL module *
 0001:000340d0       _whereLoopXfer             100350d0 f   * CIL library *:* CIL module *
 0001:00034190       _sqlite3VtabMakeWritable   10035190 f   * CIL library *:* CIL module *
 0001:00034220       _sqlite3VtabOverloadFunction 10035220 f   * CIL library *:* CIL module *
 0001:000343b0       _sqlite3FkDelete           100353b0 f   * CIL library *:* CIL module *
 0001:00034470       _sqlite3IsLikeFunction     10035470 f   * CIL library *:* CIL module *
 0001:000344f0       _setLikeOptFlag            100354f0 f   * CIL library *:* CIL module *
 0001:00034530       _findCollSeqEntry          10035530 f   * CIL library *:* CIL module *
 0001:00034600       _sqlite3NameFromToken      10035600 f   * CIL library *:* CIL module *
 0001:00034650       _sqlite3DeleteTable        10035650 f   * CIL library *:* CIL module *
 0001:00034750       _sqlite3UnlinkAndDeleteIndex 10035750 f   * CIL library *:* CIL module *
 0001:000347f0       _sampleCopy                100357f0 f   * CIL library *:* CIL module *
 0001:000348a0       _sqlite3ExprListSetSpan    100358a0 f   * CIL library *:* CIL module *
 0001:00034920       _sqlite3ExprListSetName    10035920 f   * CIL library *:* CIL module *
 0001:00034990       _sqlite3IdListDup          10035990 f   * CIL library *:* CIL module *
 0001:00034a30       _sqlite3SrcListDup         10035a30 f   * CIL library *:* CIL module *
 0001:00034bb0       _sqlite3ExprListDup        10035bb0 f   * CIL library *:* CIL module *
 0001:00034cc0       _withDup                   10035cc0 f   * CIL library *:* CIL module *
 0001:00034d90       _sqlite3Expr               10035d90 f   * CIL library *:* CIL module *
 0001:00034dd0       _sqlite3ExprAddCollateString 10035dd0 f   * CIL library *:* CIL module *
 0001:00034e40       _sqlite3VdbeSorterInit     10035e40 f   * CIL library *:* CIL module *
 0001:00034f70       _sqlite3VtabImportErrmsg   10035f70 f   * CIL library *:* CIL module *
 0001:00034fb0       _releaseMemArray           10035fb0 f   * CIL library *:* CIL module *
 0001:00035070       _sqlite3VdbeSetSql         10036070 f   * CIL library *:* CIL module *
 0001:000350d0       _sqlite3ValueFree          100360d0 f   * CIL library *:* CIL module *
 0001:000350f0       _sqlite3VdbeMemMove        100360f0 f   * CIL library *:* CIL module *
 0001:00035150       _sqlite3VdbeMemSetRowSet   10036150 f   * CIL library *:* CIL module *
 0001:000351c0       _sqlite3VdbeMemSetDouble   100361c0 f   * CIL library *:* CIL module *
 0001:00035220       _sqlite3VdbeMemSetInt64    10036220 f   * CIL library *:* CIL module *
 0001:00035250       _sqlite3VdbeMemSetZeroBlob 10036250 f   * CIL library *:* CIL module *
 0001:00035280       _sqlite3BtreeLockTable     10036280 f   * CIL library *:* CIL module *
 0001:000352e0       _sqlite3BtreeCommitPhaseTwo 100362e0 f   * CIL library *:* CIL module *
 0001:00035350       _allocateTempSpace         10036350 f   * CIL library *:* CIL module *
 0001:00035370       _walIndexPage              10036370 f   * CIL library *:* CIL module *
 0001:00035490       _sqlite3PagerOpenWal       10036490 f   * CIL library *:* CIL module *
 0001:00035500       _sqlite3PagerOpenSavepoint 10036500 f   * CIL library *:* CIL module *
 0001:000355f0       _pager_open_journal        100365f0 f   * CIL library *:* CIL module *
 0001:00035710       _sqlite3PagerSetPagesize   10036710 f   * CIL library *:* CIL module *
 0001:00035870       _pagerOpenWalIfPresent     10036870 f   * CIL library *:* CIL module *
 0001:00035900       _readJournalHdr            10036900 f   * CIL library *:* CIL module *
 0001:00035b70       _sqlite3RowSetTest         10036b70 f   * CIL library *:* CIL module *
 0001:00035c90       _sqlite3RowSetInsert       10036c90 f   * CIL library *:* CIL module *
 0001:00035d00       _pcache1Fetch              10036d00 f   * CIL library *:* CIL module *
 0001:00035ef0       _sqlite3BitvecSet          10036ef0 f   * CIL library *:* CIL module *
 0001:00036140       _sqlite3DbRealloc          10037140 f   * CIL library *:* CIL module *
 0001:000361f0       _re_copy                   100371f0 f   * CIL library *:* CIL module *
 0001:00036260       _re_insert                 10037260 f   * CIL library *:* CIL module *
 0001:000362d0       _fts3IncrmergeHintPush     100372d0 f   * CIL library *:* CIL module *
 0001:00036320       _fts3AppendToNode          10037320 f   * CIL library *:* CIL module *
 0001:00036420       _nodeReaderNext            10037420 f   * CIL library *:* CIL module *
 0001:00036550       _getNextString             10037550 f   * CIL library *:* CIL module *
 0001:00036820       _whereLoopInsert           10037820 f   * CIL library *:* CIL module *
 0001:00036940       _sqlite3VtabSync           10037940 f   * CIL library *:* CIL module *
 0001:000369b0       _growVTrans                100379b0 f   * CIL library *:* CIL module *
 0001:00036a20       _addModuleArgument         10037a20 f   * CIL library *:* CIL module *
 0001:00036ac0       _exprTableColumn           10037ac0 f   * CIL library *:* CIL module *
 0001:00036af0       _exprTableRegister         10037af0 f   * CIL library *:* CIL module *
 0001:00036b80       _sqlite3FindCollSeq        10037b80 f   * CIL library *:* CIL module *
 0001:00036bc0       _synthCollSeq              10037bc0 f   * CIL library *:* CIL module *
 0001:00036c50       _sqlite3SrcListIndexedBy   10037c50 f   * CIL library *:* CIL module *
 0001:00036c90       _sqlite3SrcListDelete      10037c90 f   * CIL library *:* CIL module *
 0001:00036d40       _sqlite3SrcListEnlarge     10037d40 f   * CIL library *:* CIL module *
 0001:00036e50       _sqlite3ArrayAllocate      10037e50 f   * CIL library *:* CIL module *
 0001:00036ed0       _sqlite3AddColumnType      10037ed0 f   * CIL library *:* CIL module *
 0001:00036f10       _sqlite3FindDb             10037f10 f   * CIL library *:* CIL module *
 0001:00036f40       _sqlite3UnlinkAndDeleteTable 10037f40 f   * CIL library *:* CIL module *
 0001:00036f90       _sampleInsert              10037f90 f   * CIL library *:* CIL module *
 0001:00037150       _addAggInfoFunc            10038150 f   * CIL library *:* CIL module *
 0001:00037180       _addAggInfoColumn          10038180 f   * CIL library *:* CIL module *
 0001:000371b0       _sqlite3SelectDup          100381b0 f   * CIL library *:* CIL module *
 0001:000372f0       _exprDup                   100382f0 f   * CIL library *:* CIL module *
 0001:00037530       _sqlite3TransferBindings   10038530 f   * CIL library *:* CIL module *
 0001:000376c0       _sqlite3VdbeSetNumCols     100386c0 f   * CIL library *:* CIL module *
 0001:00037750       _freeP4                    10038750 f   * CIL library *:* CIL module *
 0001:00037818       $LN158                     10038818     * CIL library *:* CIL module *
 0001:00037834       $LN156                     10038834     * CIL library *:* CIL module *
 0001:00037850       _growOpArray               10038850 f   * CIL library *:* CIL module *
 0001:000378d0       _backupOnePage             100388d0 f   * CIL library *:* CIL module *
 0001:00037ad0       _sqlite3BtreeBeginStmt     10038ad0 f   * CIL library *:* CIL module *
 0001:00037b00       _sqlite3BtreeSetPageSize   10038b00 f   * CIL library *:* CIL module *
 0001:00037ba0       _btreeSetHasContent        10038ba0 f   * CIL library *:* CIL module *
 0001:00037be0       _walHashGet                10038be0 f   * CIL library *:* CIL module *
 0001:00037c40       _addToSavepointBitvecs     10038c40 f   * CIL library *:* CIL module *
 0001:00037ca0       _winConvertFromUtf8Filename 10038ca0 f   * CIL library *:* CIL module *
 0001:00037d00       _sqlite3StrAccumEnlarge    10038d00 f   * CIL library *:* CIL module *
 0001:00037e00       _sqlite3DbReallocOrFree    10038e00 f   * CIL library *:* CIL module *
 0001:00037e90       _lastRowsFunc              10038e90 f   * CIL library *:* CIL module *
 0001:00037ed0       _floorFunc                 10038ed0 f   * CIL library *:* CIL module *
 0001:00037f60       _ceilFunc                  10038f60 f   * CIL library *:* CIL module *
 0001:00037fe0       _signFunc                  10038fe0 f   * CIL library *:* CIL module *
 0001:000380a0       _atn2Func                  100390a0 f   * CIL library *:* CIL module *
 0001:00038130       _squareFunc                10039130 f   * CIL library *:* CIL module *
 0001:000381c0       _piFunc                    100391c0 f   * CIL library *:* CIL module *
 0001:000381e0       _re_append                 100391e0 f   * CIL library *:* CIL module *
 0001:00038200       _nodeReaderInit            10039200 f   * CIL library *:* CIL module *
 0001:00038260       _sqlite3VtabBegin          10039260 f   * CIL library *:* CIL module *
 0001:00038300       _addArgumentToVtab         10039300 f   * CIL library *:* CIL module *
 0001:00038370       _clearSelect               10039370 f   * CIL library *:* CIL module *
 0001:00038400       _total_changes             10039400 f   * CIL library *:* CIL module *
 0001:00038440       _changes                   10039440 f   * CIL library *:* CIL module *
 0001:00038480       _last_insert_rowid         10039480 f   * CIL library *:* CIL module *
 0001:000384c0       _randomFunc                100394c0 f   * CIL library *:* CIL module *
 0001:00038530       _sqlite3SrcListAppend      10039530 f   * CIL library *:* CIL module *
 0001:000385e0       _sqlite3IdListAppend       100395e0 f   * CIL library *:* CIL module *
 0001:00038650       _createTableStmt           10039650 f   * CIL library *:* CIL module *
 0001:00038850       _sqlite3TableLock          10039850 f   * CIL library *:* CIL module *
 0001:00038940       _samplePushPrevious        10039940 f   * CIL library *:* CIL module *
 0001:00038a00       _analyzeAggregate          10039a00 f   * CIL library *:* CIL module *
 0001:00038ca0       _sqlite3ExprDup            10039ca0 f   * CIL library *:* CIL module *
 0001:00038cc0       _vdbeSorterIterRead        10039cc0 f   * CIL library *:* CIL module *
 0001:00038e80       _displayP4                 10039e80 f   * CIL library *:* CIL module *
 0001:00039134       $LN59                      1003a134     * CIL library *:* CIL module *
 0001:00039180       _sqlite3VdbeChangeP4       1003a180 f   * CIL library *:* CIL module *
 0001:000392a0       _sqlite3VdbeChangeToNoop   1003a2a0 f   * CIL library *:* CIL module *
 0001:000392f0       _vdbeFreeOpArray           1003a2f0 f   * CIL library *:* CIL module *
 0001:00039360       _sqlite3VdbeAddOpList      1003a360 f   * CIL library *:* CIL module *
 0001:00039410       _sqlite3VdbeMakeLabel      1003a410 f   * CIL library *:* CIL module *
 0001:00039480       _sqlite3VdbeAddOp3         1003a480 f   * CIL library *:* CIL module *
 0001:000394e0       _sqlite3VdbeMemGrow        1003a4e0 f   * CIL library *:* CIL module *
 0001:00039610       _sqlite3BackupUpdate       1003a610 f   * CIL library *:* CIL module *
 0001:00039690       _setDestPgsz               1003a690 f   * CIL library *:* CIL module *
 0001:000396b0       _walIteratorInit           1003a6b0 f   * CIL library *:* CIL module *
 0001:00039850       _walCleanupHash            1003a850 f   * CIL library *:* CIL module *
 0001:00039900       _subjournalPage            1003a900 f   * CIL library *:* CIL module *
 0001:000399d0       _pager_write_pagelist      1003a9d0 f   * CIL library *:* CIL module *
 0001:00039b50       _pager_playback_one_page   1003ab50 f   * CIL library *:* CIL module *
 0001:0003a030       _winDlOpen                 1003b030 f   * CIL library *:* CIL module *
 0001:0003a080       _winGetLastErrorMsg        1003b080 f   * CIL library *:* CIL module *
 0001:0003a190       _enlargeAndAppend          1003b190 f   * CIL library *:* CIL module *
 0001:0003a1d0       _sqlite3AppendSpace        1003b1d0 f   * CIL library *:* CIL module *
 0001:0003a200       _re_subcompile_string      1003b200 f   * CIL library *:* CIL module *
 0001:0003a6a4       $LN249                     1003b6a4     * CIL library *:* CIL module *
 0001:0003a6cc       $LN240                     1003b6cc     * CIL library *:* CIL module *
 0001:0003a728       $LN250                     1003b728     * CIL library *:* CIL module *
 0001:0003a748       $LN241                     1003b748     * CIL library *:* CIL module *
 0001:0003a780       _re_subcompile_re          1003b780 f   * CIL library *:* CIL module *
 0001:0003a800       _fts3TruncateNode          1003b800 f   * CIL library *:* CIL module *
 0001:0003a9e0       _sqlite3VtabArgInit        1003b9e0 f   * CIL library *:* CIL module *
 0001:0003aa00       _targetSrcList             1003ba00 f   * CIL library *:* CIL module *
 0001:0003aa80       _sqlite3SelectDelete       1003ba80 f   * CIL library *:* CIL module *
 0001:0003aab0       _sqlite3ExprAnalyzeAggregates 1003bab0 f   * CIL library *:* CIL module *
 0001:0003aaf0       _sqlite3ExprCodeMove       1003baf0 f   * CIL library *:* CIL module *
 0001:0003ac30       _sqlite3ExprDelete         1003bc30 f   * CIL library *:* CIL module *
 0001:0003acc0       _sqlite3ExprAttachSubtrees 1003bcc0 f   * CIL library *:* CIL module *
 0001:0003ad20       _sqlite3VdbeSorterRowkey   1003bd20 f   * CIL library *:* CIL module *
 0001:0003ad90       _vdbeSorterIterVarint      1003bd90 f   * CIL library *:* CIL module *
 0001:0003aec0       _sqlite3VdbeClearObject    1003bec0 f   * CIL library *:* CIL module *
 0001:0003af70       _sqlite3VdbeDeletePriorOpcode 1003bf70 f   * CIL library *:* CIL module *
 0001:0003afb0       _sqlite3VdbeAddOp4Int      1003bfb0 f   * CIL library *:* CIL module *
 0001:0003aff0       _sqlite3VdbeAddParseSchemaOp 1003bff0 f   * CIL library *:* CIL module *
 0001:0003b070       _sqlite3VdbeAddOp4         1003c070 f   * CIL library *:* CIL module *
 0001:0003b0b0       _sqlite3VdbeAddOp2         1003c0b0 f   * CIL library *:* CIL module *
 0001:0003b0d0       _sqlite3VdbeAddOp1         1003c0d0 f   * CIL library *:* CIL module *
 0001:0003b0f0       _sqlite3VdbeAddOp0         1003c0f0 f   * CIL library *:* CIL module *
 0001:0003b110       _sqlite3VdbeMemNulTerminate 1003c110 f   * CIL library *:* CIL module *
 0001:0003b160       _sqlite3VdbeMemExpandBlob  1003c160 f   * CIL library *:* CIL module *
 0001:0003b1c0       _sqlite3VdbeMemMakeWriteable 1003c1c0 f   * CIL library *:* CIL module *
 0001:0003b220       _sqlite3WalSavepointUndo   1003c220 f   * CIL library *:* CIL module *
 0001:0003b260       _sqlite3WalUndo            1003c260 f   * CIL library *:* CIL module *
 0001:0003b300       _walCheckpoint             1003c300 f   * CIL library *:* CIL module *
 0001:0003b6d0       _pager_write               1003c6d0 f   * CIL library *:* CIL module *
 0001:0003b900       _winGetLastError           1003c900 f   * CIL library *:* CIL module *
 0001:0003b920       _winDlError                1003c920 f   * CIL library *:* CIL module *
 0001:0003b940       _sqlite3VdbeMemHandleBom   1003c940 f   * CIL library *:* CIL module *
 0001:0003b9c0       _sqlite3VdbeMemTranslate   1003c9c0 f   * CIL library *:* CIL module *
 0001:0003be70       _sqlite3StrAccumAppend     1003ce70 f   * CIL library *:* CIL module *
 0001:0003beb0       _varianceFinalize          1003ceb0 f   * CIL library *:* CIL module *
 0001:0003bf30       _stdevFinalize             1003cf30 f   * CIL library *:* CIL module *
 0001:0003bfb0       __medianFinalize           1003cfb0 f   * CIL library *:* CIL module *
 0001:0003c0c0       _modeFinalize              1003d0c0 f   * CIL library *:* CIL module *
 0001:0003c160       _modeStep                  1003d160 f   * CIL library *:* CIL module *
 0001:0003c270       _varianceStep              1003d270 f   * CIL library *:* CIL module *
 0001:0003c2f0       _percentFinal              1003d2f0 f   * CIL library *:* CIL module *
 0001:0003c410       _binaryToUnaryIfNull       1003d410 f   * CIL library *:* CIL module *
 0001:0003c440       _codeEqualityTerm          1003d440 f   * CIL library *:* CIL module *
 0001:0003c620       _codeApplyAffinity         1003d620 f   * CIL library *:* CIL module *
 0001:0003c6a0       _whereClauseInsert         1003d6a0 f   * CIL library *:* CIL module *
 0001:0003c7c0       _whereClauseClear          1003d7c0 f   * CIL library *:* CIL module *
 0001:0003c840       _sqlite3TriggerDeleteStep  1003d840 f   * CIL library *:* CIL module *
 0001:0003c890       _sqlite3TriggerUpdateStep  1003d890 f   * CIL library *:* CIL module *
 0001:0003c900       _sqlite3TriggerInsertStep  1003d900 f   * CIL library *:* CIL module *
 0001:0003c970       _sqlite3TriggerSelectStep  1003d970 f   * CIL library *:* CIL module *
 0001:0003c9e0       _sqlite3DeleteTriggerStep  1003d9e0 f   * CIL library *:* CIL module *
 0001:0003ca50       _finalizeAggFunctions      1003da50 f   * CIL library *:* CIL module *
 0001:0003cac0       _substExpr                 1003dac0 f   * CIL library *:* CIL module *
 0001:0003cbd0       _sqlite3GetVdbe            1003dbd0 f   * CIL library *:* CIL module *
 0001:0003cc20       _codeDistinct              1003dc20 f   * CIL library *:* CIL module *
 0001:0003cca0       _codeOffset                1003dca0 f   * CIL library *:* CIL module *
 0001:0003cd10       _autoIncStep               1003dd10 f   * CIL library *:* CIL module *
 0001:0003cd40       _readsTable                1003dd40 f   * CIL library *:* CIL module *
 0001:0003ce10       _sqlite3TableAffinity      1003de10 f   * CIL library *:* CIL module *
 0001:0003cef0       _countFinalize             1003def0 f   * CIL library *:* CIL module *
 0001:0003cf50       _countStep                 1003df50 f   * CIL library *:* CIL module *
 0001:0003cf90       _totalFinalize             1003df90 f   * CIL library *:* CIL module *
 0001:0003cfe0       _avgFinalize               1003dfe0 f   * CIL library *:* CIL module *
 0001:0003d040       _sumStep                   1003e040 f   * CIL library *:* CIL module *
 0001:0003d170       _sqlite3HaltConstraint     1003e170 f   * CIL library *:* CIL module *
 0001:0003d1e0       _sqlite3ChangeCookie       1003e1e0 f   * CIL library *:* CIL module *
 0001:0003d250       _sqlite3OpenMasterTable    1003e250 f   * CIL library *:* CIL module *
 0001:0003d2d0       _codeTableLocks            1003e2d0 f   * CIL library *:* CIL module *
 0001:0003d350       _loadAnalysis              1003e350 f   * CIL library *:* CIL module *
 0001:0003d380       _callStatGet               1003e380 f   * CIL library *:* CIL module *
 0001:0003d3e0       _sqlite3MinimumFileFormat  1003e3e0 f   * CIL library *:* CIL module *
 0001:0003d4e0       _sqlite3ExprAnalyzeAggList 1003e4e0 f   * CIL library *:* CIL module *
 0001:0003d540       _codeReal                  1003e540 f   * CIL library *:* CIL module *
 0001:0003d5d0       _sqlite3CodeOnce           1003e5d0 f   * CIL library *:* CIL module *
 0001:0003d600       _sqlite3ExprListAppend     1003e600 f   * CIL library *:* CIL module *
 0001:0003d6b0       _sqlite3ExprAnd            1003e6b0 f   * CIL library *:* CIL module *
 0001:0003d790       _vdbeSorterIterNext        1003e790 f   * CIL library *:* CIL module *
 0001:0003d810       _sqlite3VdbeDelete         1003e810 f   * CIL library *:* CIL module *
 0001:0003d860       _sqlite3VdbeMemSetStr      1003e860 f   * CIL library *:* CIL module *
 0001:0003d9e0       _sqlite3VdbeMemCopy        1003e9e0 f   * CIL library *:* CIL module *
 0001:0003da70       _sqlite3VdbeChangeEncoding 1003ea70 f   * CIL library *:* CIL module *
 0001:0003da90       _sqlite3Utf16to8           1003ea90 f   * CIL library *:* CIL module *
 0001:0003db00       _sqlite3StrAccumAppendAll  1003eb00 f   * CIL library *:* CIL module *
 0001:0003db30       _upper_quartileFinalize    1003eb30 f   * CIL library *:* CIL module *
 0001:0003dba0       _lower_quartileFinalize    1003eba0 f   * CIL library *:* CIL module *
 0001:0003dbf0       _medianFinalize            1003ebf0 f   * CIL library *:* CIL module *
 0001:0003dc40       _yy_destructor             1003ec40 f   * CIL library *:* CIL module *
 0001:0003dd10       $LN102                     1003ed10     * CIL library *:* CIL module *
 0001:0003dd34       $LN99                      1003ed34     * CIL library *:* CIL module *
 0001:0003dd90       _whereInfoFree             1003ed90 f   * CIL library *:* CIL module *
 0001:0003ddf0       _explainAppendTerm         1003edf0 f   * CIL library *:* CIL module *
 0001:0003de60       _codeAllEqualityTerms      1003ee60 f   * CIL library *:* CIL module *
 0001:0003e0a0       _whereSplit                1003f0a0 f   * CIL library *:* CIL module *
 0001:0003e0f0       _sqlite3Vacuum             1003f0f0 f   * CIL library *:* CIL module *
 0001:0003e130       _sqlite3DeleteTrigger      1003f130 f   * CIL library *:* CIL module *
 0001:0003e180       _generateOutputSubroutine  1003f180 f   * CIL library *:* CIL module *
 0001:0003e47c       $LN117                     1003f47c     * CIL library *:* CIL module *
 0001:0003e490       _computeLimitRegisters     1003f490 f   * CIL library *:* CIL module *
 0001:0003e640       _generateSortTail          1003f640 f   * CIL library *:* CIL module *
 0001:0003ea10       $LN157                     1003fa10     * CIL library *:* CIL module *
 0001:0003ea30       _sqlite3SelectNew          1003fa30 f   * CIL library *:* CIL module *
 0001:0003eb50       _sqlite3CompleteInsertion  1003fb50 f   * CIL library *:* CIL module *
 0001:0003ecf0       _sqlite3SchemaClear        1003fcf0 f   * CIL library *:* CIL module *
 0001:0003ede0       _sqlite3UniqueConstraint   1003fde0 f   * CIL library *:* CIL module *
 0001:0003ef10       _sqlite3AddCheckConstraint 1003ff10 f   * CIL library *:* CIL module *
 0001:0003ef80       _sqlite3ResetAllSchemasOfConnection 1003ff80 f   * CIL library *:* CIL module *
 0001:0003efe0       _sqlite3ResetOneSchema     1003ffe0 f   * CIL library *:* CIL module *
 0001:0003f020       _sqlite3ExprCodeAtInit     10040020 f   * CIL library *:* CIL module *
 0001:0003f080       _codeInteger               10040080 f   * CIL library *:* CIL module *
 0001:0003f180       _vdbeSorterIterInit        10040180 f   * CIL library *:* CIL module *
 0001:0003f3b0       _setResultStrOrError       100403b0 f   * CIL library *:* CIL module *
 0001:0003f400       _sqlite3VdbeSetColName     10040400 f   * CIL library *:* CIL module *
 0001:0003f440       _sqlite3ValueSetStr        10040440 f   * CIL library *:* CIL module *
 0001:0003f460       _sqlite3VdbeMemStringify   10040460 f   * CIL library *:* CIL module *
 0001:0003f510       _localtimeOffset           10040510 f   * CIL library *:* CIL module *
 0001:0003f9e0       $LN187                     100409e0     * CIL library *:* CIL module *
 0001:0003fa10       _powerFunc                 10040a10 f   * CIL library *:* CIL module *
 0001:0003faf0       _deg2radFunc               10040af0 f   * CIL library *:* CIL module *
 0001:0003fbb0       _rad2degFunc               10040bb0 f   * CIL library *:* CIL module *
 0001:0003fc70       _expFunc                   10040c70 f   * CIL library *:* CIL module *
 0001:0003fd20       _log10Func                 10040d20 f   * CIL library *:* CIL module *
 0001:0003fdd0       _logFunc                   10040dd0 f   * CIL library *:* CIL module *
 0001:0003fe80       _cothFunc                  10040e80 f   * CIL library *:* CIL module *
 0001:0003ff40       _tanhFunc                  10040f40 f   * CIL library *:* CIL module *
 0001:0003fff0       _coshFunc                  10040ff0 f   * CIL library *:* CIL module *
 0001:000400a0       _sinhFunc                  100410a0 f   * CIL library *:* CIL module *
 0001:00040150       _cotFunc                   10041150 f   * CIL library *:* CIL module *
 0001:00040200       _tanFunc                   10041200 f   * CIL library *:* CIL module *
 0001:000402b0       _cosFunc                   100412b0 f   * CIL library *:* CIL module *
 0001:00040360       _sinFunc                   10041360 f   * CIL library *:* CIL module *
 0001:00040410       _atanhFunc                 10041410 f   * CIL library *:* CIL module *
 0001:000404e0       _asinhFunc                 100414e0 f   * CIL library *:* CIL module *
 0001:000405b0       _acoshFunc                 100415b0 f   * CIL library *:* CIL module *
 0001:00040680       _atanFunc                  10041680 f   * CIL library *:* CIL module *
 0001:00040730       _asinFunc                  10041730 f   * CIL library *:* CIL module *
 0001:000407e0       _acosFunc                  100417e0 f   * CIL library *:* CIL module *
 0001:00040890       _sqrtFunc                  10041890 f   * CIL library *:* CIL module *
 0001:00040940       _percentStep               10041940 f   * CIL library *:* CIL module *
 0001:00040b50       _yy_pop_parser_stack       10041b50 f   * CIL library *:* CIL module *
 0001:00040b90       _sqlite3WhereEnd           10041b90 f   * CIL library *:* CIL module *
 0001:00041070       _explainIndexRange         10042070 f   * CIL library *:* CIL module *
 0001:00041250       _sqlite3UnlinkAndDeleteTrigger 10042250 f   * CIL library *:* CIL module *
 0001:000412d0       _generateColumnTypes       100422d0 f   * CIL library *:* CIL module *
 0001:000413f0       _returnSingleInt           100423f0 f   * CIL library *:* CIL module *
 0001:00041490       _minMaxFinalize            10042490 f   * CIL library *:* CIL module *
 0001:000414d0       _sumFinalize               100424d0 f   * CIL library *:* CIL module *
 0001:00041560       _zeroblobFunc              10042560 f   * CIL library *:* CIL module *
 0001:000415d0       _contextMalloc             100425d0 f   * CIL library *:* CIL module *
 0001:00041650       _absFunc                   10042650 f   * CIL library *:* CIL module *
 0001:00041730       _sqlite3SchemaGet          10042730 f   * CIL library *:* CIL module *
 0001:00041800       _sqlite3ExprCodeExprList   10042800 f   * CIL library *:* CIL module *
 0001:00041930       _sqlite3ExprCodeTemp       10042930 f   * CIL library *:* CIL module *
 0001:00041a50       _applyAffinity             10042a50 f   * CIL library *:* CIL module *
 0001:00041c30       _recordFunc                10042c30 f   * CIL library *:* CIL module *
 0001:00041d50       _sqlite3ValueText          10042d50 f   * CIL library *:* CIL module *
 0001:00041df0       _parseModifier             10042df0 f   * CIL library *:* CIL module *
 0001:0004270c       $LN295                     1004370c     * CIL library *:* CIL module *
 0001:00042724       $LN238                     10043724     * CIL library *:* CIL module *
 0001:00042780       _fts3tokColumnMethod       10043780 f   * CIL library *:* CIL module *
 0001:00042864       $LN148                     10043864     * CIL library *:* CIL module *
 0001:00042880       _fts3auxColumnMethod       10043880 f   * CIL library *:* CIL module *
 0001:000429c4       $LN164                     100439c4     * CIL library *:* CIL module *
 0001:000429e0       _yy_accept                 100439e0 f   * CIL library *:* CIL module *
 0001:00042a10       _sqlite3ParserFree         10043a10 f   * CIL library *:* CIL module *
 0001:00042a40       _groupConcatFinalize       10043a40 f   * CIL library *:* CIL module *
 0001:00042af0       _charFunc                  10043af0 f   * CIL library *:* CIL module *
 0001:00042c70       _compileoptiongetFunc      10043c70 f   * CIL library *:* CIL module *
 0001:00042cd0       _sourceidFunc              10043cd0 f   * CIL library *:* CIL module *
 0001:00042d20       _versionFunc               10043d20 f   * CIL library *:* CIL module *
 0001:00042d70       _randomBlob                10043d70 f   * CIL library *:* CIL module *
 0001:00042e00       _typeofFunc                10043e00 f   * CIL library *:* CIL module *
 0001:00042e80       $LN90                      10043e80     * CIL library *:* CIL module *
 0001:00042e90       _callCollNeeded            10043e90 f   * CIL library *:* CIL module *
 0001:00042f50       _statInit                  10043f50 f   * CIL library *:* CIL module *
 0001:00043100       _exprCodeBetween           10044100 f   * CIL library *:* CIL module *
 0001:00043210       _sqlite3ValueApplyAffinity 10044210 f   * CIL library *:* CIL module *
 0001:000432c0       _sqlite3VdbeGetBoundValue  100442c0 f   * CIL library *:* CIL module *
 0001:00043310       _vdbeCompareMemString      10044310 f   * CIL library *:* CIL module *
 0001:00043400       _sqlite3ValueBytes         10044400 f   * CIL library *:* CIL module *
 0001:00043430       _sqlite3AnalyzeFunctions   10044430 f   * CIL library *:* CIL module *
 0001:00043440       _getTextArg                10044440 f   * CIL library *:* CIL module *
 0001:00043470       _isDate                    10044470 f   * CIL library *:* CIL module *
 0001:00043570       _differenceFunc            10044570 f   * CIL library *:* CIL module *
 0001:00043690       _charindexFunc             10044690 f   * CIL library *:* CIL module *
 0001:00043750       _isLikeOrGlob              10044750 f   * CIL library *:* CIL module *
 0001:00043990       _soundexFunc               10044990 f   * CIL library *:* CIL module *
 0001:00043ad0       _unicodeFunc               10044ad0 f   * CIL library *:* CIL module *
 0001:00043b30       _compileoptionusedFunc     10044b30 f   * CIL library *:* CIL module *
 0001:00043b80       _statGet                   10044b80 f   * CIL library *:* CIL module *
 0001:00043f90       _sqlite3MemCompare         10044f90 f   * CIL library *:* CIL module *
 0001:00044110       _sqlite3VXPrintf           10045110 f   * CIL library *:* CIL module *
 0001:00045060       $LN1401                    10046060     * CIL library *:* CIL module *
 0001:0004507c       $LN1348                    1004607c     * CIL library *:* CIL module *
 0001:00045090       $LN1402                    10046090     * CIL library *:* CIL module *
 0001:000450d0       _strftimeFunc              100460d0 f   * CIL library *:* CIL module *
 0001:00045680       $LN207                     10046680     * CIL library *:* CIL module *
 0001:00045698       $LN196                     10046698     * CIL library *:* CIL module *
 0001:000456ec       $LN208                     100466ec     * CIL library *:* CIL module *
 0001:0004571c       $LN199                     1004671c     * CIL library *:* CIL module *
 0001:00045750       _dateFunc                  10046750 f   * CIL library *:* CIL module *
 0001:000457e0       _timeFunc                  100467e0 f   * CIL library *:* CIL module *
 0001:00045870       _datetimeFunc              10046870 f   * CIL library *:* CIL module *
 0001:00045910       _juliandayFunc             10046910 f   * CIL library *:* CIL module *
 0001:00045d10       _torealFunc                10046d10 f   * CIL library *:* CIL module *
 0001:00045f40       $LN21                      10046f40     * CIL library *:* CIL module *
 0001:00045f50       _tointegerFunc             10046f50 f   * CIL library *:* CIL module *
 0001:00046080       $LN133                     10047080     * CIL library *:* CIL module *
 0001:00046090       _rtreedepth                10047090 f   * CIL library *:* CIL module *
 0001:00046120       _groupConcatStep           10047120 f   * CIL library *:* CIL module *
 0001:000461d0       _minmaxStep                100471d0 f   * CIL library *:* CIL module *
 0001:00046280       _trimFunc                  10047280 f   * CIL library *:* CIL module *
 0001:000465b0       _replaceFunc               100475b0 f   * CIL library *:* CIL module *
 0001:00046860       _hexFunc                   10047860 f   * CIL library *:* CIL module *
 0001:00046930       _quoteFunc                 10047930 f   * CIL library *:* CIL module *
 0001:00046b78       $LN144                     10047b78     * CIL library *:* CIL module *
 0001:00046b90       _nullifFunc                10047b90 f   * CIL library *:* CIL module *
 0001:00046bc0       _likeFunc                  10047bc0 f   * CIL library *:* CIL module *
 0001:00046ce0       _lowerFunc                 10047ce0 f   * CIL library *:* CIL module *
 0001:00046d90       _upperFunc                 10047d90 f   * CIL library *:* CIL module *
 0001:00046e50       _substrFunc                10047e50 f   * CIL library *:* CIL module *
 0001:00047180       _instrFunc                 10048180 f   * CIL library *:* CIL module *
 0001:000472f0       _lengthFunc                100482f0 f   * CIL library *:* CIL module *
 0001:000473b8       $LN140                     100483b8     * CIL library *:* CIL module *
 0001:000473d0       _minmaxFunc                100483d0 f   * CIL library *:* CIL module *
 0001:00047480       _statPush                  10048480 f   * CIL library *:* CIL module *
 0001:00047640       _checkAppendMsg            10048640 f   * CIL library *:* CIL module *
 0001:000476c0       _sqlite3XPrintf            100486c0 f   * CIL library *:* CIL module *
 0001:000476e0       _renderLogMsg              100486e0 f   * CIL library *:* CIL module *
 0001:00047810       _sqlite3VMPrintf           10048810 f   * CIL library *:* CIL module *
 0001:00047890       _sqlite3SetString          10048890 f   * CIL library *:* CIL module *
 0001:000478c0       _ctimestampFunc            100488c0 f   * CIL library *:* CIL module *
 0001:000478e0       _cdateFunc                 100488e0 f   * CIL library *:* CIL module *
 0001:00047900       _ctimeFunc                 10048900 f   * CIL library *:* CIL module *
 0001:00047920       _printfFunc                10048920 f   * CIL library *:* CIL module *
 0001:000479f0       _sqlite3NestedParse        100489f0 f   * CIL library *:* CIL module *
 0001:00047a90       _openStatTable             10048a90 f   * CIL library *:* CIL module *
 0001:00047c30       _sqlite3VdbeExpandSql      10048c30 f   * CIL library *:* CIL module *
 0001:00047f50       _sqlite3VdbeCheckFk        10048f50 f   * CIL library *:* CIL module *
 0001:00047fc0       _sqlite3VdbeList           10048fc0 f   * CIL library *:* CIL module *
 0001:00048380       _checkRef                  10049380 f   * CIL library *:* CIL module *
 0001:000483e0       _sqlite3ErrorMsg           100493e0 f   * CIL library *:* CIL module *
 0001:00048430       _sqlite3Error              10049430 f   * CIL library *:* CIL module *
 0001:000484f0       _sqlite3MAppendf           100494f0 f   * CIL library *:* CIL module *
 0001:00048520       _sqlite3MPrintf            10049520 f   * CIL library *:* CIL module *
 0001:00048540       _sqlite3ApiExit            10049540 f   * CIL library *:* CIL module *
 0001:00048580       _sqlite3RegisterDateTimeFunctions 10049580 f   * CIL library *:* CIL module *
 0001:000485b0       _vtshimRollbackTo          100495b0 f   * CIL library *:* CIL module *
 0001:00048610       _vtshimRelease             10049610 f   * CIL library *:* CIL module *
 0001:00048670       _vtshimSavepoint           10049670 f   * CIL library *:* CIL module *
 0001:000486d0       _vtshimRename              100496d0 f   * CIL library *:* CIL module *
 0001:00048730       _vtshimFindFunction        10049730 f   * CIL library *:* CIL module *
 0001:00048790       _vtshimRollback            10049790 f   * CIL library *:* CIL module *
 0001:000487f0       _vtshimCommit              100497f0 f   * CIL library *:* CIL module *
 0001:00048850       _vtshimSync                10049850 f   * CIL library *:* CIL module *
 0001:000488b0       _vtshimBegin               100498b0 f   * CIL library *:* CIL module *
 0001:00048910       _vtshimUpdate              10049910 f   * CIL library *:* CIL module *
 0001:00048970       _vtshimRowid               10049970 f   * CIL library *:* CIL module *
 0001:000489d0       _vtshimColumn              100499d0 f   * CIL library *:* CIL module *
 0001:00048a30       _vtshimEof                 10049a30 f   * CIL library *:* CIL module *
 0001:00048a80       _vtshimNext                10049a80 f   * CIL library *:* CIL module *
 0001:00048ae0       _vtshimFilter              10049ae0 f   * CIL library *:* CIL module *
 0001:00048b40       _vtshimClose               10049b40 f   * CIL library *:* CIL module *
 0001:00048bb0       _vtshimBestIndex           10049bb0 f   * CIL library *:* CIL module *
 0001:00048c10       _rtreenode                 10049c10 f   * CIL library *:* CIL module *
 0001:00048e10       _rtreeBestIndex            10049e10 f   * CIL library *:* CIL module *
 0001:00048fd8       $LN43                      10049fd8     * CIL library *:* CIL module *
 0001:00048ff0       $LN38                      10049ff0     * CIL library *:* CIL module *
 0001:00049010       _fts3MatchinfoCheck        1004a010 f   * CIL library *:* CIL module *
 0001:00049070       _fts3tokQueryTokenizer     1004a070 f   * CIL library *:* CIL module *
 0001:000490d0       _sqlite3Fts3InitTokenizer  1004a0d0 f   * CIL library *:* CIL module *
 0001:00049260       _fts3FunctionArg           1004a260 f   * CIL library *:* CIL module *
 0001:000492f0       _fts3CursorSeekStmt        1004a2f0 f   * CIL library *:* CIL module *
 0001:00049360       _fts3Appendf               1004a360 f   * CIL library *:* CIL module *
 0001:000493d0       _fts3IsSpecialColumn       1004a3d0 f   * CIL library *:* CIL module *
 0001:00049430       _sqlite3CantopenError      1004a430 f   * CIL library *:* CIL module *
 0001:00049450       _sqlite3MisuseError        1004a450 f   * CIL library *:* CIL module *
 0001:00049470       _sqlite3CorruptError       1004a470 f   * CIL library *:* CIL module *
 0001:00049490       _createCollation           1004a490 f   * CIL library *:* CIL module *
 0001:00049650       _sqlite3CreateFunc         1004a650 f   * CIL library *:* CIL module *
 0001:00049830       _yy_syntax_error           1004a830 f   * CIL library *:* CIL module *
 0001:00049860       _yyStackOverflow           1004a860 f   * CIL library *:* CIL module *
 0001:000498a0       _explainOneScan            1004a8a0 f   * CIL library *:* CIL module *
 0001:00049b10       _vtabBestIndex             1004ab10 f   * CIL library *:* CIL module *
 0001:00049c10       _allocateIndexInfo         1004ac10 f   * CIL library *:* CIL module *
 0001:00049e30       _vtabCallConstructor       1004ae30 f   * CIL library *:* CIL module *
 0001:0004a170       _sqlite3VtabFinishParse    1004b170 f   * CIL library *:* CIL module *
 0001:0004a340       _createModule              1004b340 f   * CIL library *:* CIL module *
 0001:0004a450       _explainSimpleCount        1004b450 f   * CIL library *:* CIL module *
 0001:0004a4e0       _sqlite3IndexedByLookup    1004b4e0 f   * CIL library *:* CIL module *
 0001:0004a550       _selectColumnsFromExprList 1004b550 f   * CIL library *:* CIL module *
 0001:0004a790       _generateColumnNames       1004b790 f   * CIL library *:* CIL module *
 0001:0004a9a0       _explainComposite          1004b9a0 f   * CIL library *:* CIL module *
 0001:0004aa30       _explainTempTable          1004ba30 f   * CIL library *:* CIL module *
 0001:0004aa80       _checkForMultiColumnSelectError 1004ba80 f   * CIL library *:* CIL module *
 0001:0004aab0       _sqlite3JoinType           1004bab0 f   * CIL library *:* CIL module *
 0001:0004abc0       _corruptSchema             1004bbc0 f   * CIL library *:* CIL module *
 0001:0004ac50       _sqlite3AutoLoadExtensions 1004bc50 f   * CIL library *:* CIL module *
 0001:0004ad20       _sqlite3LoadExtension      1004bd20 f   * CIL library *:* CIL module *
 0001:0004b120       _sqlite3FkLocateIndex      1004c120 f   * CIL library *:* CIL module *
 0001:0004b330       _sqlite3RegisterLikeFunctions 1004c330 f   * CIL library *:* CIL module *
 0001:0004b3e0       _errlogFunc                1004c3e0 f   * CIL library *:* CIL module *
 0001:0004b410       _roundFunc                 1004c410 f   * CIL library *:* CIL module *
 0001:0004b5b0       _sqlite3IsReadOnly         1004c5b0 f   * CIL library *:* CIL module *
 0001:0004b640       _sqlite3GetCollSeq         1004c640 f   * CIL library *:* CIL module *
 0001:0004b710       _sqlite3WithAdd            1004c710 f   * CIL library *:* CIL module *
 0001:0004b840       _sqlite3RowidConstraint    1004c840 f   * CIL library *:* CIL module *
 0001:0004b8b0       _sqlite3SrcListAppendFromTerm 1004c8b0 f   * CIL library *:* CIL module *
 0001:0004b980       _sqlite3CreateForeignKey   1004c980 f   * CIL library *:* CIL module *
 0001:0004bca0       _sqlite3ClearStatTables    1004cca0 f   * CIL library *:* CIL module *
 0001:0004bd30       _destroyRootPage           1004cd30 f   * CIL library *:* CIL module *
 0001:0004bdc0       _sqlite3LocateCollSeq      1004cdc0 f   * CIL library *:* CIL module *
 0001:0004be30       _sqlite3AddCollateType     1004ce30 f   * CIL library *:* CIL module *
 0001:0004bed0       _sqlite3AddDefaultValue    1004ced0 f   * CIL library *:* CIL module *
 0001:0004c000       _sqlite3AddColumn          1004d000 f   * CIL library *:* CIL module *
 0001:0004c140       _sqlite3CheckObjectName    1004d140 f   * CIL library *:* CIL module *
 0001:0004c1a0       _sqlite3TwoPartName        1004d1a0 f   * CIL library *:* CIL module *
 0001:0004c240       _sqliteAuthBadReturnCode   1004d240 f   * CIL library *:* CIL module *
 0001:0004c260       _sqlite3FixExpr            1004d260 f   * CIL library *:* CIL module *
 0001:0004c2f0       _sqlite3FixSelect          1004d2f0 f   * CIL library *:* CIL module *
 0001:0004c390       _sqlite3FixSrcList         1004d390 f   * CIL library *:* CIL module *
 0001:0004c450       _isSystemTable             1004d450 f   * CIL library *:* CIL module *
 0001:0004c4b0       _whereOrName               1004d4b0 f   * CIL library *:* CIL module *
 0001:0004c500       _renameTriggerFunc         1004d500 f   * CIL library *:* CIL module *
 0001:0004c600       _renameParentFunc          1004d600 f   * CIL library *:* CIL module *
 0001:0004c7b0       _renameTableFunc           1004d7b0 f   * CIL library *:* CIL module *
 0001:0004c890       _sqlite3ExprListCheckLength 1004d890 f   * CIL library *:* CIL module *
 0001:0004c8c0       _sqlite3ExprAssignVarNumber 1004d8c0 f   * CIL library *:* CIL module *
 0001:0004cb20       _sqlite3ExprCheckHeight    1004db20 f   * CIL library *:* CIL module *
 0001:0004cb50       _resolveOutOfRangeError    1004db50 f   * CIL library *:* CIL module *
 0001:0004cb70       _notValidCheckConstraint   1004db70 f   * CIL library *:* CIL module *
 0001:0004cb90       _notValidPartIdxWhere      1004db90 f   * CIL library *:* CIL module *
 0001:0004cbb0       _columnMallocFailure       1004dbb0 f   * CIL library *:* CIL module *
 0001:0004cbe0       _columnMem                 1004dbe0 f   * CIL library *:* CIL module *
 0001:0004cc50       _sqlite3InvalidFunction    1004dc50 f   * CIL library *:* CIL module *
 0001:0004cca0       _vdbeSafety                1004dca0 f   * CIL library *:* CIL module *
 0001:0004ccc0       _sqlite3VdbeRecordCompare  1004dcc0 f   * CIL library *:* CIL module *
 0001:0004d170       _sqlite3VdbeTransferError  1004e170 f   * CIL library *:* CIL module *
 0001:0004d200       _decodeFlags               1004e200 f   * CIL library *:* CIL module *
 0001:0004d2a0       _freeSpace                 1004e2a0 f   * CIL library *:* CIL module *
 0001:0004d500       _defragmentPage            1004e500 f   * CIL library *:* CIL module *
 0001:0004d6c0       _sqlite3WalFindFrame       1004e6c0 f   * CIL library *:* CIL module *
 0001:0004d7f0       _walLimitSize              1004e7f0 f   * CIL library *:* CIL module *
 0001:0004d870       _walIndexAppend            1004e870 f   * CIL library *:* CIL module *
 0001:0004d960       _pagerUndoCallback         1004e960 f   * CIL library *:* CIL module *
 0001:0004da00       _pager_playback            1004ea00 f   * CIL library *:* CIL module *
 0001:0004dcc0       _winLogIoerr               1004ecc0 f   * CIL library *:* CIL module *
 0001:0004dcf0       _winLogErrorAtLine         1004ecf0 f   * CIL library *:* CIL module *
 0001:0004ddc0       _winMemShutdown            1004edc0 f   * CIL library *:* CIL module *
 0001:0004de10       _winMemInit                1004ee10 f   * CIL library *:* CIL module *
 0001:0004de80       _winMemSize                1004ee80 f   * CIL library *:* CIL module *
 0001:0004dec0       _winMemRealloc             1004eec0 f   * CIL library *:* CIL module *
 0001:0004df30       _winMemFree                1004ef30 f   * CIL library *:* CIL module *
 0001:0004df70       _winMemMalloc              1004ef70 f   * CIL library *:* CIL module *
 0001:0004e020       _logBadConnection          1004f020 f   * CIL library *:* CIL module *
 0001:0004e3f0       _yy_shift                  1004f3f0 f   * CIL library *:* CIL module *
 0001:0004e430       _whereLoopAddVirtual       1004f430 f   * CIL library *:* CIL module *
 0001:0004e890       _whereKeyStats             1004f890 f   * CIL library *:* CIL module *
 0001:0004e9d0       _sqlite3VtabCallCreate     1004f9d0 f   * CIL library *:* CIL module *
 0001:0004eab0       _sqlite3VtabCallConnect    1004fab0 f   * CIL library *:* CIL module *
 0001:0004ebd0       _withExpand                1004fbd0 f   * CIL library *:* CIL module *
 0001:0004ee30       _convertCompoundSelectToSubquery 1004fe30 f   * CIL library *:* CIL module *
 0001:0004eff0       _sqlite3FkOldmask          1004fff0 f   * CIL library *:* CIL module *
 0001:0004f0c0       _sqlite3RegisterBuiltinFunctions 100500c0 f   * CIL library *:* CIL module *
 0001:0004f0e0       _loadExt                   100500e0 f   * CIL library *:* CIL module *
 0001:0004f170       _sqlite3CheckCollSeq       10050170 f   * CIL library *:* CIL module *
 0001:0004f1a0       _sqlite3KeyInfoOfIndex     100501a0 f   * CIL library *:* CIL module *
 0001:0004f2b0       _destroyTable              100502b0 f   * CIL library *:* CIL module *
 0001:0004f340       _sqlite3AuthCheck          10050340 f   * CIL library *:* CIL module *
 0001:0004f3e0       _sqlite3AuthReadCol        100503e0 f   * CIL library *:* CIL module *
 0001:0004f4b0       _sqlite3FixTriggerStep     100504b0 f   * CIL library *:* CIL module *
 0001:0004f500       _whereTempTriggers         10050500 f   * CIL library *:* CIL module *
 0001:0004f5b0       _whereForeignKeys          100505b0 f   * CIL library *:* CIL module *
 0001:0004f620       _sqlite3AlterFunctions     10050620 f   * CIL library *:* CIL module *
 0001:0004f650       _sqlite3PExpr              10050650 f   * CIL library *:* CIL module *
 0001:0004f6c0       _sqlite3ExprSetHeight      100506c0 f   * CIL library *:* CIL module *
 0001:0004f6f0       _sqlite3ExprCollSeq        100506f0 f   * CIL library *:* CIL module *
 0001:0004f820       _resolveAlias              10050820 f   * CIL library *:* CIL module *
 0001:0004f9b0       _vdbeSorterCompare         100509b0 f   * CIL library *:* CIL module *
 0001:0004fc20       _vdbeSafetyNotNull         10050c20 f   * CIL library *:* CIL module *
 0001:0004fc60       _vdbeRecordCompareString   10050c60 f   * CIL library *:* CIL module *
 0001:0004fdc0       _vdbeRecordCompareInt      10050dc0 f   * CIL library *:* CIL module *
 0001:0004ff7c       $LN113                     10050f7c     * CIL library *:* CIL module *
 0001:0004ffb0       _sqlite3VdbeSetP4KeyInfo   10050fb0 f   * CIL library *:* CIL module *
 0001:0004ffd0       _valueNew                  10050fd0 f   * CIL library *:* CIL module *
 0001:000500b0       _dropCell                  100510b0 f   * CIL library *:* CIL module *
 0001:00050190       _zeroPage                  10051190 f   * CIL library *:* CIL module *
 0001:00050260       _btreeInitPage             10051260 f   * CIL library *:* CIL module *
 0001:000504a0       _allocateSpace             100514a0 f   * CIL library *:* CIL module *
 0001:000506a0       _pagerRollbackWal          100516a0 f   * CIL library *:* CIL module *
 0001:00050710       _winFullPathname           10051710 f   * CIL library *:* CIL module *
 0001:00050950       _winAccess                 10051950 f   * CIL library *:* CIL module *
 0001:00050ad0       _winDelete                 10051ad0 f   * CIL library *:* CIL module *
 0001:00050c30       _winGetTempname            10051c30 f   * CIL library *:* CIL module *
 0001:00050f80       _winUnmapfile              10051f80 f   * CIL library *:* CIL module *
 0001:00051030       _winUnlockReadLock         10052030 f   * CIL library *:* CIL module *
 0001:000510a0       _winFileSize               100520a0 f   * CIL library *:* CIL module *
 0001:00051110       _winSync                   10052110 f   * CIL library *:* CIL module *
 0001:00051160       _winWrite                  10052160 f   * CIL library *:* CIL module *
 0001:00051320       _winRead                   10052320 f   * CIL library *:* CIL module *
 0001:00051490       _winClose                  10052490 f   * CIL library *:* CIL module *
 0001:00051510       _winSeekFile               10052510 f   * CIL library *:* CIL module *
 0001:00051580       _sqlite3MemGetWin32        10052580 f   * CIL library *:* CIL module *
 0001:00051590       _sqlite3SafetyCheckSickOrOk 10052590 f   * CIL library *:* CIL module *
 0001:000515d0       _sqlite3SafetyCheckOk      100525d0 f   * CIL library *:* CIL module *
 0001:000518e0       _sqlite3RtreeInit          100528e0 f   * CIL library *:* CIL module *
 0001:00051960       _fts3SnippetText           10052960 f   * CIL library *:* CIL module *
 0001:00051c10       _fts3ReadEndBlockField     10052c10 f   * CIL library *:* CIL module *
 0001:00051d40       _langidFromSelect          10052d40 f   * CIL library *:* CIL module *
 0001:00052040       _spanUnaryPrefix           10053040 f   * CIL library *:* CIL module *
 0001:00052080       _spanUnaryPostfix          10053080 f   * CIL library *:* CIL module *
 0001:000520c0       _spanBinaryExpr            100530c0 f   * CIL library *:* CIL module *
 0001:00052100       _spanExpr                  10053100 f   * CIL library *:* CIL module *
 0001:00052140       _findIndexCol              10053140 f   * CIL library *:* CIL module *
 0001:000521e0       _exprAnalyzeOrTerm         100531e0 f   * CIL library *:* CIL module *
 0001:00052810       _exprCommute               10053810 f   * CIL library *:* CIL module *
 0001:00052890       _updateAccumulator         10053890 f   * CIL library *:* CIL module *
 0001:00052b00       _flattenSubquery           10053b00 f   * CIL library *:* CIL module *
 0001:000531c0       _multiSelectCollSeq        100541c0 f   * CIL library *:* CIL module *
 0001:00053210       _selectAddColumnTypeAndCollation 10054210 f   * CIL library *:* CIL module *
 0001:00053310       _keyInfoFromExprList       10054310 f   * CIL library *:* CIL module *
 0001:000533a0       _pushOntoSorter            100543a0 f   * CIL library *:* CIL module *
 0001:000536a0       _addWhereTerm              100546a0 f   * CIL library *:* CIL module *
 0001:00053720       _sqlite3OpenTable          10054720 f   * CIL library *:* CIL module *
 0001:000537f0       _fkActionTrigger           100547f0 f   * CIL library *:* CIL module *
 0001:00053d60       _fkLookupParent            10054d60 f   * CIL library *:* CIL module *
 0001:00054130       _sqlite3RegisterGlobalFunctions 10055130 f   * CIL library *:* CIL module *
 0001:00054170       _sqlite3Savepoint          10055170 f   * CIL library *:* CIL module *
 0001:00054200       _sqlite3RollbackTransaction 10055200 f   * CIL library *:* CIL module *
 0001:00054240       _sqlite3CommitTransaction  10055240 f   * CIL library *:* CIL module *
 0001:00054280       _sqlite3BeginTransaction   10055280 f   * CIL library *:* CIL module *
 0001:00054350       _sqlite3AuthRead           10055350 f   * CIL library *:* CIL module *
 0001:00054440       _reloadTableSchema         10055440 f   * CIL library *:* CIL module *
 0001:00054590       _sqlite3ExprFunction       10055590 f   * CIL library *:* CIL module *
 0001:000545f0       _sqlite3BinaryCompareCollSeq 100555f0 f   * CIL library *:* CIL module *
 0001:00054630       _sqlite3ResolveOrderGroupBy 10055630 f   * CIL library *:* CIL module *
 0001:000546e0       _lookupName                100556e0 f   * CIL library *:* CIL module *
 0001:00054d70       _sqlite3VdbeSorterCompare  10055d70 f   * CIL library *:* CIL module *
 0001:00054db0       _sqlite3VdbeSorterNext     10055db0 f   * CIL library *:* CIL module *
 0001:00054f60       _vdbeSorterMerge           10055f60 f   * CIL library *:* CIL module *
 0001:00054ff0       _vdbeSorterDoCompare       10055ff0 f   * CIL library *:* CIL module *
 0001:00055090       _vdbeUnbind                10056090 f   * CIL library *:* CIL module *
 0001:000551d0       _sqlite3VdbeFindCompare    100561d0 f   * CIL library *:* CIL module *
 0001:00055240       _valueFromExpr             10056240 f   * CIL library *:* CIL module *
 0001:000555a0       _modifyPagePointer         100565a0 f   * CIL library *:* CIL module *
 0001:00055720       _pageReinit                10056720 f   * CIL library *:* CIL module *
 0001:00055750       _pagerPlaybackSavepoint    10056750 f   * CIL library *:* CIL module *
 0001:000559a0       _winOpen                   100569a0 f   * CIL library *:* CIL module *
 0001:00055cc0       _winUnfetch                10056cc0 f   * CIL library *:* CIL module *
 0001:00055ce0       _winMapfile                10056ce0 f   * CIL library *:* CIL module *
 0001:00055e60       _winShmPurge               10056e60 f   * CIL library *:* CIL module *
 0001:00055f40       _winUnlock                 10056f40 f   * CIL library *:* CIL module *
 0001:00056010       _winLock                   10057010 f   * CIL library *:* CIL module *
 0001:000561f0       _winTruncate               100571f0 f   * CIL library *:* CIL module *
 0001:000562d0       _sqlite3MemSetDefault      100572d0 f   * CIL library *:* CIL module *
 0001:000563a0       _sqlite3MallocInit         100573a0 f   * CIL library *:* CIL module *
 0001:0005685c       $LN51                      1005785c     * CIL library *:* CIL module *
 0001:000568c0       _exprAnalyze               100578c0 f   * CIL library *:* CIL module *
 0001:000570e0       _exprAnalyzeAll            100580e0 f   * CIL library *:* CIL module *
 0001:00057110       _whereScanNext             10058110 f   * CIL library *:* CIL module *
 0001:00057300       _resetAccumulator          10058300 f   * CIL library *:* CIL module *
 0001:000573c0       _selectAddSubqueryTypeInfo 100583c0 f   * CIL library *:* CIL module *
 0001:00057440       _multiSelectOrderByKeyInfo 10058440 f   * CIL library *:* CIL module *
 0001:00057520       _sqlite3ResultSetOfSelect  10058520 f   * CIL library *:* CIL module *
 0001:000575f0       _selectInnerLoop           100585f0 f   * CIL library *:* CIL module *
 0001:00057c9c       $LN270                     10058c9c     * CIL library *:* CIL module *
 0001:00057ce0       _sqliteProcessJoin         10058ce0 f   * CIL library *:* CIL module *
 0001:00057f50       _sqlite3OpenTableAndIndices 10058f50 f   * CIL library *:* CIL module *
 0001:000580c0       _sqlite3AutoincrementEnd   100590c0 f   * CIL library *:* CIL module *
 0001:000581f0       _sqlite3AutoincrementBegin 100591f0 f   * CIL library *:* CIL module *
 0001:00058380       _sqlite3FkActions          10059380 f   * CIL library *:* CIL module *
 0001:00058400       _sqlite3ViewGetColumnNames 10059400 f   * CIL library *:* CIL module *
 0001:00058540       _codeCompare               10059540 f   * CIL library *:* CIL module *
 0001:000585d0       _resolveExprStep           100595d0 f   * CIL library *:* CIL module *
 0001:000589b4       $LN171                     100599b4     * CIL library *:* CIL module *
 0001:000589cc       $LN164                     100599cc     * CIL library *:* CIL module *
 0001:00058a60       _vdbeSorterInitMerge       10059a60 f   * CIL library *:* CIL module *
 0001:00058b00       _vdbeSorterSort            10059b00 f   * CIL library *:* CIL module *
 0001:00058d90       _bindText                  10059d90 f   * CIL library *:* CIL module *
 0001:00058e60       _sqlite3Stat4ProbeSetValue 10059e60 f   * CIL library *:* CIL module *
 0001:00058fa0       _sqlite3ValueFromExpr      10059fa0 f   * CIL library *:* CIL module *
 0001:00058fc0       _sqlite3PagerSavepoint     10059fc0 f   * CIL library *:* CIL module *
 0001:000590a0       _sqlite3PagerRollback      1005a0a0 f   * CIL library *:* CIL module *
 0001:00059170       _pagerUnlockAndRollback    1005a170 f   * CIL library *:* CIL module *
 0001:000591d0       _sqlite3PCacheSetDefault   1005a1d0 f   * CIL library *:* CIL module *
 0001:000591f0       _sqlite3PcacheInitialize   1005a1f0 f   * CIL library *:* CIL module *
 0001:00059290       _winFetch                  1005a290 f   * CIL library *:* CIL module *
 0001:00059300       _winShmUnmap               1005a300 f   * CIL library *:* CIL module *
 0001:00059380       _winOpenSharedMemory       1005a380 f   * CIL library *:* CIL module *
 0001:000595e0       _winFileControl            1005a5e0 f   * CIL library *:* CIL module *
 0001:000597e0       $LN85                      1005a7e0     * CIL library *:* CIL module *
 0001:0005980c       $LN78                      1005a80c     * CIL library *:* CIL module *
 0001:00059820       _sqlite3OsInit             1005a820 f   * CIL library *:* CIL module *
 0001:00059b40       _whereEqualScanEst         1005ab40 f   * CIL library *:* CIL module *
 0001:00059c00       _whereRangeScanEst         1005ac00 f   * CIL library *:* CIL module *
 0001:00059e40       _whereScanInit             1005ae40 f   * CIL library *:* CIL module *
 0001:00059ee0       _sqlite3ColumnDefault      1005aee0 f   * CIL library *:* CIL module *
 0001:00059f70       _sqlite3SelectAddTypeInfo  1005af70 f   * CIL library *:* CIL module *
 0001:00059fb0       _multiSelectOrderBy        1005afb0 f   * CIL library *:* CIL module *
 0001:0005a850       _generateWithRecursiveQuery 1005b850 f   * CIL library *:* CIL module *
 0001:0005aca0       _sqlite3AlterFinishAddColumn 1005bca0 f   * CIL library *:* CIL module *
 0001:0005af70       _sqlite3ExprCodeGetColumnOfTable 1005bf70 f   * CIL library *:* CIL module *
 0001:0005b040       _sqlite3ResolveExprNames   1005c040 f   * CIL library *:* CIL module *
 0001:0005b130       _resolveOrderGroupBy       1005c130 f   * CIL library *:* CIL module *
 0001:0005b2c0       _resolveOrderByTermToExprList 1005c2c0 f   * CIL library *:* CIL module *
 0001:0005b360       _vdbeSorterListToPMA       1005c360 f   * CIL library *:* CIL module *
 0001:0005b4f0       _pagerUnlockIfUnused       1005c4f0 f   * CIL library *:* CIL module *
 0001:0005b520       _winShmMap                 1005c520 f   * CIL library *:* CIL module *
 0001:0005b890       _CreateCryptBlock          1005c890 f   * CIL library *:* CIL module *
 0001:0005b970       _reverseFunc               1005c970 f   * CIL library *:* CIL module *
 0001:0005baa0       _rightFunc                 1005caa0 f   * CIL library *:* CIL module *
 0001:0005bbe0       _leftFunc                  1005cbe0 f   * CIL library *:* CIL module *
 0001:0005bd10       _strfilterFunc             1005cd10 f   * CIL library *:* CIL module *
 0001:0005beb0       _replicateFunc             1005ceb0 f   * CIL library *:* CIL module *
 0001:0005c0a0       _sqlite3StrDup             1005d0a0 f   * CIL library *:* CIL module *
 0001:0005c300       _sqlite3re_match           1005d300 f   * CIL library *:* CIL module *
 0001:0005c7a4       $LN252                     1005d7a4     * CIL library *:* CIL module *
 0001:0005c7f0       _vtshimCopyModule          1005d7f0 f   * CIL library *:* CIL module *
 0001:0005c850       _vtshimOpen                1005d850 f   * CIL library *:* CIL module *
 0001:0005c940       _vtshimConnect             1005d940 f   * CIL library *:* CIL module *
 0001:0005ca20       _vtshimCreate              1005da20 f   * CIL library *:* CIL module *
 0001:0005cb00       _geomCallback              1005db00 f   * CIL library *:* CIL module *
 0001:0005cc00       _splitNodeStartree         1005dc00 f   * CIL library *:* CIL module *
 0001:0005d120       _deserializeGeometry       1005e120 f   * CIL library *:* CIL module *
 0001:0005d220       _rtreeOpen                 1005e220 f   * CIL library *:* CIL module *
 0001:0005d290       _nodeNew                   1005e290 f   * CIL library *:* CIL module *
 0001:0005d300       _sqlite3Fts3DeferToken     1005e300 f   * CIL library *:* CIL module *
 0001:0005d360       _sqlite3Fts3DeferredTokenList 1005e360 f   * CIL library *:* CIL module *
 0001:0005d3f0       _fts3NodeAddTerm           1005e3f0 f   * CIL library *:* CIL module *
 0001:0005d6e0       _sqlite3Fts3SegReaderPending 1005e6e0 f   * CIL library *:* CIL module *
 0001:0005d910       _sqlite3Fts3SegReaderNew   1005e910 f   * CIL library *:* CIL module *
 0001:0005da10       _fts3PendingListAppendVarint 1005ea10 f   * CIL library *:* CIL module *
 0001:0005dad0       _fts3tokFilterMethod       1005ead0 f   * CIL library *:* CIL module *
 0001:0005db80       _fts3tokOpenMethod         1005eb80 f   * CIL library *:* CIL module *
 0001:0005dbd0       _fts3tokDequoteArray       1005ebd0 f   * CIL library *:* CIL module *
 0001:0005dca0       _simpleOpen                1005eca0 f   * CIL library *:* CIL module *
 0001:0005dd30       _simpleCreate              1005ed30 f   * CIL library *:* CIL module *
 0001:0005de30       _porterOpen                1005ee30 f   * CIL library *:* CIL module *
 0001:0005dec0       _porterCreate              1005eec0 f   * CIL library *:* CIL module *
 0001:0005df00       _fts3HashMalloc            1005ef00 f   * CIL library *:* CIL module *
 0001:0005df40       _fts3MallocZero            1005ef40 f   * CIL library *:* CIL module *
 0001:0005df80       _fts3auxOpenMethod         1005ef80 f   * CIL library *:* CIL module *
 0001:0005dfd0       _fts3EvalNearTest          1005efd0 f   * CIL library *:* CIL module *
 0001:0005e150       _fts3EvalDeferredPhrase    1005f150 f   * CIL library *:* CIL module *
 0001:0005e350       _fts3DoclistOrMerge        1005f350 f   * CIL library *:* CIL module *
 0001:0005e6a0       _fts3OpenMethod            1005f6a0 f   * CIL library *:* CIL module *
 0001:0005e6f0       _fts3PrefixParameter       1005f6f0 f   * CIL library *:* CIL module *
 0001:0005e7c0       _fts3QuoteId               1005f7c0 f   * CIL library *:* CIL module *
 0001:0005e840       _sqlite3ParseUri           1005f840 f   * CIL library *:* CIL module *
 0001:0005ef00       _whereInScanEst            1005ff00 f   * CIL library *:* CIL module *
 0001:0005efb0       _findTerm                  1005ffb0 f   * CIL library *:* CIL module *
 0001:0005f030       _sqlite3_get_table_cb      10060030 f   * CIL library *:* CIL module *
 0001:0005f1b0       _multiSelect               100601b0 f   * CIL library *:* CIL module *
 0001:0005fa80       _sqlite3GenerateIndexKey   10060a80 f   * CIL library *:* CIL module *
 0001:0005fba0       _sqlite3GenerateRowIndexDelete 10060ba0 f   * CIL library *:* CIL module *
 0001:0005fc80       _sqlite3RefillIndex        10060c80 f   * CIL library *:* CIL module *
 0001:0005ffc0       _resolveAttachExpr         10060fc0 f   * CIL library *:* CIL module *
 0001:0005ffe0       _analyzeOneTable           10060fe0 f   * CIL library *:* CIL module *
 0001:00060860       _sqlite3ExprCodeGetColumn  10061860 f   * CIL library *:* CIL module *
 0001:00060980       _sqlite3ResolveSelfReference 10061980 f   * CIL library *:* CIL module *
 0001:00060a50       _resolveCompoundOrderBy    10061a50 f   * CIL library *:* CIL module *
 0001:00060d10       _memjrnlWrite              10061d10 f   * CIL library *:* CIL module *
 0001:00060de0       _sqlite3VdbeSorterRewind   10061de0 f   * CIL library *:* CIL module *
 0001:000610a0       _sqlite3VdbeSorterWrite    100620a0 f   * CIL library *:* CIL module *
 0001:0006123c       $LN132                     1006223c     * CIL library *:* CIL module *
 0001:00061250       _walIndexRecover           10062250 f   * CIL library *:* CIL module *
 0001:000615e0       _sqlite3PagerAcquire       100625e0 f   * CIL library *:* CIL module *
 0001:00061910       _sqlite3BitvecBuiltinTest  10062910 f   * CIL library *:* CIL module *
 0001:00061b80       _padcFunc                  10062b80 f   * CIL library *:* CIL module *
 0001:00061de0       _padrFunc                  10062de0 f   * CIL library *:* CIL module *
 0001:00061ff0       _padlFunc                  10062ff0 f   * CIL library *:* CIL module *
 0001:000621e0       _properFunc                100631e0 f   * CIL library *:* CIL module *
 0001:000622e0       _re_sql_func               100632e0 f   * CIL library *:* CIL module *
 0001:000627a0       _fts3PendingListAppend     100637a0 f   * CIL library *:* CIL module *
 0001:00062910       _fts3SqlStmt               10063910 f   * CIL library *:* CIL module *
 0001:00062ba0       _fts3Rehash                10063ba0 f   * CIL library *:* CIL module *
 0001:00062c40       _getNextToken              10063c40 f   * CIL library *:* CIL module *
 0001:00062de0       _fts3EvalTestExpr          10063de0 f   * CIL library *:* CIL module *
 0001:00062ff0       $LN117                     10063ff0     * CIL library *:* CIL module *
 0001:00063000       _fts3TermSelectMerge       10064000 f   * CIL library *:* CIL module *
 0001:00063130       _fts3TermSelectFinishMerge 10064130 f   * CIL library *:* CIL module *
 0001:000631d0       _fts3WriteExprList         100641d0 f   * CIL library *:* CIL module *
 0001:00063270       _fts3ReadExprList          10064270 f   * CIL library *:* CIL module *
 0001:000635bc       $LN222                     100645bc     * CIL library *:* CIL module *
 0001:00063610       _whereShortCut             10064610 f   * CIL library *:* CIL module *
 0001:000638b0       _wherePathSatisfiesOrderBy 100648b0 f   * CIL library *:* CIL module *
 0001:00064170       _whereLoopAddBtreeIndex    10065170 f   * CIL library *:* CIL module *
 0001:00064830       _codeOneLoopStart          10065830 f   * CIL library *:* CIL module *
 0001:00065c80       _constructAutomaticIndex   10066c80 f   * CIL library *:* CIL module *
 0001:00066130       _isDistinctRedundant       10067130 f   * CIL library *:* CIL module *
 0001:000662c0       _resolveSelectStep         100672c0 f   * CIL library *:* CIL module *
 0001:00066620       _btreeGetPage              10067620 f   * CIL library *:* CIL module *
 0001:00066670       _ptrmapGet                 10067670 f   * CIL library *:* CIL module *
 0001:00066720       _walIndexReadHdr           10067720 f   * CIL library *:* CIL module *
 0001:00066860       _sqlite3PagerWrite         10067860 f   * CIL library *:* CIL module *
 0001:00066dc0       _sqlite3Fts3CacheDeferredDoclists 10067dc0 f   * CIL library *:* CIL module *
 0001:00067050       _sqlite3Fts3AllSegdirs     10068050 f   * CIL library *:* CIL module *
 0001:00067180       _sqlite3Fts3HashInsert     10068180 f   * CIL library *:* CIL module *
 0001:000672c0       _getNextNode               100682c0 f   * CIL library *:* CIL module *
 0001:00067520       _wherePathSolver           10068520 f   * CIL library *:* CIL module *
 0001:00067aa0       _whereLoopAddBtree         10068aa0 f   * CIL library *:* CIL module *
 0001:00067ee0       _sqlite3ResolveSelectNames 10068ee0 f   * CIL library *:* CIL module *
 0001:00067f20       _checkPtrmap               10068f20 f   * CIL library *:* CIL module *
 0001:00067fb0       _sqlite3BtreeUpdateMeta    10068fb0 f   * CIL library *:* CIL module *
 0001:00068030       _allocateBtreePage         10069030 f   * CIL library *:* CIL module *
 0001:00068730       _copyPayload               10069730 f   * CIL library *:* CIL module *
 0001:00068760       _getOverflowPage           10069760 f   * CIL library *:* CIL module *
 0001:00068850       _newDatabase               10069850 f   * CIL library *:* CIL module *
 0001:00068930       _getAndInitPage            10069930 f   * CIL library *:* CIL module *
 0001:000689a0       _ptrmapPut                 100699a0 f   * CIL library *:* CIL module *
 0001:00068aa0       _sqlite3WalCheckpoint      10069aa0 f   * CIL library *:* CIL module *
 0001:00068c60       _walTryBeginRead           10069c60 f   * CIL library *:* CIL module *
 0001:00068f60       _sqlite3WalClose           10069f60 f   * CIL library *:* CIL module *
 0001:00069080       _sqlite3PagerCloseWal      1006a080 f   * CIL library *:* CIL module *
 0001:00069140       _sqlite3PagerCheckpoint    1006a140 f   * CIL library *:* CIL module *
 0001:00069190       _sqlite3PagerMovepage      1006a190 f   * CIL library *:* CIL module *
 0001:000692d0       _pager_incr_changecounter  1006a2d0 f   * CIL library *:* CIL module *
 0001:00069330       _sqlite3PagerClose         1006a330 f   * CIL library *:* CIL module *
 0001:00069470       _fts3PendingTermsAddOne    1006a470 f   * CIL library *:* CIL module *
 0001:00069530       _scalarFunc                1006a530 f   * CIL library *:* CIL module *
 0001:00069670       _whereLoopAddOr            1006a670 f   * CIL library *:* CIL module *
 0001:00069aa0       _sqlite3BtreeCheckpoint    1006aaa0 f   * CIL library *:* CIL module *
 0001:00069b00       _checkList                 1006ab00 f   * CIL library *:* CIL module *
 0001:00069cb0       _fillInCell                1006acb0 f   * CIL library *:* CIL module *
 0001:00069f70       _freePage2                 1006af70 f   * CIL library *:* CIL module *
 0001:0006a210       _moveToChild               1006b210 f   * CIL library *:* CIL module *
 0001:0006a2c0       _accessPayload             1006b2c0 f   * CIL library *:* CIL module *
 0001:0006a610       _sqlite3BtreeSavepoint     1006b610 f   * CIL library *:* CIL module *
 0001:0006a680       _sqlite3BtreeNewDb         1006b680 f   * CIL library *:* CIL module *
 0001:0006a6b0       _ptrmapPutOvflPtr          1006b6b0 f   * CIL library *:* CIL module *
 0001:0006a700       _walRestartLog             1006b700 f   * CIL library *:* CIL module *
 0001:0006a820       _sqlite3WalBeginReadTransaction 1006b820 f   * CIL library *:* CIL module *
 0001:0006a850       _pagerBeginReadTransaction 1006b850 f   * CIL library *:* CIL module *
 0001:0006a900       _fts3PendingTermsAdd       1006b900 f   * CIL library *:* CIL module *
 0001:0006aa60       _sqlite3Fts3InitHashTable  1006ba60 f   * CIL library *:* CIL module *
 0001:0006aab0       _sqlite3Checkpoint         1006bab0 f   * CIL library *:* CIL module *
 0001:0006ac10       _whereLoopAddAll           1006bc10 f   * CIL library *:* CIL module *
 0001:0006ad70       _sqlite3VdbeCloseStatement 1006bd70 f   * CIL library *:* CIL module *
 0001:0006aea0       _checkTreePage             1006bea0 f   * CIL library *:* CIL module *
 0001:0006b5b0       _insertCell                1006c5b0 f   * CIL library *:* CIL module *
 0001:0006b750       _clearCell                 1006c750 f   * CIL library *:* CIL module *
 0001:0006b8d0       _freePage                  1006c8d0 f   * CIL library *:* CIL module *
 0001:0006b8f0       _moveToRightmost           1006c8f0 f   * CIL library *:* CIL module *
 0001:0006b970       _moveToLeftmost            1006c970 f   * CIL library *:* CIL module *
 0001:0006b9d0       _moveToRoot                1006c9d0 f   * CIL library *:* CIL module *
 0001:0006bb20       _sqlite3BtreeKey           1006cb20 f   * CIL library *:* CIL module *
 0001:0006bb40       _setChildPtrmaps           1006cb40 f   * CIL library *:* CIL module *
 0001:0006bc30       _saveCursorPosition        1006cc30 f   * CIL library *:* CIL module *
 0001:0006bcd0       _sqlite3WalFrames          1006ccd0 f   * CIL library *:* CIL module *
 0001:0006c0b0       _sqlite3PagerSharedLock    1006d0b0 f   * CIL library *:* CIL module *
 0001:0006c400       _pagerWalFrames            1006d400 f   * CIL library *:* CIL module *
 0001:0006c4b0       _fts3InsertTerms           1006d4b0 f   * CIL library *:* CIL module *
 0001:0006c560       _sqlite3WalDefaultHook     1006d560 f   * CIL library *:* CIL module *
 0001:0006c5a0       _sqlite3BtreeIntegrityCheck 1006d5a0 f   * CIL library *:* CIL module *
 0001:0006c910       _sqlite3BtreeCount         1006d910 f   * CIL library *:* CIL module *
 0001:0006ca30       _clearDatabasePage         1006da30 f   * CIL library *:* CIL module *
 0001:0006cb90       _copyNodeContent           1006db90 f   * CIL library *:* CIL module *
 0001:0006cc50       _balance_quick             1006dc50 f   * CIL library *:* CIL module *
 0001:0006cdc0       _sqlite3BtreeMovetoUnpacked 1006ddc0 f   * CIL library *:* CIL module *
 0001:0006d1c0       _sqlite3BtreeLast          1006e1c0 f   * CIL library *:* CIL module *
 0001:0006d220       _sqlite3BtreeFirst         1006e220 f   * CIL library *:* CIL module *
 0001:0006d250       _relocatePage              1006e250 f   * CIL library *:* CIL module *
 0001:0006d380       _lockBtree                 1006e380 f   * CIL library *:* CIL module *
 0001:0006d600       _btreeMoveto               1006e600 f   * CIL library *:* CIL module *
 0001:0006d710       _saveAllCursors            1006e710 f   * CIL library *:* CIL module *
 0001:0006d760       _sqlite3PagerSetJournalMode 1006e760 f   * CIL library *:* CIL module *
 0001:0006d850       _sqlite3PagerCommitPhaseOne 1006e850 f   * CIL library *:* CIL module *
 0001:0006da10       _pagerStress               1006ea10 f   * CIL library *:* CIL module *
 0001:0006db60       _sqlite3BtreeClearTable    1006eb60 f   * CIL library *:* CIL module *
 0001:0006dbd0       _btreeCreateTable          1006ebd0 f   * CIL library *:* CIL module *
 0001:0006de60       _balance_deeper            1006ee60 f   * CIL library *:* CIL module *
 0001:0006df90       _balance_nonroot           1006ef90 f   * CIL library *:* CIL module *
 0001:0006eaa0       _sqlite3BtreeRollback      1006faa0 f   * CIL library *:* CIL module *
 0001:0006eb80       _incrVacuumStep            1006fb80 f   * CIL library *:* CIL module *
 0001:0006ed50       _sqlite3BtreeBeginTrans    1006fd50 f   * CIL library *:* CIL module *
 0001:0006ef60       _sqlite3BtreeClose         1006ff60 f   * CIL library *:* CIL module *
 0001:0006f010       _btreeRestoreCursorPosition 10070010 f   * CIL library *:* CIL module *
 0001:0006f080       _sqlite3PagerOpen          10070080 f   * CIL library *:* CIL module *
 0001:0006f570       _sqlite3RollbackAll        10070570 f   * CIL library *:* CIL module *
 0001:0006f670       _sqlite3LeaveMutexAndCloseZombie 10070670 f   * CIL library *:* CIL module *
 0001:0006f8a0       _sqlite3Close              100708a0 f   * CIL library *:* CIL module *
 0001:0006f970       _invalidateTempStorage     10070970 f   * CIL library *:* CIL module *
 0001:0006f9c0       _detachFunc                100709c0 f   * CIL library *:* CIL module *
 0001:0006fb20       _sqlite3VdbeFreeCursor     10070b20 f   * CIL library *:* CIL module *
 0001:0006fb80       _sqlite3VdbeFrameDelete    10070b80 f   * CIL library *:* CIL module *
 0001:0006fcb0       _sqlite3BtreeSetVersion    10070cb0 f   * CIL library *:* CIL module *
 0001:0006fd30       _sqlite3BtreePutData       10070d30 f   * CIL library *:* CIL module *
 0001:0006fd90       _btreeDropTable            10070d90 f   * CIL library *:* CIL module *
 0001:0006ffb0       _sqlite3BtreeClearTableOfCursor 10070fb0 f   * CIL library *:* CIL module *
 0001:0006ffd0       _sqlite3BtreeCreateTable   10070fd0 f   * CIL library *:* CIL module *
 0001:00070000       _balance                   10071000 f   * CIL library *:* CIL module *
 0001:00070160       _sqlite3BtreePrevious      10071160 f   * CIL library *:* CIL module *
 0001:000702d0       _sqlite3BtreeNext          100712d0 f   * CIL library *:* CIL module *
 0001:00070410       _sqlite3BtreeData          10071410 f   * CIL library *:* CIL module *
 0001:00070450       _autoVacuumCommit          10071450 f   * CIL library *:* CIL module *
 0001:000705d0       _sqlite3BtreeIncrVacuum    100715d0 f   * CIL library *:* CIL module *
 0001:000706e0       _sqlite3BtreeOpen          100716e0 f   * CIL library *:* CIL module *
 0001:00070d50       _sqlite3BtreeCursorHasMoved 10071d50 f   * CIL library *:* CIL module *
 0001:00070df0       _changeTempStorage         10071df0 f   * CIL library *:* CIL module *
 0001:00070e30       _sqlite3OpenTempDatabase   10071e30 f   * CIL library *:* CIL module *
 0001:00070ed0       _allocateCursor            10071ed0 f   * CIL library *:* CIL module *
 0001:00070f90       _sqlite3VdbeCursorMoveto   10071f90 f   * CIL library *:* CIL module *
 0001:00071040       _closeAllCursors           10072040 f   * CIL library *:* CIL module *
 0001:00071100       _resolveP2Values           10072100 f   * CIL library *:* CIL module *
 0001:00071210       $LN64                      10072210     * CIL library *:* CIL module *
 0001:00071230       $LN61                      10072230     * CIL library *:* CIL module *
 0001:00071240       _sqlite3VdbeMemFromBtree   10072240 f   * CIL library *:* CIL module *
 0001:00071330       _findBtree                 10072330 f   * CIL library *:* CIL module *
 0001:00071420       _sqlite3BtreeDropTable     10072420 f   * CIL library *:* CIL module *
 0001:00071450       _sqlite3BtreeDelete        10072450 f   * CIL library *:* CIL module *
 0001:000716a0       _sqlite3BtreeInsert        100726a0 f   * CIL library *:* CIL module *
 0001:000718d0       _sqlite3BtreeCommitPhaseOne 100728d0 f   * CIL library *:* CIL module *
 0001:00071a30       _sqlite3CodeVerifySchema   10072a30 f   * CIL library *:* CIL module *
 0001:00071a90       _sqlite3VdbeIdxKeyCompare  10072a90 f   * CIL library *:* CIL module *
 0001:00071b50       _sqlite3VdbeIdxRowid       10072b50 f   * CIL library *:* CIL module *
 0001:00071ca0       _vdbeCommit                10072ca0 f   * CIL library *:* CIL module *
 0001:00072240       _sqlite3VdbeMakeReady      10073240 f   * CIL library *:* CIL module *
 0001:00072520       _sqlite3VdbeTakeOpArray    10073520 f   * CIL library *:* CIL module *
 0001:00072b70       _sqlite3BtreeCommit        10073b70 f   * CIL library *:* CIL module *
 0001:00072da0       _sqlite3WhereBegin         10073da0 f   * CIL library *:* CIL module *
 0001:000735e0       _schemaIsValid             100745e0 f   * CIL library *:* CIL module *
 0001:000736a0       _fkScanChildren            100746a0 f   * CIL library *:* CIL module *
 0001:000739b0       _sqlite3BeginWriteOperation 100749b0 f   * CIL library *:* CIL module *
 0001:000739f0       _sqlite3CodeVerifyNamedSchema 100749f0 f   * CIL library *:* CIL module *
 0001:00073a50       _analyzeTable              10074a50 f   * CIL library *:* CIL module *
 0001:00073b10       _analyzeDatabase           10074b10 f   * CIL library *:* CIL module *
 0001:00073bb0       _sqlite3VdbeHalt           10074bb0 f   * CIL library *:* CIL module *
 0001:00073e80       _sqlite3BtreeCopyFile      10074e80 f   * CIL library *:* CIL module *
 0001:00073f80       _sqlite3DropTriggerPtr     10074f80 f   * CIL library *:* CIL module *
 0001:000740f0       _sqlite3FinishTrigger      100750f0 f   * CIL library *:* CIL module *
 0001:00074380       _reindexTable              10075380 f   * CIL library *:* CIL module *
 0001:00074410       _sqlite3CodeDropTable      10075410 f   * CIL library *:* CIL module *
 0001:00074550       _sqlite3VdbeReset          10075550 f   * CIL library *:* CIL module *
 0001:00074600       _reindexDatabases          10075600 f   * CIL library *:* CIL module *
 0001:000746e0       _sqlite3VdbeFinalize       100756e0 f   * CIL library *:* CIL module *
 0001:00074730       _vacuumFinalize            10075730 f   * CIL library *:* CIL module *
 0001:00074b50       _blobReadWrite             10075b50 f   * CIL library *:* CIL module *
 0001:00074d20       _rtreeRename               10075d20 f   * CIL library *:* CIL module *
 0001:00074d80       _rtreeRelease              10075d80 f   * CIL library *:* CIL module *
 0001:00074e00       _fts3auxDisconnectMethod   10075e00 f   * CIL library *:* CIL module *
 0001:00074e50       _fts3ContentColumns        10075e50 f   * CIL library *:* CIL module *
 0001:00074fd0       _fts3DbExec                10075fd0 f   * CIL library *:* CIL module *
 0001:00075020       _fts3DisconnectMethod      10076020 f   * CIL library *:* CIL module *
 0001:000750a0       _execSql                   100760a0 f   * CIL library *:* CIL module *
 0001:000752f0       _sqlite3InitCallback       100762f0 f   * CIL library *:* CIL module *
 0001:00075470       _loadStatTbl               10076470 f   * CIL library *:* CIL module *
 0001:00075900       _rtreeDestroy              10076900 f   * CIL library *:* CIL module *
 0001:00075960       _rtreeDisconnect           10076960 f   * CIL library *:* CIL module *
 0001:00075970       _sqlite3Fts3SegReaderFree  10076970 f   * CIL library *:* CIL module *
 0001:000759b0       _fts3SegReaderSetEof       100769b0 f   * CIL library *:* CIL module *
 0001:000759e0       _fts3SegReaderIncrRead     100769e0 f   * CIL library *:* CIL module *
 0001:00075a50       _sqlite3Fts3SegmentsClose  10076a50 f   * CIL library *:* CIL module *
 0001:00075a70       _fts3SegReaderCursorAppend 10076a70 f   * CIL library *:* CIL module *
 0001:00075ae0       _sqlite3Fts3CreateStatTable 10076ae0 f   * CIL library *:* CIL module *
 0001:00075b10       _fts3DestroyMethod         10076b10 f   * CIL library *:* CIL module *
 0001:00075bb0       _execExecSql               10076bb0 f   * CIL library *:* CIL module *
 0001:00075c60       _loadStat4                 10076c60 f   * CIL library *:* CIL module *
 0001:00076080       _sqlite3Fts3SegReaderFinish 10077080 f   * CIL library *:* CIL module *
 0001:000760d0       _fts3SegReaderRequire      100770d0 f   * CIL library *:* CIL module *
 0001:00076110       _fts3auxCloseMethod        10077110 f   * CIL library *:* CIL module *
 0001:00076170       _fts3SegReaderCursorFree   10077170 f   * CIL library *:* CIL module *
 0001:00076190       _fts3CreateTables          10077190 f   * CIL library *:* CIL module *
 0001:000762d0       _sqlite3RunVacuum          100772d0 f   * CIL library *:* CIL module *
 0001:000766a0       _sqlite3AnalysisLoad       100776a0 f   * CIL library *:* CIL module *
 0001:00076790       _sqlite3VdbeExec           10077790 f   * CIL library *:* CIL module *
 0001:0007c3c0       $LN2277                    1007d3c0     * CIL library *:* CIL module *
 0001:0007c62c       $LN2278                    1007d62c     * CIL library *:* CIL module *
 0001:0007c63c       $LN2279                    1007d63c     * CIL library *:* CIL module *
 0001:0007c64c       $LN2280                    1007d64c     * CIL library *:* CIL module *
 0001:0007c660       _sqlite3Step               1007d660 f   * CIL library *:* CIL module *
 0001:0007c800       _fts3SegReaderNextDocid    1007d800 f   * CIL library *:* CIL module *
 0001:0007c970       _fts3SegReaderFirstDocid   1007d970 f   * CIL library *:* CIL module *
 0001:0007ca20       _sqlite3Fts3EvalPhraseCleanup 1007da20 f   * CIL library *:* CIL module *
 0001:0007cac0       _sqlite3InitOne            1007dac0 f   * CIL library *:* CIL module *
 0001:0007ce50       _sqlite3Fts3MsrIncrNext    1007de50 f   * CIL library *:* CIL module *
 0001:0007cfb0       _fts3FreeExprNode          1007dfb0 f   * CIL library *:* CIL module *
 0001:0007cfe0       _incrPhraseTokenNext       1007dfe0 f   * CIL library *:* CIL module *
 0001:0007d070       _sqlite3Init               1007e070 f   * CIL library *:* CIL module *
 0001:0007d140       _attachFunc                1007e140 f   * CIL library *:* CIL module *
 0001:0007d558       $LN219                     1007e558     * CIL library *:* CIL module *
 0001:0007d570       _sqlite3Fts3ExprFree       1007e570 f   * CIL library *:* CIL module *
 0001:0007d600       _fts3ExprBalance           1007e600 f   * CIL library *:* CIL module *
 0001:0007d8b0       _fts3ExprParse             1007e8b0 f   * CIL library *:* CIL module *
 0001:0007db20       _fts3EvalIncrPhraseNext    1007eb20 f   * CIL library *:* CIL module *
 0001:0007dee0       _fts3CloseMethod           1007eee0 f   * CIL library *:* CIL module *
 0001:0007e140       _sqlite3ReadSchema         1007f140 f   * CIL library *:* CIL module *
 0001:0007e170       _sqlite3Reindex            1007f170 f   * CIL library *:* CIL module *
 0001:0007e310       _sqlite3DropIndex          1007f310 f   * CIL library *:* CIL module *
 0001:0007e510       _sqlite3StartTable         1007f510 f   * CIL library *:* CIL module *
 0001:0007e9c0       _sqlite3LocateTable        1007f9c0 f   * CIL library *:* CIL module *
 0001:0007ea50       _sqlite3Analyze            1007fa50 f   * CIL library *:* CIL module *
 0001:0007ec30       _fts3ExprParseUnbalanced   1007fc30 f   * CIL library *:* CIL module *
 0001:0007ecc0       _fts3EvalPhraseNext        1007fcc0 f   * CIL library *:* CIL module *
 0001:0007ed40       _sqlite3VtabBeginParse     1007fd40 f   * CIL library *:* CIL module *
 0001:0007ee50       _sqlite3DropTrigger        1007fe50 f   * CIL library *:* CIL module *
 0001:0007ef70       _sqlite3Pragma             1007ff70 f   * CIL library *:* CIL module *
 0001:00081ce4       $LN1761                    10082ce4     * CIL library *:* CIL module *
 0001:00081d80       $LN1762                    10082d80     * CIL library *:* CIL module *
 0001:00081d90       $LN1763                    10082d90     * CIL library *:* CIL module *
 0001:00081da0       $LN1764                    10082da0     * CIL library *:* CIL module *
 0001:00081db0       $LN1712                    10082db0     * CIL library *:* CIL module *
 0001:00081df0       _sqlite3FkCheck            10082df0 f   * CIL library *:* CIL module *
 0001:00082220       _sqlite3LocateTableItem    10083220 f   * CIL library *:* CIL module *
 0001:00082290       _sqlite3AlterBeginAddColumn 10083290 f   * CIL library *:* CIL module *
 0001:000824f0       _sqlite3AlterRenameTable   100834f0 f   * CIL library *:* CIL module *
 0001:000828a0       _sqlite3Fts3ExprParse      100838a0 f   * CIL library *:* CIL module *
 0001:000829b0       _fts3EvalNextRow           100839b0 f   * CIL library *:* CIL module *
 0001:00082d10       $LN154                     10083d10     * CIL library *:* CIL module *
 0001:00082d20       _selectExpander            10083d20 f   * CIL library *:* CIL module *
 0001:00083470       _xferOptimization          10084470 f   * CIL library *:* CIL module *
 0001:00083bc0       _sqlite3SrcListLookup      10084bc0 f   * CIL library *:* CIL module *
 0001:00083c00       _sqlite3CreateIndex        10084c00 f   * CIL library *:* CIL module *
 0001:000845f0       _convertToWithoutRowidTable 100855f0 f   * CIL library *:* CIL module *
 0001:000848e0       _sqlite3AddPrimaryKey      100858e0 f   * CIL library *:* CIL module *
 0001:00084b10       _sqlite3BeginTrigger       10085b10 f   * CIL library *:* CIL module *
 0001:00084f40       _sqlite3SelectExpand       10085f40 f   * CIL library *:* CIL module *
 0001:00084fa0       _sqlite3SelectPrep         10085fa0 f   * CIL library *:* CIL module *
 0001:00085060       _sqlite3Select             10086060 f   * CIL library *:* CIL module *
 0001:00086530       _sqlite3MaterializeView    10087530 f   * CIL library *:* CIL module *
 0001:00086630       _sqlite3EndTable           10087630 f   * CIL library *:* CIL module *
 0001:000869a0       _sqlite3CodeSubselect      100879a0 f   * CIL library *:* CIL module *
 0001:00086db0       _sqlite3FindInIndex        10087db0 f   * CIL library *:* CIL module *
 0001:00087160       _updateVirtualTable        10088160 f   * CIL library *:* CIL module *
 0001:000874e0       _sqlite3CreateView         100884e0 f   * CIL library *:* CIL module *
 0001:000876b0       _sqlite3ExprCodeIN         100886b0 f   * CIL library *:* CIL module *
 0001:00087920       _sqlite3ExprIfTrue         10088920 f   * CIL library *:* CIL module *
 0001:00087b7c       $LN97                      10088b7c     * CIL library *:* CIL module *
 0001:00087ba0       $LN91                      10088ba0     * CIL library *:* CIL module *
 0001:00087c30       _sqlite3ExprIfFalse        10088c30 f   * CIL library *:* CIL module *
 0001:00087eec       $LN98                      10088eec     * CIL library *:* CIL module *
 0001:00087f10       $LN93                      10088f10     * CIL library *:* CIL module *
 0001:00087fa0       _sqlite3ExprCodeTarget     10088fa0 f   * CIL library *:* CIL module *
 0001:00088c3c       $LN535                     10089c3c     * CIL library *:* CIL module *
 0001:00088ca0       $LN522                     10089ca0     * CIL library *:* CIL module *
 0001:00088d30       _sqlite3ExprCode           10089d30 f   * CIL library *:* CIL module *
 0001:00088d90       _sqlite3GenerateConstraintChecks 10089d90 f   * CIL library *:* CIL module *
 0001:000896c0       $LN433                     1008a6c0     * CIL library *:* CIL module *
 0001:000896d0       $LN434                     1008a6d0     * CIL library *:* CIL module *
 0001:000896f0       _sqlite3FinishCoding       1008a6f0 f   * CIL library *:* CIL module *
 0001:000899a0       _codeAttach                1008a9a0 f   * CIL library *:* CIL module *
 0001:00089b40       _sqlite3ExprCodeAndCache   1008ab40 f   * CIL library *:* CIL module *
 0001:00089b90       _sqlite3ExprCodeFactorable 1008ab90 f   * CIL library *:* CIL module *
 0001:00089c10       _sqlite3Update             1008ac10 f   * CIL library *:* CIL module *
 0001:0008ab50       _sqlite3Insert             1008bb50 f   * CIL library *:* CIL module *
 0001:0008bc10       _sqlite3Attach             1008cc10 f   * CIL library *:* CIL module *
 0001:0008bc30       _sqlite3Detach             1008cc30 f   * CIL library *:* CIL module *
 0001:0008bc50       _codeTriggerProgram        1008cc50 f   * CIL library *:* CIL module *
 0001:0008bdf0       _codeRowTrigger            1008cdf0 f   * CIL library *:* CIL module *
 0001:0008c0b0       _getRowTrigger             1008d0b0 f   * CIL library *:* CIL module *
 0001:0008c100       _sqlite3CodeRowTriggerDirect 1008d100 f   * CIL library *:* CIL module *
 0001:0008c1a0       _sqlite3CodeRowTrigger     1008d1a0 f   * CIL library *:* CIL module *
 0001:0008c210       _sqlite3GenerateRowDelete  1008d210 f   * CIL library *:* CIL module *
 0001:0008c490       _sqlite3DeleteFrom         1008d490 f   * CIL library *:* CIL module *
 0001:0008ce30       _sqlite3FkDropTable        1008de30 f   * CIL library *:* CIL module *
 0001:0008cf50       _sqlite3DropTable          1008df50 f   * CIL library *:* CIL module *
 0001:0008d1c0       _yy_reduce                 1008e1c0 f   * CIL library *:* CIL module *
 0001:0008edac       $LN1653                    1008fdac     * CIL library *:* CIL module *
 0001:0008f08c       $LN1630                    1009008c     * CIL library *:* CIL module *
 0001:0008f1d0       _sqlite3Parser             100901d0 f   * CIL library *:* CIL module *
 0001:0008f2d0       _sqlite3RunParser          100902d0 f   * CIL library *:* CIL module *
 0001:0008f840       _sqlite3Prepare            10090840 f   * CIL library *:* CIL module *
 0001:0008fb40       _fts3tokConnectMethod      10090b40 f   * CIL library *:* CIL module *
 0001:0008fc80       _fts3auxConnectMethod      10090c80 f   * CIL library *:* CIL module *
 0001:0008fdf0       _fts3DeclareVtab           10090df0 f   * CIL library *:* CIL module *
 0001:0008fec0       _sqlite3LockAndPrepare     10090ec0 f   * CIL library *:* CIL module *
 0001:0008ff90       _sqlite3Fts3InitTok        10090f90 f   * CIL library *:* CIL module *
 0001:0008ffb0       _sqlite3Prepare16          10090fb0 f   * CIL library *:* CIL module *
 0001:000900c0       _sqlite3Reprepare          100910c0 f   * CIL library *:* CIL module *
 0001:00090280       _getIntFromStmt            10091280 f   * CIL library *:* CIL module *
 0001:00090300       _rtreeQueryStat1           10091300 f   * CIL library *:* CIL module *
 0001:00090450       _newRowid                  10091450 f   * CIL library *:* CIL module *
 0001:000904d0       _parentWrite               100914d0 f   * CIL library *:* CIL module *
 0001:00090520       _rowidWrite                10091520 f   * CIL library *:* CIL module *
 0001:00090570       _nodeWrite                 10091570 f   * CIL library *:* CIL module *
 0001:00090640       _nodeAcquire               10091640 f   * CIL library *:* CIL module *
 0001:00090880       _fts3DoAutoincrmerge       10091880 f   * CIL library *:* CIL module *
 0001:00090950       _fts3IncrmergeHintLoad     10091950 f   * CIL library *:* CIL module *
 0001:00090a40       _fts3IncrmergeHintStore    10091a40 f   * CIL library *:* CIL module *
 0001:00090ab0       _fts3RepackSegdirLevel     10091ab0 f   * CIL library *:* CIL module *
 0001:00090c60       _fts3RemoveSegdirEntry     10091c60 f   * CIL library *:* CIL module *
 0001:00090cd0       _fts3IncrmergeOutputIdx    10091cd0 f   * CIL library *:* CIL module *
 0001:00090d50       _fts3IsAppendable          10091d50 f   * CIL library *:* CIL module *
 0001:00090db0       _fts3IncrmergeCsr          10091db0 f   * CIL library *:* CIL module *
 0001:00090f90       _fts3UpdateDocTotals       10091f90 f   * CIL library *:* CIL module *
 0001:00091200       _fts3InsertDocsize         10092200 f   * CIL library *:* CIL module *
 0001:00091320       _fts3PromoteSegments       10092320 f   * CIL library *:* CIL module *
 0001:000915b0       _fts3DeleteSegment         100925b0 f   * CIL library *:* CIL module *
 0001:00091620       _fts3SegmentIsMaxLevel     10092620 f   * CIL library *:* CIL module *
 0001:000916e0       _fts3SegmentMaxLevel       100926e0 f   * CIL library *:* CIL module *
 0001:000917e0       _fts3IsEmpty               100927e0 f   * CIL library *:* CIL module *
 0001:00091860       _fts3WriteSegdir           10092860 f   * CIL library *:* CIL module *
 0001:00091960       _sqlite3Fts3MaxLevel       10092960 f   * CIL library *:* CIL module *
 0001:000919d0       _fts3WriteSegment          100929d0 f   * CIL library *:* CIL module *
 0001:00091a30       _fts3AllocateSegdirIdx     10092a30 f   * CIL library *:* CIL module *
 0001:00091b00       _fts3InsertData            10092b00 f   * CIL library *:* CIL module *
 0001:00091c40       _fts3Writelock             10092c40 f   * CIL library *:* CIL module *
 0001:00091cb0       _fts3SqlExec               10092cb0 f   * CIL library *:* CIL module *
 0001:00091d00       _sqlite3Fts3SelectDoctotal 10092d00 f   * CIL library *:* CIL module *
 0001:00091dc0       _fts3SelectDocsize         10092dc0 f   * CIL library *:* CIL module *
 0001:00091e70       _fts3EvalAverageDocsize    10092e70 f   * CIL library *:* CIL module *
 0001:00091fa0       _fts3SetHasStat            10092fa0 f   * CIL library *:* CIL module *
 0001:00092050       _fts3CursorSeek            10093050 f   * CIL library *:* CIL module *
 0001:000920e0       _fts3DatabasePageSize      100930e0 f   * CIL library *:* CIL module *
 0001:000921e0       _blobSeekToRow             100931e0 f   * CIL library *:* CIL module *
 0001:00092380       _getNodeSize               10093380 f   * CIL library *:* CIL module *
 0001:00092440       _rtreeSqlInit              10093440 f   * CIL library *:* CIL module *
 0001:00092550       _fixLeafParent             10093550 f   * CIL library *:* CIL module *
 0001:00092650       _findLeafNode              10093650 f   * CIL library *:* CIL module *
 0001:00092700       _rtreeNodeOfFirstSearchPoint 10093700 f   * CIL library *:* CIL module *
 0001:00092760       _nodeRelease               10093760 f   * CIL library *:* CIL module *
 0001:000927d0       _fts3MatchinfoSelectDoctotal 100937d0 f   * CIL library *:* CIL module *
 0001:00092850       _fts3IncrmergeWriter       10093850 f   * CIL library *:* CIL module *
 0001:00092a30       _fts3IncrmergeRelease      10093a30 f   * CIL library *:* CIL module *
 0001:00092ba0       _fts3IncrmergePush         10093ba0 f   * CIL library *:* CIL module *
 0001:00092dd0       _fts3DeleteSegdir          10093dd0 f   * CIL library *:* CIL module *
 0001:00092f10       _fts3SegWriterAdd          10093f10 f   * CIL library *:* CIL module *
 0001:000932b0       _fts3NodeWrite             100942b0 f   * CIL library *:* CIL module *
 0001:000933c0       _fts3DeleteAll             100943c0 f   * CIL library *:* CIL module *
 0001:000934f0       _sqlite3Fts3SelectDocsize  100944f0 f   * CIL library *:* CIL module *
 0001:00093510       _fts3EvalTestDeferredAndNear 10094510 f   * CIL library *:* CIL module *
 0001:000935a0       _fts3BeginMethod           100945a0 f   * CIL library *:* CIL module *
 0001:000935c0       _fts3ColumnMethod          100945c0 f   * CIL library *:* CIL module *
 0001:00093710       _fts3InitVtab              10094710 f   * CIL library *:* CIL module *
 0001:0009462c       $LN578                     1009562c     * CIL library *:* CIL module *
 0001:00094c40       _rtreeInit                 10095c40 f   * CIL library *:* CIL module *
 0001:00094ec0       _deleteCell                10095ec0 f   * CIL library *:* CIL module *
 0001:00094f50       _removeNode                10095f50 f   * CIL library *:* CIL module *
 0001:00095050       _updateMapping             10096050 f   * CIL library *:* CIL module *
 0001:000950f0       _ChooseLeaf                100960f0 f   * CIL library *:* CIL module *
 0001:00095310       _rtreeColumn               10096310 f   * CIL library *:* CIL module *
 0001:00095410       _rtreeRowid                10096410 f   * CIL library *:* CIL module *
 0001:00095480       _rtreeSearchPointSwap      10096480 f   * CIL library *:* CIL module *
 0001:00095520       _rtreeClose                10096520 f   * CIL library *:* CIL module *
 0001:00095580       _rtreeConnect              10096580 f   * CIL library *:* CIL module *
 0001:000955b0       _rtreeCreate               100965b0 f   * CIL library *:* CIL module *
 0001:000955e0       _fts3IncrmergeAppend       100965e0 f   * CIL library *:* CIL module *
 0001:000957c0       _fts3SegWriterFlush        100967c0 f   * CIL library *:* CIL module *
 0001:000958a0       _sqlite3Fts3ReadBlock      100968a0 f   * CIL library *:* CIL module *
 0001:00095a00       _fts3EvalNext              10096a00 f   * CIL library *:* CIL module *
 0001:00095ac0       _fts3NextMethod            10096ac0 f   * CIL library *:* CIL module *
 0001:00095b40       _fts3SelectLeaf            10096b40 f   * CIL library *:* CIL module *
 0001:00095c60       _fts3CreateMethod          10096c60 f   * CIL library *:* CIL module *
 0001:00095c90       _fts3ConnectMethod         10096c90 f   * CIL library *:* CIL module *
 0001:00095cc0       _Reinsert                  10096cc0 f   * CIL library *:* CIL module *
 0001:000961c0       _SplitNode                 100971c0 f   * CIL library *:* CIL module *
 0001:00096660       _rtreeSearchPointPop       10097660 f   * CIL library *:* CIL module *
 0001:00096790       _rtreeEnqueue              10097790 f   * CIL library *:* CIL module *
 0001:00096860       _fts3TruncateSegment       10097860 f   * CIL library *:* CIL module *
 0001:00096bb0       _fts3IncrmergeLoad         10097bb0 f   * CIL library *:* CIL module *
 0001:00097090       _sqlite3Fts3MsrOvfl        10098090 f   * CIL library *:* CIL module *
 0001:00097150       _fts3SegReaderNext         10098150 f   * CIL library *:* CIL module *
 0001:000973b0       _fts3EvalTokenCosts        100983b0 f   * CIL library *:* CIL module *
 0001:000974a0       _fts3SegReaderCursor       100984a0 f   * CIL library *:* CIL module *
 0001:00097720       _rtreeInsertCell           10098720 f   * CIL library *:* CIL module *
 0001:00097830       _rtreeSearchPointNew       10098830 f   * CIL library *:* CIL module *
 0001:00097930       _fts3IncrmergeChomp        10098930 f   * CIL library *:* CIL module *
 0001:000979f0       _sqlite3Fts3SegReaderStep  100989f0 f   * CIL library *:* CIL module *
 0001:00097f00       _fts3SegReaderStart        10098f00 f   * CIL library *:* CIL module *
 0001:00097fc0       _fts3auxNextMethod         10098fc0 f   * CIL library *:* CIL module *
 0001:00098210       _fts3SegReaderCursorAddZero 10099210 f   * CIL library *:* CIL module *
 0001:00098230       _sqlite3Fts3SegReaderCursor 10099230 f   * CIL library *:* CIL module *
 0001:00098270       _reinsertNodeContent       10099270 f   * CIL library *:* CIL module *
 0001:00098320       _rtreeStepToLeaf           10099320 f   * CIL library *:* CIL module *
 0001:00098540       _sqlite3Fts3MsrIncrStart   10099540 f   * CIL library *:* CIL module *
 0001:000985f0       _sqlite3Fts3SegReaderStart 100995f0 f   * CIL library *:* CIL module *
 0001:00098610       _fts3auxFilterMethod       10099610 f   * CIL library *:* CIL module *
 0001:000987c0       _fts3TermSelect            100997c0 f   * CIL library *:* CIL module *
 0001:00098930       _fts3TermSegReaderCursor   10099930 f   * CIL library *:* CIL module *
 0001:00098b40       _rtreeDeleteRowid          10099b40 f   * CIL library *:* CIL module *
 0001:00098cf0       _rtreeFilter               10099cf0 f   * CIL library *:* CIL module *
 0001:00098f50       _rtreeNext                 10099f50 f   * CIL library *:* CIL module *
 0001:00098f70       _fts3ChecksumIndex         10099f70 f   * CIL library *:* CIL module *
 0001:00099130       _sqlite3Fts3Incrmerge      1009a130 f   * CIL library *:* CIL module *
 0001:00099610       _fts3SegmentMerge          1009a610 f   * CIL library *:* CIL module *
 0001:00099890       _sqlite3Fts3InitAux        1009a890 f   * CIL library *:* CIL module *
 0001:000998b0       _fts3EvalSelectDeferred    1009a8b0 f   * CIL library *:* CIL module *
 0001:00099a70       _fts3EvalPhraseLoad        1009aa70 f   * CIL library *:* CIL module *
 0001:00099af0       _fts3EvalAllocateReaders   1009aaf0 f   * CIL library *:* CIL module *
 0001:00099bb0       _sqlite3Fts3Init           1009abb0 f   * CIL library *:* CIL module *
 0001:00099d70       _openDatabase              1009ad70 f   * CIL library *:* CIL module *
 0001:0009a200       _rtreeUpdate               1009b200 f   * CIL library *:* CIL module *
 0001:0009a460       _fts3IntegrityCheck        1009b460 f   * CIL library *:* CIL module *
 0001:0009a890       _fts3DoIncrmerge           1009b890 f   * CIL library *:* CIL module *
 0001:0009a950       _fts3DoOptimize            1009b950 f   * CIL library *:* CIL module *
 0001:0009aa70       _sqlite3Fts3PendingTermsFlush 1009ba70 f   * CIL library *:* CIL module *
 0001:0009ab80       _fts3PendingTermsDocid     1009bb80 f   * CIL library *:* CIL module *
 0001:0009abe0       _fts3EvalPhraseStart       1009bbe0 f   * CIL library *:* CIL module *
 0001:0009ace0       _fts3RenameMethod          1009bce0 f   * CIL library *:* CIL module *
 0001:0009adb0       _fts3SyncMethod            1009bdb0 f   * CIL library *:* CIL module *
 0001:0009af40       _sqlite3Fts3Optimize       1009bf40 f   * CIL library *:* CIL module *
 0001:0009afe0       _fts3DoIntegrityCheck      1009bfe0 f   * CIL library *:* CIL module *
 0001:0009b010       _fts3DoRebuild             1009c010 f   * CIL library *:* CIL module *
 0001:0009b320       _fts3DeleteTerms           1009c320 f   * CIL library *:* CIL module *
 0001:0009b510       _fts3EvalRestart           1009c510 f   * CIL library *:* CIL module *
 0001:0009b600       _fts3EvalStartReaders      1009c600 f   * CIL library *:* CIL module *
 0001:0009b6b0       _fts3SavepointMethod       1009c6b0 f   * CIL library *:* CIL module *
 0001:0009b6d0       _fts3OptimizeFunc          1009c6d0 f   * CIL library *:* CIL module *
 0001:0009b7b0       _fts3DeleteByRowid         1009c7b0 f   * CIL library *:* CIL module *
 0001:0009b8e0       _fts3SpecialInsert         1009c8e0 f   * CIL library *:* CIL module *
 0001:0009ba00       _sqlite3Fts3EvalPhrasePoslist 1009ca00 f   * CIL library *:* CIL module *
 0001:0009be50       _fts3EvalGatherStats       1009ce50 f   * CIL library *:* CIL module *
 0001:0009c040       _fts3EvalStart             1009d040 f   * CIL library *:* CIL module *
 0001:0009c1b0       _fts3FilterMethod          1009d1b0 f   * CIL library *:* CIL module *
 0001:0009c470       _fts3ExprTermOffsetInit    1009d470 f   * CIL library *:* CIL module *
 0001:0009c4f0       _fts3MatchinfoLcs          1009d4f0 f   * CIL library *:* CIL module *
 0001:0009c6c0       _fts3ExprLocalHitsCb       1009d6c0 f   * CIL library *:* CIL module *
 0001:0009c740       _fts3SnippetFindPositions  1009d740 f   * CIL library *:* CIL module *
 0001:0009c7b0       _sqlite3Fts3UpdateMethod   1009d7b0 f   * CIL library *:* CIL module *
 0001:0009caf0       _sqlite3Fts3EvalPhraseStats 1009daf0 f   * CIL library *:* CIL module *
 0001:0009cb90       _fts3UpdateMethod          1009db90 f   * CIL library *:* CIL module *
 0001:0009cbb0       _sqlite3Fts3Offsets        1009dbb0 f   * CIL library *:* CIL module *
 0001:0009cfe0       _fts3ExprGlobalHitsCb      1009dfe0 f   * CIL library *:* CIL module *
 0001:0009d010       _fts3BestSnippet           1009e010 f   * CIL library *:* CIL module *
 0001:0009d1b0       _fts3OffsetsFunc           1009e1b0 f   * CIL library *:* CIL module *
 0001:0009d200       _sqlite3Fts3Snippet        1009e200 f   * CIL library *:* CIL module *
 0001:0009d540       _fts3MatchinfoValues       1009e540 f   * CIL library *:* CIL module *
 0001:0009d7b8       $LN130                     1009e7b8     * CIL library *:* CIL module *
 0001:0009d7d4       $LN122                     1009e7d4     * CIL library *:* CIL module *
 0001:0009d7f0       _fts3SnippetFunc           1009e7f0 f   * CIL library *:* CIL module *
 0001:0009d938       $LN92                      1009e938     * CIL library *:* CIL module *
 0001:0009d950       _fts3GetMatchinfo          1009e950 f   * CIL library *:* CIL module *
 0001:0009db1c       $LN111                     1009eb1c     * CIL library *:* CIL module *
 0001:0009db28       $LN107                     1009eb28     * CIL library *:* CIL module *
 0001:0009db40       _sqlite3Fts3Matchinfo      1009eb40 f   * CIL library *:* CIL module *
 0001:0009dc60       _fts3MatchinfoFunc         1009ec60 f   * CIL library *:* CIL module *
 0001:0009dcb0       _fts3FindFunctionMethod    1009ecb0 f   * CIL library *:* CIL module *
 0001:0009dda0       $$000000                   1009eda0     MSVCRT:lldiv.obj
 0001:0009de50       $$000000                   1009ee50     MSVCRT:llshl.obj
 0001:0009de70       $$000000                   1009ee70     MSVCRT:ftol2.obj
 0001:0009df20       $$000000                   1009ef20     MSVCRT:llmul.obj
 0001:0009df60       $$000000                   1009ef60     MSVCRT:chkstk.obj
 0001:0009df90       $$000000                   1009ef90     MSVCRT:ullshr.obj
 0001:0009dfb0       $$000000                   1009efb0     MSVCRT:llrem.obj
 0001:0009e070       $$000000                   1009f070     MSVCRT:lldvrm.obj
 0001:0009e1a0       $$000000                   1009f1a0     MSVCRT:ulldiv.obj
 0001:0009e210       $$000000                   1009f210     MSVCRT:ullrem.obj
 0001:0009e290       $$000000                   1009f290     MSVCRT:ulldvrm.obj
 0002:00000220       _pcinit                    100a0220     MSVCRT:crtdll.obj
 0002:00000224       _pinit                     100a0224     MSVCRT:atonexit.obj
 0002:00000228       _pinit                     100a0228     MSVCRT:cpu_disp.obj
 0002:00000268       _GS_ExceptionPointers      100a0268     MSVCRT:gs_report.obj
 0002:00007480       ?aFuncs@?1??RegisterExtensionFunctions@@9@9 100a7480     * CIL library *:* CIL module *
 0002:00007678       ?aLen@?1??keywordCode@@9@9 100a7678     * CIL library *:* CIL module *
 0002:000076f4       ?iLength@?1??getSafetyLevel@@9@9 100a76f4     * CIL library *:* CIL module *
 0002:000076fb       ?zerobyte@?5??syncJournal@@9@9 100a76fb     * CIL library *:* CIL module *
 0002:000076fc       ?iLn@?DB@??sqlite3Pragma@@9@9 100a76fc     * CIL library *:* CIL module *
 0002:00007700       ?azName@?1??sqlite3OpcodeName@@9@9 100a7700     * CIL library *:* CIL module *
 0002:00007978       ?winMemMethods@?1??sqlite3MemGetWin32@@9@9 100a7978     * CIL library *:* CIL module *
 0002:00007998       _zMagicHeader              100a7998     * CIL library *:* CIL module *
 0002:000079a8       _winIoMethod               100a79a8     * CIL library *:* CIL module *
 0002:000079f4       ?aFlag@?O@??sqlite3VdbeSerialGet@@9@9 100a79f4     * CIL library *:* CIL module *
 0002:000079f8       ?trans@?1??sqlite3_complete@@9@9 100a79f8     * CIL library *:* CIL module *
 0002:00007a38       ?openBlob@?1??sqlite3_blob_open@@9@9 100a7a38     * CIL library *:* CIL module *
 0002:00007a60       ?sMutex@?1??sqlite3NoopMutex@@9@9 100a7a60     * CIL library *:* CIL module *
 0002:00007a84       ?aKeyword@?1??getNextNode@@9@9 100a7a84     * CIL library *:* CIL module *
 0002:00007aa4       ?azType@?6??createTableStmt@@9@9 100a7aa4     * CIL library *:* CIL module *
 0002:00007ab8       ?aMsg@?1??sqlite3ErrStr@@9@9 100a7ab8     * CIL library *:* CIL module *
 0002:00007b24       _statInitFuncdef           100a7b24     * CIL library *:* CIL module *
 0002:00007b48       ?aKeyword@?1??sqlite3JoinType@@9@9 100a7b48     * CIL library *:* CIL module *
 0002:00007b5d       ?lenOne@?3??trimFunc@@9@9  100a7b5d     * CIL library *:* CIL module *
 0002:00007b60       _xtra_utf8_bytes           100a7b60     * CIL library *:* CIL module *
 0002:00007c60       _likeInfoAlt               100a7c60     * CIL library *:* CIL module *
 0002:00007c64       _utf_mask                  100a7c64     * CIL library *:* CIL module *
 0002:00007c74       _likeInfoNorm              100a7c74     * CIL library *:* CIL module *
 0002:00007c78       _sqlite3UpperToLower       100a7c78     * CIL library *:* CIL module *
 0002:00007d78       ?fts3tok_module@?1??sqlite3Fts3InitTok@@9@9 100a7d78     * CIL library *:* CIL module *
 0002:00007dd4       ?detach_func@?1??sqlite3Detach@@9@9 100a7dd4     * CIL library *:* CIL module *
 0002:00007df8       ?aStart@?EH@??codeOneLoopStart@@9@9 100a7df8     * CIL library *:* CIL module *
 0002:00007dfc       _statGetFuncdef            100a7dfc     * CIL library *:* CIL module *
 0002:00007e20       _sqlite3Apis               100a7e20     * CIL library *:* CIL module *
 0002:00008120       ?iLn@?1??sqlite3_blob_open@@9@9 100a8120     * CIL library *:* CIL module *
 0002:00008124       ?iOffset@?1??getSafetyLevel@@9@9 100a8124     * CIL library *:* CIL module *
 0002:0000812c       ?endCode@?IL@??sqlite3Pragma@@9@9 100a812c     * CIL library *:* CIL module *
 0002:0000813c       ?iLn@?BA@??sqlite3Pragma@@9@9 100a813c     * CIL library *:* CIL module *
 0002:00008140       ?winFiletimeEpoch@?1??winCurrentTimeInt64@@9@9 100a8140     * CIL library *:* CIL module *
 0002:00008148       _aPragmaNames              100a8148     * CIL library *:* CIL module *
 0002:00008418       _yyFallback                100a8418     * CIL library *:* CIL module *
 0002:00008460       ?aNext@?1??keywordCode@@9@9 100a8460     * CIL library *:* CIL module *
 0002:000084dc       ?and_logic@?IL@??sqlite3VdbeExec@@9@9 100a84dc     * CIL library *:* CIL module *
 0002:000084e8       ?zText@?1??keywordCode@@9@9 100a84e8     * CIL library *:* CIL module *
 0002:00008714       ?aStep@?EH@??codeOneLoopStart@@9@9 100a8714     * CIL library *:* CIL module *
 0002:00008718       ?aHash@?1??keywordCode@@9@9 100a8718     * CIL library *:* CIL module *
 0002:00008798       _sqlite3OpcodeProperty     100a8798     * CIL library *:* CIL module *
 0002:00008838       ?aSize@?3??sqlite3VdbeSerialTypeLen@@9@9 100a8838     * CIL library *:* CIL module *
 0002:00008844       ?x@?1??sqlite3LogEstAdd@@9@9 100a8844     * CIL library *:* CIL module *
 0002:00008864       _sqlite3IntTokens          100a8864     * CIL library *:* CIL module *
 0002:00008874       ?aEnc@?1??synthCollSeq@@9@9 100a8874     * CIL library *:* CIL module *
 0002:00008878       _fmtinfo                   100a8878     * CIL library *:* CIL module *
 0002:00008904       ?attach_func@?1??sqlite3Attach@@9@9 100a8904     * CIL library *:* CIL module *
 0002:00008928       _azCompileOpt              100a8928     * CIL library *:* CIL module *
 0002:00008950       _yy_shift_ofst             100a8950     * CIL library *:* CIL module *
 0002:00008cac       _cType                     100a8cac     * CIL library *:* CIL module *
 0002:00008cc8       ?isFtsIdChar@?1??sqlite3Fts3IsIdChar@@9@9 100a8cc8     * CIL library *:* CIL module *
 0002:00008d48       ?azType@?BH@??sqlite3VdbeExec@@9@9 100a8d48     * CIL library *:* CIL module *
 0002:00008d58       ?zTrans@?1??re_esc_char@@9@9 100a8d58     * CIL library *:* CIL module *
 0002:00008d60       ?iLn@?IL@??sqlite3Pragma@@9@9 100a8d60     * CIL library *:* CIL module *
 0002:00008d64       ?zOrd@?DE@??sqlite3VXPrintf@@9@9 100a8d64     * CIL library *:* CIL module *
 0002:00008d70       _yyRuleInfo                100a8d70     * CIL library *:* CIL module *
 0002:00009000       ?aMap@?1??sqlite3_vtab_on_conflict@@9@9 100a9000     * CIL library *:* CIL module *
 0002:00009008       _yy_lookahead              100a9008     * CIL library *:* CIL module *
 0002:000095e4       ?dropTrigger@?4??sqlite3DropTriggerPtr@@9@9 100a95e4     * CIL library *:* CIL module *
 0002:00009608       ?aCode@?1??keywordCode@@9@9 100a9608     * CIL library *:* CIL module *
 0002:00009684       ?zeroHdr@?4??zeroJournalHdr@@9@9 100a9684     * CIL library *:* CIL module *
 0002:000096a0       ?zKeyText@?1??sqlite3JoinType@@9@9 100a96a0     * CIL library *:* CIL module *
 0002:000096c4       ?outOfMem@?1??sqlite3_errmsg16@@9@9 100a96c4     * CIL library *:* CIL module *
 0002:000096e0       _globInfo                  100a96e0     * CIL library *:* CIL module *
 0002:000096e4       ?delays@?1??sqliteDefaultBusyCallback@@9@9 100a96e4     * CIL library *:* CIL module *
 0002:000096f0       _aJournalMagic             100a96f0     * CIL library *:* CIL module *
 0002:000096f8       ?setCookie@?JP@??sqlite3Pragma@@9@9 100a96f8     * CIL library *:* CIL module *
 0002:00009704       _porterTokenizerModule     100a9704     * CIL library *:* CIL module *
 0002:00009720       _MemJournalMethods         100a9720     * CIL library *:* CIL module *
 0002:0000976c       ?ops@?BB@??exprAnalyze@@9@9 100a976c     * CIL library *:* CIL module *
 0002:00009770       ?minInt@?1??doubleToInt64@@9@9 100a9770     * CIL library *:* CIL module *
 0002:00009778       ?iCode@?1??soundexFunc@@9@9 100a9778     * CIL library *:* CIL module *
 0002:000097f8       ?zEsc@?1??re_esc_char@@9@9 100a97f8     * CIL library *:* CIL module *
 0002:00009810       ?aType@?1??sqlite3_value_type@@9@9 100a9810     * CIL library *:* CIL module *
 0002:00009830       ?master_schema@?1??sqlite3InitOne@@9@9 100a9830     * CIL library *:* CIL module *
 0002:00009898       ?or_logic@?IM@??sqlite3VdbeExec@@9@9 100a9898     * CIL library *:* CIL module *
 0002:000098a4       ?az@?2??sqlite3Savepoint@@9@9 100a98a4     * CIL library *:* CIL module *
 0002:000098b0       _yy_action                 100a98b0     * CIL library *:* CIL module *
 0002:0000a464       ?iLn@?4??sqlite3DropTriggerPtr@@9@9 100aa464     * CIL library *:* CIL module *
 0002:0000a468       ?max32BitValue@?1??winCurrentTimeInt64@@9@9 100aa468     * CIL library *:* CIL module *
 0002:0000a470       _yy_default                100aa470     * CIL library *:* CIL module *
 0002:0000a974       ?getCacheSize@?BA@??sqlite3Pragma@@9@9 100aa974     * CIL library *:* CIL module *
 0002:0000a998       ?misuse@?1??sqlite3_errmsg16@@9@9 100aa998     * CIL library *:* CIL module *
 0002:0000a9e8       ?azColName@?BA@??sqlite3Prepare@@9@9 100aa9e8     * CIL library *:* CIL module *
 0002:0000aa18       ?aTable@?1??openStatTable@@9@9 100aaa18     * CIL library *:* CIL module *
 0002:0000aa30       ?azModeName@?1??sqlite3JournalModename@@9@9 100aaa30     * CIL library *:* CIL module *
 0002:0000aa50       ?zText@?1??getSafetyLevel@@9@9 100aaa50     * CIL library *:* CIL module *
 0002:0000aa68       _aHardLimit                100aaa68     * CIL library *:* CIL module *
 0002:0000aa94       _hexdigits                 100aaa94     * CIL library *:* CIL module *
 0002:0000aaa4       _yyzerominor               100aaaa4     * CIL library *:* CIL module *
 0002:0000aab0       ?aOffset@?1??keywordCode@@9@9 100aaab0     * CIL library *:* CIL module *
 0002:0000aba8       _xtra_utf8_bits            100aaba8     * CIL library *:* CIL module *
 0002:0000abb8       ?iValue@?1??getSafetyLevel@@9@9 100aabb8     * CIL library *:* CIL module *
 0002:0000abc0       ?aFlagOp@?4??sqlite3_db_config@@9@9 100aabc0     * CIL library *:* CIL module *
 0002:0000abd0       ?aAggs@?1??RegisterExtensionFunctions@@9@9 100aabd0     * CIL library *:* CIL module *
 0002:0000ac30       ?encnames@?JG@??sqlite3Pragma@@9@9 100aac30     * CIL library *:* CIL module *
 0002:0000ac78       _sqlite3Utf8Trans1         100aac78     * CIL library *:* CIL module *
 0002:0000acb8       ?flags@?2??sqlite3OpenTempDatabase@@9@9 100aacb8     * CIL library *:* CIL module *
 0002:0000acbc       _azInteropCompileOpt       100aacbc     * CIL library *:* CIL module *
 0002:0000acd8       _yy_reduce_ofst            100aacd8     * CIL library *:* CIL module *
 0002:0000af3c       ?aEndOp@?BE@??codeOneLoopStart@@9@9 100aaf3c     * CIL library *:* CIL module *
 0002:0000af40       ?azOne@?3??trimFunc@@9@9   100aaf40     * CIL library *:* CIL module *
 0002:0000af44       _statPushFuncdef           100aaf44     * CIL library *:* CIL module *
 0002:0000af68       ?nullMem@?1??columnNullValue@@9@9 100aaf68     * CIL library *:* CIL module *
 0002:0000af90       ?temp_master_schema@?1??sqlite3InitOne@@9@9 100aaf90     * CIL library *:* CIL module *
 0002:0000b004       _aPrefix                   100ab004     * CIL library *:* CIL module *
 0002:0000b00c       ?setMeta6@?DB@??sqlite3Pragma@@9@9 100ab00c     * CIL library *:* CIL module *
 0002:0000b024       ?readCookie@?KA@??sqlite3Pragma@@9@9 100ab024     * CIL library *:* CIL module *
 0002:0000b030       ?iCode@?1??soundex@@9@9    100ab030     * CIL library *:* CIL module *
 0002:0000b0b0       _porterIdChar              100ab0b0     * CIL library *:* CIL module *
 0002:0000b100       _fts3Module                100ab100     * CIL library *:* CIL module *
 0002:0000b15c       ?vfsFlags@?BAP@??sqlite3VdbeExec@@9@9 100ab15c     * CIL library *:* CIL module *
 0002:0000b160       _simpleTokenizerModule     100ab160     * CIL library *:* CIL module *
 0002:0000b17c       ?totals@?1??sqliteDefaultBusyCallback@@9@9 100ab17c     * CIL library *:* CIL module *
 0002:0000b188       ?aCopy@?L@??sqlite3RunVacuum@@9@9 100ab188     * CIL library *:* CIL module *
 0002:0000b194       ?aStartOp@?BE@??codeOneLoopStart@@9@9 100ab194     * CIL library *:* CIL module *
 0002:0000b19c       _aDigits                   100ab19c     * CIL library *:* CIL module *
 0002:0000b1c0       ?fts3aux_module@?1??sqlite3Fts3InitAux@@9@9 100ab1c0     * CIL library *:* CIL module *
 0002:0000b21c       ?sMutex@?1??sqlite3DefaultMutex@@9@9 100ab21c     * CIL library *:* CIL module *
 0002:0000b240       ?maxInt@?1??doubleToInt64@@9@9 100ab240     * CIL library *:* CIL module *
 0002:0000b248       _sqlite3CtypeMap           100ab248     * CIL library *:* CIL module *
 0002:0000b348       ?defaultMethods@?1??sqlite3PCacheSetDefault@@9@9 100ab348     * CIL library *:* CIL module *
 0002:00036898       __sehtable$___DllMainCRTStartup 100d6898     MSVCRT:crtdll.obj
 0002:000368c0       __sehtable$__IsNonwritableInCurrentImage 100d68c0     MSVCRT:pesect.obj
 0002:000368e0       __sehtable$__onexit        100d68e0     MSVCRT:atonexit.obj
 0002:0003701a       .idata$6                   100d701a     kernel32:KERNEL32.dll
 0002:000370ce       .idata$6                   100d70ce     advapi32:ADVAPI32.dll
 0002:00037162       .idata$6                   100d7162     MSVCRT:MSVCR110.dll
 0002:0003746c       .idata$6                   100d746c     mscoree:mscoree.dll
 0002:00037480       .edata                     100d7480     System.Data.SQLite.exp
 0002:000374a8       rgpv                       100d74a8     System.Data.SQLite.exp
 0002:000378f4       rgszName                   100d78f4     System.Data.SQLite.exp
 0002:00037d40       rgwOrd                     100d7d40     System.Data.SQLite.exp
 0002:00037f66       szName                     100d7f66     System.Data.SQLite.exp
 0002:00037f7d       $N00001                    100d7f7d     System.Data.SQLite.exp
 0002:00037f9a       $N00002                    100d7f9a     System.Data.SQLite.exp
 0002:00037fb8       $N00003                    100d7fb8     System.Data.SQLite.exp
 0002:00037fce       $N00004                    100d7fce     System.Data.SQLite.exp
 0002:00037fe2       $N00005                    100d7fe2     System.Data.SQLite.exp
 0002:00037ff7       $N00006                    100d7ff7     System.Data.SQLite.exp
 0002:00038011       $N00007                    100d8011     System.Data.SQLite.exp
 0002:00038029       $N00008                    100d8029     System.Data.SQLite.exp
 0002:00038040       $N00009                    100d8040     System.Data.SQLite.exp
 0002:00038056       $N00010                    100d8056     System.Data.SQLite.exp
 0002:00038077       $N00011                    100d8077     System.Data.SQLite.exp
 0002:0003808b       $N00012                    100d808b     System.Data.SQLite.exp
 0002:000380a4       $N00013                    100d80a4     System.Data.SQLite.exp
 0002:000380bd       $N00014                    100d80bd     System.Data.SQLite.exp
 0002:000380d1       $N00015                    100d80d1     System.Data.SQLite.exp
 0002:000380e3       $N00016                    100d80e3     System.Data.SQLite.exp
 0002:000380f7       $N00017                    100d80f7     System.Data.SQLite.exp
 0002:00038117       $N00018                    100d8117     System.Data.SQLite.exp
 0002:00038128       $N00019                    100d8128     System.Data.SQLite.exp
 0002:0003813b       $N00020                    100d813b     System.Data.SQLite.exp
 0002:0003815a       $N00021                    100d815a     System.Data.SQLite.exp
 0002:0003816c       $N00022                    100d816c     System.Data.SQLite.exp
 0002:00038189       $N00023                    100d8189     System.Data.SQLite.exp
 0002:000381a6       $N00024                    100d81a6     System.Data.SQLite.exp
 0002:000381c2       $N00025                    100d81c2     System.Data.SQLite.exp
 0002:000381ea       $N00026                    100d81ea     System.Data.SQLite.exp
 0002:000381fc       $N00027                    100d81fc     System.Data.SQLite.exp
 0002:00038210       $N00028                    100d8210     System.Data.SQLite.exp
 0002:00038223       $N00029                    100d8223     System.Data.SQLite.exp
 0002:00038239       $N00030                    100d8239     System.Data.SQLite.exp
 0002:0003824c       $N00031                    100d824c     System.Data.SQLite.exp
 0002:0003825f       $N00032                    100d825f     System.Data.SQLite.exp
 0002:00038271       $N00033                    100d8271     System.Data.SQLite.exp
 0002:00038283       $N00034                    100d8283     System.Data.SQLite.exp
 0002:00038297       $N00035                    100d8297     System.Data.SQLite.exp
 0002:000382aa       $N00036                    100d82aa     System.Data.SQLite.exp
 0002:000382bf       $N00037                    100d82bf     System.Data.SQLite.exp
 0002:000382d4       $N00038                    100d82d4     System.Data.SQLite.exp
 0002:000382f2       $N00039                    100d82f2     System.Data.SQLite.exp
 0002:00038302       $N00040                    100d8302     System.Data.SQLite.exp
 0002:0003831d       $N00041                    100d831d     System.Data.SQLite.exp
 0002:00038334       $N00042                    100d8334     System.Data.SQLite.exp
 0002:00038342       $N00043                    100d8342     System.Data.SQLite.exp
 0002:0003835b       $N00044                    100d835b     System.Data.SQLite.exp
 0002:0003836c       $N00045                    100d836c     System.Data.SQLite.exp
 0002:00038385       $N00046                    100d8385     System.Data.SQLite.exp
 0002:000383a0       $N00047                    100d83a0     System.Data.SQLite.exp
 0002:000383b4       $N00048                    100d83b4     System.Data.SQLite.exp
 0002:000383c9       $N00049                    100d83c9     System.Data.SQLite.exp
 0002:000383e0       $N00050                    100d83e0     System.Data.SQLite.exp
 0002:000383f5       $N00051                    100d83f5     System.Data.SQLite.exp
 0002:00038412       $N00052                    100d8412     System.Data.SQLite.exp
 0002:00038431       $N00053                    100d8431     System.Data.SQLite.exp
 0002:0003845c       $N00054                    100d845c     System.Data.SQLite.exp
 0002:00038485       $N00055                    100d8485     System.Data.SQLite.exp
 0002:0003849d       $N00056                    100d849d     System.Data.SQLite.exp
 0002:000384b7       $N00057                    100d84b7     System.Data.SQLite.exp
 0002:000384dd       $N00058                    100d84dd     System.Data.SQLite.exp
 0002:00038501       $N00059                    100d8501     System.Data.SQLite.exp
 0002:00038517       $N00060                    100d8517     System.Data.SQLite.exp
 0002:00038539       $N00061                    100d8539     System.Data.SQLite.exp
 0002:0003854c       $N00062                    100d854c     System.Data.SQLite.exp
 0002:00038561       $N00063                    100d8561     System.Data.SQLite.exp
 0002:00038582       $N00064                    100d8582     System.Data.SQLite.exp
 0002:00038596       $N00065                    100d8596     System.Data.SQLite.exp
 0002:000385ac       $N00066                    100d85ac     System.Data.SQLite.exp
 0002:000385ce       $N00067                    100d85ce     System.Data.SQLite.exp
 0002:000385ee       $N00068                    100d85ee     System.Data.SQLite.exp
 0002:00038609       $N00069                    100d8609     System.Data.SQLite.exp
 0002:00038626       $N00070                    100d8626     System.Data.SQLite.exp
 0002:0003864f       $N00071                    100d864f     System.Data.SQLite.exp
 0002:00038676       $N00072                    100d8676     System.Data.SQLite.exp
 0002:00038690       $N00073                    100d8690     System.Data.SQLite.exp
 0002:000386ac       $N00074                    100d86ac     System.Data.SQLite.exp
 0002:000386d4       $N00075                    100d86d4     System.Data.SQLite.exp
 0002:000386fa       $N00076                    100d86fa     System.Data.SQLite.exp
 0002:0003870e       $N00077                    100d870e     System.Data.SQLite.exp
 0002:00038724       $N00078                    100d8724     System.Data.SQLite.exp
 0002:00038746       $N00079                    100d8746     System.Data.SQLite.exp
 0002:00038766       $N00080                    100d8766     System.Data.SQLite.exp
 0002:0003877a       $N00081                    100d877a     System.Data.SQLite.exp
 0002:0003878f       $N00082                    100d878f     System.Data.SQLite.exp
 0002:000387a3       $N00083                    100d87a3     System.Data.SQLite.exp
 0002:000387bd       $N00084                    100d87bd     System.Data.SQLite.exp
 0002:000387d8       $N00085                    100d87d8     System.Data.SQLite.exp
 0002:000387e9       $N00086                    100d87e9     System.Data.SQLite.exp
 0002:000387fc       $N00087                    100d87fc     System.Data.SQLite.exp
 0002:0003880b       $N00088                    100d880b     System.Data.SQLite.exp
 0002:00038833       $N00089                    100d8833     System.Data.SQLite.exp
 0002:00038857       $N00090                    100d8857     System.Data.SQLite.exp
 0002:00038871       $N00091                    100d8871     System.Data.SQLite.exp
 0002:0003888a       $N00092                    100d888a     System.Data.SQLite.exp
 0002:000388a5       $N00093                    100d88a5     System.Data.SQLite.exp
 0002:000388c1       $N00094                    100d88c1     System.Data.SQLite.exp
 0002:000388e2       $N00095                    100d88e2     System.Data.SQLite.exp
 0002:00038910       $N00096                    100d8910     System.Data.SQLite.exp
 0002:00038928       $N00097                    100d8928     System.Data.SQLite.exp
 0002:00038942       $N00098                    100d8942     System.Data.SQLite.exp
 0002:00038966       $N00099                    100d8966     System.Data.SQLite.exp
 0002:00038981       $N00100                    100d8981     System.Data.SQLite.exp
 0002:00038997       $N00101                    100d8997     System.Data.SQLite.exp
 0002:000389b0       $N00102                    100d89b0     System.Data.SQLite.exp
 0002:000389d1       $N00103                    100d89d1     System.Data.SQLite.exp
 0002:000389e4       $N00104                    100d89e4     System.Data.SQLite.exp
 0002:000389fb       $N00105                    100d89fb     System.Data.SQLite.exp
 0002:00038a0d       $N00106                    100d8a0d     System.Data.SQLite.exp
 0002:00038a21       $N00107                    100d8a21     System.Data.SQLite.exp
 0002:00038a33       $N00108                    100d8a33     System.Data.SQLite.exp
 0002:00038a44       $N00109                    100d8a44     System.Data.SQLite.exp
 0002:00038a58       $N00110                    100d8a58     System.Data.SQLite.exp
 0002:00038a72       $N00111                    100d8a72     System.Data.SQLite.exp
 0002:00038a84       $N00112                    100d8a84     System.Data.SQLite.exp
 0002:00038a99       $N00113                    100d8a99     System.Data.SQLite.exp
 0002:00038ab0       $N00114                    100d8ab0     System.Data.SQLite.exp
 0002:00038ace       $N00115                    100d8ace     System.Data.SQLite.exp
 0002:00038aea       $N00116                    100d8aea     System.Data.SQLite.exp
 0002:00038afa       $N00117                    100d8afa     System.Data.SQLite.exp
 0002:00038b09       $N00118                    100d8b09     System.Data.SQLite.exp
 0002:00038b1a       $N00119                    100d8b1a     System.Data.SQLite.exp
 0002:00038b34       $N00120                    100d8b34     System.Data.SQLite.exp
 0002:00038b43       $N00121                    100d8b43     System.Data.SQLite.exp
 0002:00038b50       $N00122                    100d8b50     System.Data.SQLite.exp
 0002:00038b60       $N00123                    100d8b60     System.Data.SQLite.exp
 0002:00038b79       $N00124                    100d8b79     System.Data.SQLite.exp
 0002:00038b97       $N00125                    100d8b97     System.Data.SQLite.exp
 0002:00038bac       $N00126                    100d8bac     System.Data.SQLite.exp
 0002:00038bbd       $N00127                    100d8bbd     System.Data.SQLite.exp
 0002:00038bd9       $N00128                    100d8bd9     System.Data.SQLite.exp
 0002:00038be6       $N00129                    100d8be6     System.Data.SQLite.exp
 0002:00038bf9       $N00130                    100d8bf9     System.Data.SQLite.exp
 0002:00038c10       $N00131                    100d8c10     System.Data.SQLite.exp
 0002:00038c24       $N00132                    100d8c24     System.Data.SQLite.exp
 0002:00038c36       $N00133                    100d8c36     System.Data.SQLite.exp
 0002:00038c4d       $N00134                    100d8c4d     System.Data.SQLite.exp
 0002:00038c73       $N00135                    100d8c73     System.Data.SQLite.exp
 0002:00038c86       $N00136                    100d8c86     System.Data.SQLite.exp
 0002:00038c98       $N00137                    100d8c98     System.Data.SQLite.exp
 0002:00038ca4       $N00138                    100d8ca4     System.Data.SQLite.exp
 0002:00038cb3       $N00139                    100d8cb3     System.Data.SQLite.exp
 0002:00038ccd       $N00140                    100d8ccd     System.Data.SQLite.exp
 0002:00038cf2       $N00141                    100d8cf2     System.Data.SQLite.exp
 0002:00038d05       $N00142                    100d8d05     System.Data.SQLite.exp
 0002:00038d1f       $N00143                    100d8d1f     System.Data.SQLite.exp
 0002:00038d2d       $N00144                    100d8d2d     System.Data.SQLite.exp
 0002:00038d44       $N00145                    100d8d44     System.Data.SQLite.exp
 0002:00038d50       $N00146                    100d8d50     System.Data.SQLite.exp
 0002:00038d5f       $N00147                    100d8d5f     System.Data.SQLite.exp
 0002:00038d7e       $N00148                    100d8d7e     System.Data.SQLite.exp
 0002:00038d93       $N00149                    100d8d93     System.Data.SQLite.exp
 0002:00038dac       $N00150                    100d8dac     System.Data.SQLite.exp
 0002:00038dd0       $N00151                    100d8dd0     System.Data.SQLite.exp
 0002:00038de4       $N00152                    100d8de4     System.Data.SQLite.exp
 0002:00038e03       $N00153                    100d8e03     System.Data.SQLite.exp
 0002:00038e13       $N00154                    100d8e13     System.Data.SQLite.exp
 0002:00038e27       $N00155                    100d8e27     System.Data.SQLite.exp
 0002:00038e3b       $N00156                    100d8e3b     System.Data.SQLite.exp
 0002:00038e4e       $N00157                    100d8e4e     System.Data.SQLite.exp
 0002:00038e62       $N00158                    100d8e62     System.Data.SQLite.exp
 0002:00038e74       $N00159                    100d8e74     System.Data.SQLite.exp
 0002:00038e86       $N00160                    100d8e86     System.Data.SQLite.exp
 0002:00038e93       $N00161                    100d8e93     System.Data.SQLite.exp
 0002:00038ea2       $N00162                    100d8ea2     System.Data.SQLite.exp
 0002:00038ebd       $N00163                    100d8ebd     System.Data.SQLite.exp
 0002:00038ed6       $N00164                    100d8ed6     System.Data.SQLite.exp
 0002:00038ee6       $N00165                    100d8ee6     System.Data.SQLite.exp
 0002:00038ef5       $N00166                    100d8ef5     System.Data.SQLite.exp
 0002:00038f05       $N00167                    100d8f05     System.Data.SQLite.exp
 0002:00038f1f       $N00168                    100d8f1f     System.Data.SQLite.exp
 0002:00038f37       $N00169                    100d8f37     System.Data.SQLite.exp
 0002:00038f47       $N00170                    100d8f47     System.Data.SQLite.exp
 0002:00038f59       $N00171                    100d8f59     System.Data.SQLite.exp
 0002:00038f77       $N00172                    100d8f77     System.Data.SQLite.exp
 0002:00038f8c       $N00173                    100d8f8c     System.Data.SQLite.exp
 0002:00038fa8       $N00174                    100d8fa8     System.Data.SQLite.exp
 0002:00038fbb       $N00175                    100d8fbb     System.Data.SQLite.exp
 0002:00038fcb       $N00176                    100d8fcb     System.Data.SQLite.exp
 0002:00038fe4       $N00177                    100d8fe4     System.Data.SQLite.exp
 0002:00038ff7       $N00178                    100d8ff7     System.Data.SQLite.exp
 0002:00039007       $N00179                    100d9007     System.Data.SQLite.exp
 0002:0003901b       $N00180                    100d901b     System.Data.SQLite.exp
 0002:00039029       $N00181                    100d9029     System.Data.SQLite.exp
 0002:0003903a       $N00182                    100d903a     System.Data.SQLite.exp
 0002:00039051       $N00183                    100d9051     System.Data.SQLite.exp
 0002:0003905f       $N00184                    100d905f     System.Data.SQLite.exp
 0002:0003907c       $N00185                    100d907c     System.Data.SQLite.exp
 0002:00039095       $N00186                    100d9095     System.Data.SQLite.exp
 0002:000390a9       $N00187                    100d90a9     System.Data.SQLite.exp
 0002:000390bf       $N00188                    100d90bf     System.Data.SQLite.exp
 0002:000390e0       $N00189                    100d90e0     System.Data.SQLite.exp
 0002:000390f5       $N00190                    100d90f5     System.Data.SQLite.exp
 0002:0003910c       $N00191                    100d910c     System.Data.SQLite.exp
 0002:00039126       $N00192                    100d9126     System.Data.SQLite.exp
 0002:00039141       $N00193                    100d9141     System.Data.SQLite.exp
 0002:0003915d       $N00194                    100d915d     System.Data.SQLite.exp
 0002:00039170       $N00195                    100d9170     System.Data.SQLite.exp
 0002:00039185       $N00196                    100d9185     System.Data.SQLite.exp
 0002:000391a5       $N00197                    100d91a5     System.Data.SQLite.exp
 0002:000391b9       $N00198                    100d91b9     System.Data.SQLite.exp
 0002:000391cd       $N00199                    100d91cd     System.Data.SQLite.exp
 0002:000391e3       $N00200                    100d91e3     System.Data.SQLite.exp
 0002:000391fb       $N00201                    100d91fb     System.Data.SQLite.exp
 0002:00039213       $N00202                    100d9213     System.Data.SQLite.exp
 0002:00039228       $N00203                    100d9228     System.Data.SQLite.exp
 0002:00039240       $N00204                    100d9240     System.Data.SQLite.exp
 0002:00039256       $N00205                    100d9256     System.Data.SQLite.exp
 0002:00039276       $N00206                    100d9276     System.Data.SQLite.exp
 0002:00039293       $N00207                    100d9293     System.Data.SQLite.exp
 0002:000392aa       $N00208                    100d92aa     System.Data.SQLite.exp
 0002:000392be       $N00209                    100d92be     System.Data.SQLite.exp
 0002:000392cf       $N00210                    100d92cf     System.Data.SQLite.exp
 0002:000392dd       $N00211                    100d92dd     System.Data.SQLite.exp
 0002:000392ee       $N00212                    100d92ee     System.Data.SQLite.exp
 0002:00039306       $N00213                    100d9306     System.Data.SQLite.exp
 0002:00039320       $N00214                    100d9320     System.Data.SQLite.exp
 0002:00039331       $N00215                    100d9331     System.Data.SQLite.exp
 0002:0003933d       $N00216                    100d933d     System.Data.SQLite.exp
 0002:0003934c       $N00217                    100d934c     System.Data.SQLite.exp
 0002:00039359       $N00218                    100d9359     System.Data.SQLite.exp
 0002:0003936b       $N00219                    100d936b     System.Data.SQLite.exp
 0002:00039381       $N00220                    100d9381     System.Data.SQLite.exp
 0002:00039395       $N00221                    100d9395     System.Data.SQLite.exp
 0002:000393a5       $N00222                    100d93a5     System.Data.SQLite.exp
 0002:000393b5       $N00223                    100d93b5     System.Data.SQLite.exp
 0002:000393c6       $N00224                    100d93c6     System.Data.SQLite.exp
 0002:000393e4       $N00225                    100d93e4     System.Data.SQLite.exp
 0002:0003940e       $N00226                    100d940e     System.Data.SQLite.exp
 0002:0003942f       $N00227                    100d942f     System.Data.SQLite.exp
 0002:00039446       $N00228                    100d9446     System.Data.SQLite.exp
 0002:0003945b       $N00229                    100d945b     System.Data.SQLite.exp
 0002:00039472       $N00230                    100d9472     System.Data.SQLite.exp
 0002:00039485       $N00231                    100d9485     System.Data.SQLite.exp
 0002:0003949b       $N00232                    100d949b     System.Data.SQLite.exp
 0002:000394af       $N00233                    100d94af     System.Data.SQLite.exp
 0002:000394bd       $N00234                    100d94bd     System.Data.SQLite.exp
 0002:000394d7       $N00235                    100d94d7     System.Data.SQLite.exp
 0002:000394eb       $N00236                    100d94eb     System.Data.SQLite.exp
 0002:000394ff       $N00237                    100d94ff     System.Data.SQLite.exp
 0002:00039511       $N00238                    100d9511     System.Data.SQLite.exp
 0002:00039527       $N00239                    100d9527     System.Data.SQLite.exp
 0002:00039539       $N00240                    100d9539     System.Data.SQLite.exp
 0002:0003954c       $N00241                    100d954c     System.Data.SQLite.exp
 0002:00039560       $N00242                    100d9560     System.Data.SQLite.exp
 0002:00039576       $N00243                    100d9576     System.Data.SQLite.exp
 0002:0003958b       $N00244                    100d958b     System.Data.SQLite.exp
 0002:000395ab       $N00245                    100d95ab     System.Data.SQLite.exp
 0002:000395bd       $N00246                    100d95bd     System.Data.SQLite.exp
 0002:000395d1       $N00247                    100d95d1     System.Data.SQLite.exp
 0002:000395f0       $N00248                    100d95f0     System.Data.SQLite.exp
 0002:0003960b       $N00249                    100d960b     System.Data.SQLite.exp
 0002:0003961e       $N00250                    100d961e     System.Data.SQLite.exp
 0002:00039633       $N00251                    100d9633     System.Data.SQLite.exp
 0002:00039653       $N00252                    100d9653     System.Data.SQLite.exp
 0002:0003966a       $N00253                    100d966a     System.Data.SQLite.exp
 0002:00039681       $N00254                    100d9681     System.Data.SQLite.exp
 0002:0003969f       $N00255                    100d969f     System.Data.SQLite.exp
 0002:000396b2       $N00256                    100d96b2     System.Data.SQLite.exp
 0002:000396c2       $N00257                    100d96c2     System.Data.SQLite.exp
 0002:000396d3       $N00258                    100d96d3     System.Data.SQLite.exp
 0002:000396e8       $N00259                    100d96e8     System.Data.SQLite.exp
 0002:000396ff       $N00260                    100d96ff     System.Data.SQLite.exp
 0002:00039710       $N00261                    100d9710     System.Data.SQLite.exp
 0002:00039722       $N00262                    100d9722     System.Data.SQLite.exp
 0002:00039736       $N00263                    100d9736     System.Data.SQLite.exp
 0002:0003974f       $N00264                    100d974f     System.Data.SQLite.exp
 0002:00039763       $N00265                    100d9763     System.Data.SQLite.exp
 0002:0003977e       $N00266                    100d977e     System.Data.SQLite.exp
 0002:00039795       $N00267                    100d9795     System.Data.SQLite.exp
 0002:000397af       $N00268                    100d97af     System.Data.SQLite.exp
 0002:000397c0       $N00269                    100d97c0     System.Data.SQLite.exp
 0002:000397db       $N00270                    100d97db     System.Data.SQLite.exp
 0002:000397f6       $N00271                    100d97f6     System.Data.SQLite.exp
 0002:0003980f       $N00272                    100d980f     System.Data.SQLite.exp
 0002:0003982b       $N00273                    100d982b     System.Data.SQLite.exp
 0002:0003983f       $N00274                    100d983f     System.Data.SQLite.exp
 0002:0003985a       $N00275                    100d985a     System.Data.SQLite.exp
 0003:00000018       ?winLongPathVfs@?1??sqlite3_os_init@@9@9 100da018     * CIL library *:* CIL module *
 0003:00000070       ?aDateTimeFuncs@?1??sqlite3RegisterDateTimeFunctions@@9@9 100da070     * CIL library *:* CIL module *
 0003:00000190       ?a@?1??sqlite3LogEst@@9@9  100da190     * CIL library *:* CIL module *
 0003:000001a0       _winIoerrRetryDelay        100da1a0     * CIL library *:* CIL module *
 0003:000001a4       ?zChars@?1??winGetTempname@@9@9 100da1a4     * CIL library *:* CIL module *
 0003:000001e4       ?aAnalyzeTableFuncs@?1??sqlite3AnalyzeFunctions@@9@9 100da1e4     * CIL library *:* CIL module *
 0003:00000208       _aSyscall                  100da208     * CIL library *:* CIL module *
 0003:00000598       ?aCacheMode@?BC@??sqlite3ParseUri@@9@9 100da598     * CIL library *:* CIL module *
 0003:000005b0       _winIoerrRetry             100da5b0     * CIL library *:* CIL module *
 0003:000005b4       _sqlite3PendingByte        100da5b4     * CIL library *:* CIL module *
 0003:000005b8       ?aBuiltinFunc@?1??sqlite3RegisterGlobalFunctions@@9@9 100da5b8     * CIL library *:* CIL module *
 0003:00000e04       ?azSql@?1??rtreeSqlInit@@9@9 100dae04     * CIL library *:* CIL module *
 0003:00000e28       ?winVfs@?1??sqlite3_os_init@@9@9 100dae28     * CIL library *:* CIL module *
 0003:00000e80       _rtreeModule               100dae80     * CIL library *:* CIL module *
 0003:00000edc       ?azEndings@?1??sqlite3LoadExtension@@9@9 100daedc     * CIL library *:* CIL module *
 0003:00000ee0       ?aAlterTableFuncs@?1??sqlite3AlterFunctions@@9@9 100daee0     * CIL library *:* CIL module *
 0003:00000f50       _sqlite3Config             100daf50     * CIL library *:* CIL module *
 0003:00001060       ?aOpenMode@?BD@??sqlite3ParseUri@@9@9 100db060     * CIL library *:* CIL module *
 0003:00001098       _GS_ExceptionRecord        100db098     MSVCRT:gs_report.obj
 0003:000010e8       _GS_ContextRecord          100db0e8     MSVCRT:gs_report.obj
 0003:000013b4       _DebuggerWasPresent        100db3b4     MSVCRT:gs_report.obj
 0003:000013b8       ___proc_attached           100db3b8     MSVCRT:crtdll.obj
 0003:000013c8       _win_mem_data              100db3c8     * CIL library *:* CIL module *
 0003:000013d0       _winMutex_lock             100db3d0     * CIL library *:* CIL module *
 0003:000013d4       _sqlite3_os_type           100db3d4     * CIL library *:* CIL module *
 0003:000013d8       _vfsList                   100db3d8     * CIL library *:* CIL module *
 0003:000013e0       _mem0                      100db3e0     * CIL library *:* CIL module *
 0003:00001408       _sqlite3Hooks              100db408     * CIL library *:* CIL module *
 0003:00001410       _sqlite3SharedCacheList    100db410     * CIL library *:* CIL module *
 0003:00001414       _sqlite3Autoext            100db414     * CIL library *:* CIL module *
 0003:00001420       _sqlite3Stat               100db420     * CIL library *:* CIL module *
 0003:00001470       _winMutex_staticMutexes    100db470     * CIL library *:* CIL module *
 0003:00001518       _winShmNodeList            100db518     * CIL library *:* CIL module *
 0003:0000151c       _winMutex_isInit           100db51c     * CIL library *:* CIL module *
 0003:00002b88       ?dummy@?1??sqlite3VdbeGetOp@@9@9 100dcb88     * CIL library *:* CIL module *
 0003:00002ba0       _pcache1_g                 100dcba0     * CIL library *:* CIL module *
 0003:00002be8       _sqlite3SavedPrng          100dcbe8     * CIL library *:* CIL module *
 0003:00002cf0       _sqlite3Prng               100dccf0     * CIL library *:* CIL module *
 0003:00002df8       _sqlite3GlobalFunctions    100dcdf8     * CIL library *:* CIL module *
 0003:00002e54       _winSysInfo                100dce54     * CIL library *:* CIL module *
 0005:00000060       $R000000                   100de060     SQLite.Interop.res

 Exports

  ordinal    name

        1    _interop_compileoption_get@4
        2    _interop_compileoption_used@4
        3    _interop_libversion@0
        4    _interop_sourceid@0
        5    _sqlite3_activate_see
               exported name: sqlite3_activate_see
        6    _sqlite3_aggregate_context
               exported name: sqlite3_aggregate_context
        7    _sqlite3_aggregate_count
               exported name: sqlite3_aggregate_count
        8    _sqlite3_auto_extension
               exported name: sqlite3_auto_extension
        9    _sqlite3_backup_finish
               exported name: sqlite3_backup_finish
       10    _sqlite3_backup_finish_interop@4
       11    _sqlite3_backup_init
               exported name: sqlite3_backup_init
       12    _sqlite3_backup_pagecount
               exported name: sqlite3_backup_pagecount
       13    _sqlite3_backup_remaining
               exported name: sqlite3_backup_remaining
       14    _sqlite3_backup_step
               exported name: sqlite3_backup_step
       15    _sqlite3_bind_blob
               exported name: sqlite3_bind_blob
       16    _sqlite3_bind_double
               exported name: sqlite3_bind_double
       17    _sqlite3_bind_double_interop@12
       18    _sqlite3_bind_int
               exported name: sqlite3_bind_int
       19    _sqlite3_bind_int64
               exported name: sqlite3_bind_int64
       20    _sqlite3_bind_int64_interop@12
       21    _sqlite3_bind_null
               exported name: sqlite3_bind_null
       22    _sqlite3_bind_parameter_count
               exported name: sqlite3_bind_parameter_count
       23    _sqlite3_bind_parameter_index
               exported name: sqlite3_bind_parameter_index
       24    _sqlite3_bind_parameter_name
               exported name: sqlite3_bind_parameter_name
       25    _sqlite3_bind_parameter_name_interop@12
       26    _sqlite3_bind_text
               exported name: sqlite3_bind_text
       27    _sqlite3_bind_text16
               exported name: sqlite3_bind_text16
       28    _sqlite3_bind_value
               exported name: sqlite3_bind_value
       29    _sqlite3_bind_zeroblob
               exported name: sqlite3_bind_zeroblob
       30    _sqlite3_blob_bytes
               exported name: sqlite3_blob_bytes
       31    _sqlite3_blob_close
               exported name: sqlite3_blob_close
       32    _sqlite3_blob_open
               exported name: sqlite3_blob_open
       33    _sqlite3_blob_read
               exported name: sqlite3_blob_read
       34    _sqlite3_blob_reopen
               exported name: sqlite3_blob_reopen
       35    _sqlite3_blob_write
               exported name: sqlite3_blob_write
       36    _sqlite3_busy_handler
               exported name: sqlite3_busy_handler
       37    _sqlite3_busy_timeout
               exported name: sqlite3_busy_timeout
       38    _sqlite3_cancel_auto_extension
               exported name: sqlite3_cancel_auto_extension
       39    _sqlite3_changes
               exported name: sqlite3_changes
       40    _sqlite3_changes_interop@4
       41    _sqlite3_clear_bindings
               exported name: sqlite3_clear_bindings
       42    _sqlite3_close
               exported name: sqlite3_close
       43    _sqlite3_close_interop@4
       44    _sqlite3_close_v2
               exported name: sqlite3_close_v2
       45    _sqlite3_collation_needed
               exported name: sqlite3_collation_needed
       46    _sqlite3_collation_needed16
               exported name: sqlite3_collation_needed16
       47    _sqlite3_column_blob
               exported name: sqlite3_column_blob
       48    _sqlite3_column_bytes
               exported name: sqlite3_column_bytes
       49    _sqlite3_column_bytes16
               exported name: sqlite3_column_bytes16
       50    _sqlite3_column_count
               exported name: sqlite3_column_count
       51    _sqlite3_column_database_name
               exported name: sqlite3_column_database_name
       52    _sqlite3_column_database_name16
               exported name: sqlite3_column_database_name16
       53    _sqlite3_column_database_name16_interop@12
       54    _sqlite3_column_database_name_interop@12
       55    _sqlite3_column_decltype
               exported name: sqlite3_column_decltype
       56    _sqlite3_column_decltype16
               exported name: sqlite3_column_decltype16
       57    _sqlite3_column_decltype16_interop@12
       58    _sqlite3_column_decltype_interop@12
       59    _sqlite3_column_double
               exported name: sqlite3_column_double
       60    _sqlite3_column_double_interop@12
       61    _sqlite3_column_int
               exported name: sqlite3_column_int
       62    _sqlite3_column_int64
               exported name: sqlite3_column_int64
       63    _sqlite3_column_int64_interop@12
       64    _sqlite3_column_name
               exported name: sqlite3_column_name
       65    _sqlite3_column_name16
               exported name: sqlite3_column_name16
       66    _sqlite3_column_name16_interop@12
       67    _sqlite3_column_name_interop@12
       68    _sqlite3_column_origin_name
               exported name: sqlite3_column_origin_name
       69    _sqlite3_column_origin_name16
               exported name: sqlite3_column_origin_name16
       70    _sqlite3_column_origin_name16_interop@12
       71    _sqlite3_column_origin_name_interop@12
       72    _sqlite3_column_table_name
               exported name: sqlite3_column_table_name
       73    _sqlite3_column_table_name16
               exported name: sqlite3_column_table_name16
       74    _sqlite3_column_table_name16_interop@12
       75    _sqlite3_column_table_name_interop@12
       76    _sqlite3_column_text
               exported name: sqlite3_column_text
       77    _sqlite3_column_text16
               exported name: sqlite3_column_text16
       78    _sqlite3_column_text16_interop@12
       79    _sqlite3_column_text_interop@12
       80    _sqlite3_column_type
               exported name: sqlite3_column_type
       81    _sqlite3_column_value
               exported name: sqlite3_column_value
       82    _sqlite3_commit_hook
               exported name: sqlite3_commit_hook
       83    _sqlite3_compileoption_get
               exported name: sqlite3_compileoption_get
       84    _sqlite3_compileoption_used
               exported name: sqlite3_compileoption_used
       85    _sqlite3_complete
               exported name: sqlite3_complete
       86    _sqlite3_complete16
               exported name: sqlite3_complete16
       87    _sqlite3_config
               exported name: sqlite3_config
       88    _sqlite3_context_collcompare_interop@20
       89    _sqlite3_context_collseq_interop@16
       90    _sqlite3_context_db_handle
               exported name: sqlite3_context_db_handle
       91    _sqlite3_create_collation
               exported name: sqlite3_create_collation
       92    _sqlite3_create_collation16
               exported name: sqlite3_create_collation16
       93    _sqlite3_create_collation_v2
               exported name: sqlite3_create_collation_v2
       94    _sqlite3_create_disposable_module
               exported name: sqlite3_create_disposable_module
       95    _sqlite3_create_disposable_module_interop@112
       96    _sqlite3_create_function
               exported name: sqlite3_create_function
       97    _sqlite3_create_function16
               exported name: sqlite3_create_function16
       98    _sqlite3_create_function_interop@36
       99    _sqlite3_create_function_v2
               exported name: sqlite3_create_function_v2
      100    _sqlite3_create_module
               exported name: sqlite3_create_module
      101    _sqlite3_create_module_v2
               exported name: sqlite3_create_module_v2
      102    _sqlite3_cursor_rowid_interop@12
      103    _sqlite3_data_count
               exported name: sqlite3_data_count
      104    _sqlite3_data_directory
               exported name: sqlite3_data_directory
      105    _sqlite3_db_config
               exported name: sqlite3_db_config
      106    _sqlite3_db_filename
               exported name: sqlite3_db_filename
      107    _sqlite3_db_handle
               exported name: sqlite3_db_handle
      108    _sqlite3_db_mutex
               exported name: sqlite3_db_mutex
      109    _sqlite3_db_readonly
               exported name: sqlite3_db_readonly
      110    _sqlite3_db_release_memory
               exported name: sqlite3_db_release_memory
      111    _sqlite3_db_status
               exported name: sqlite3_db_status
      112    _sqlite3_declare_vtab
               exported name: sqlite3_declare_vtab
      113    _sqlite3_dispose_module
               exported name: sqlite3_dispose_module
      114    _sqlite3_enable_load_extension
               exported name: sqlite3_enable_load_extension
      115    _sqlite3_enable_shared_cache
               exported name: sqlite3_enable_shared_cache
      116    _sqlite3_errcode
               exported name: sqlite3_errcode
      117    _sqlite3_errmsg
               exported name: sqlite3_errmsg
      118    _sqlite3_errmsg16
               exported name: sqlite3_errmsg16
      119    _sqlite3_errmsg_interop@8
      120    _sqlite3_errstr
               exported name: sqlite3_errstr
      121    _sqlite3_exec
               exported name: sqlite3_exec
      122    _sqlite3_expired
               exported name: sqlite3_expired
      123    _sqlite3_extended_errcode
               exported name: sqlite3_extended_errcode
      124    _sqlite3_extended_result_codes
               exported name: sqlite3_extended_result_codes
      125    _sqlite3_file_control
               exported name: sqlite3_file_control
      126    _sqlite3_finalize
               exported name: sqlite3_finalize
      127    _sqlite3_finalize_interop@4
      128    _sqlite3_free
               exported name: sqlite3_free
      129    _sqlite3_free_table
               exported name: sqlite3_free_table
      130    _sqlite3_get_autocommit
               exported name: sqlite3_get_autocommit
      131    _sqlite3_get_auxdata
               exported name: sqlite3_get_auxdata
      132    _sqlite3_get_table
               exported name: sqlite3_get_table
      133    _sqlite3_global_recover
               exported name: sqlite3_global_recover
      134    _sqlite3_index_column_info_interop@32
      135    _sqlite3_initialize
               exported name: sqlite3_initialize
      136    _sqlite3_interrupt
               exported name: sqlite3_interrupt
      137    _sqlite3_key
               exported name: sqlite3_key
      138    _sqlite3_key_v2
               exported name: sqlite3_key_v2
      139    _sqlite3_last_insert_rowid
               exported name: sqlite3_last_insert_rowid
      140    _sqlite3_last_insert_rowid_interop@8
      141    _sqlite3_libversion
               exported name: sqlite3_libversion
      142    _sqlite3_libversion_number
               exported name: sqlite3_libversion_number
      143    _sqlite3_limit
               exported name: sqlite3_limit
      144    _sqlite3_load_extension
               exported name: sqlite3_load_extension
      145    _sqlite3_log
               exported name: sqlite3_log
      146    _sqlite3_malloc
               exported name: sqlite3_malloc
      147    _sqlite3_malloc_size_interop@4
      148    _sqlite3_memory_alarm
               exported name: sqlite3_memory_alarm
      149    _sqlite3_memory_highwater
               exported name: sqlite3_memory_highwater
      150    _sqlite3_memory_highwater_interop@8
      151    _sqlite3_memory_used
               exported name: sqlite3_memory_used
      152    _sqlite3_memory_used_interop@4
      153    _sqlite3_mprintf
               exported name: sqlite3_mprintf
      154    _sqlite3_mutex_alloc
               exported name: sqlite3_mutex_alloc
      155    _sqlite3_mutex_enter
               exported name: sqlite3_mutex_enter
      156    _sqlite3_mutex_free
               exported name: sqlite3_mutex_free
      157    _sqlite3_mutex_leave
               exported name: sqlite3_mutex_leave
      158    _sqlite3_mutex_try
               exported name: sqlite3_mutex_try
      159    _sqlite3_next_stmt
               exported name: sqlite3_next_stmt
      160    _sqlite3_open
               exported name: sqlite3_open
      161    _sqlite3_open16
               exported name: sqlite3_open16
      162    _sqlite3_open16_interop@12
      163    _sqlite3_open_interop@12
      164    _sqlite3_open_v2
               exported name: sqlite3_open_v2
      165    _sqlite3_os_end
               exported name: sqlite3_os_end
      166    _sqlite3_os_init
               exported name: sqlite3_os_init
      167    _sqlite3_overload_function
               exported name: sqlite3_overload_function
      168    _sqlite3_percentile_init
               exported name: sqlite3_percentile_init
      169    _sqlite3_prepare
               exported name: sqlite3_prepare
      170    _sqlite3_prepare16
               exported name: sqlite3_prepare16
      171    _sqlite3_prepare16_interop@24
      172    _sqlite3_prepare16_v2
               exported name: sqlite3_prepare16_v2
      173    _sqlite3_prepare_interop@24
      174    _sqlite3_prepare_v2
               exported name: sqlite3_prepare_v2
      175    _sqlite3_profile
               exported name: sqlite3_profile
      176    _sqlite3_progress_handler
               exported name: sqlite3_progress_handler
      177    _sqlite3_randomness
               exported name: sqlite3_randomness
      178    _sqlite3_realloc
               exported name: sqlite3_realloc
      179    _sqlite3_regexp_init
               exported name: sqlite3_regexp_init
      180    _sqlite3_rekey
               exported name: sqlite3_rekey
      181    _sqlite3_rekey_v2
               exported name: sqlite3_rekey_v2
      182    _sqlite3_release_memory
               exported name: sqlite3_release_memory
      183    _sqlite3_reset
               exported name: sqlite3_reset
      184    _sqlite3_reset_auto_extension
               exported name: sqlite3_reset_auto_extension
      185    _sqlite3_reset_interop@4
      186    _sqlite3_result_blob
               exported name: sqlite3_result_blob
      187    _sqlite3_result_double
               exported name: sqlite3_result_double
      188    _sqlite3_result_double_interop@8
      189    _sqlite3_result_error
               exported name: sqlite3_result_error
      190    _sqlite3_result_error16
               exported name: sqlite3_result_error16
      191    _sqlite3_result_error_code
               exported name: sqlite3_result_error_code
      192    _sqlite3_result_error_nomem
               exported name: sqlite3_result_error_nomem
      193    _sqlite3_result_error_toobig
               exported name: sqlite3_result_error_toobig
      194    _sqlite3_result_int
               exported name: sqlite3_result_int
      195    _sqlite3_result_int64
               exported name: sqlite3_result_int64
      196    _sqlite3_result_int64_interop@8
      197    _sqlite3_result_null
               exported name: sqlite3_result_null
      198    _sqlite3_result_text
               exported name: sqlite3_result_text
      199    _sqlite3_result_text16
               exported name: sqlite3_result_text16
      200    _sqlite3_result_text16be
               exported name: sqlite3_result_text16be
      201    _sqlite3_result_text16le
               exported name: sqlite3_result_text16le
      202    _sqlite3_result_value
               exported name: sqlite3_result_value
      203    _sqlite3_result_zeroblob
               exported name: sqlite3_result_zeroblob
      204    _sqlite3_rollback_hook
               exported name: sqlite3_rollback_hook
      205    _sqlite3_rtree_geometry_callback
               exported name: sqlite3_rtree_geometry_callback
      206    _sqlite3_rtree_query_callback
               exported name: sqlite3_rtree_query_callback
      207    _sqlite3_set_authorizer
               exported name: sqlite3_set_authorizer
      208    _sqlite3_set_auxdata
               exported name: sqlite3_set_auxdata
      209    _sqlite3_shutdown
               exported name: sqlite3_shutdown
      210    _sqlite3_sleep
               exported name: sqlite3_sleep
      211    _sqlite3_snprintf
               exported name: sqlite3_snprintf
      212    _sqlite3_soft_heap_limit
               exported name: sqlite3_soft_heap_limit
      213    _sqlite3_soft_heap_limit64
               exported name: sqlite3_soft_heap_limit64
      214    _sqlite3_sourceid
               exported name: sqlite3_sourceid
      215    _sqlite3_sql
               exported name: sqlite3_sql
      216    _sqlite3_status
               exported name: sqlite3_status
      217    _sqlite3_step
               exported name: sqlite3_step
      218    _sqlite3_stmt_busy
               exported name: sqlite3_stmt_busy
      219    _sqlite3_stmt_readonly
               exported name: sqlite3_stmt_readonly
      220    _sqlite3_stmt_status
               exported name: sqlite3_stmt_status
      221    _sqlite3_strglob
               exported name: sqlite3_strglob
      222    _sqlite3_stricmp
               exported name: sqlite3_stricmp
      223    _sqlite3_strnicmp
               exported name: sqlite3_strnicmp
      224    _sqlite3_table_column_metadata
               exported name: sqlite3_table_column_metadata
      225    _sqlite3_table_column_metadata_interop@44
      226    _sqlite3_table_cursor_interop@12
      227    _sqlite3_temp_directory
               exported name: sqlite3_temp_directory
      228    _sqlite3_test_control
               exported name: sqlite3_test_control
      229    _sqlite3_thread_cleanup
               exported name: sqlite3_thread_cleanup
      230    _sqlite3_threadsafe
               exported name: sqlite3_threadsafe
      231    _sqlite3_total_changes
               exported name: sqlite3_total_changes
      232    _sqlite3_totype_init
               exported name: sqlite3_totype_init
      233    _sqlite3_trace
               exported name: sqlite3_trace
      234    _sqlite3_transfer_bindings
               exported name: sqlite3_transfer_bindings
      235    _sqlite3_update_hook
               exported name: sqlite3_update_hook
      236    _sqlite3_uri_boolean
               exported name: sqlite3_uri_boolean
      237    _sqlite3_uri_int64
               exported name: sqlite3_uri_int64
      238    _sqlite3_uri_parameter
               exported name: sqlite3_uri_parameter
      239    _sqlite3_user_data
               exported name: sqlite3_user_data
      240    _sqlite3_value_blob
               exported name: sqlite3_value_blob
      241    _sqlite3_value_bytes
               exported name: sqlite3_value_bytes
      242    _sqlite3_value_bytes16
               exported name: sqlite3_value_bytes16
      243    _sqlite3_value_double
               exported name: sqlite3_value_double
      244    _sqlite3_value_double_interop@8
      245    _sqlite3_value_int
               exported name: sqlite3_value_int
      246    _sqlite3_value_int64
               exported name: sqlite3_value_int64
      247    _sqlite3_value_int64_interop@8
      248    _sqlite3_value_numeric_type
               exported name: sqlite3_value_numeric_type
      249    _sqlite3_value_text
               exported name: sqlite3_value_text
      250    _sqlite3_value_text16
               exported name: sqlite3_value_text16
      251    _sqlite3_value_text16_interop@8
      252    _sqlite3_value_text16be
               exported name: sqlite3_value_text16be
      253    _sqlite3_value_text16le
               exported name: sqlite3_value_text16le
      254    _sqlite3_value_text_interop@8
      255    _sqlite3_value_type
               exported name: sqlite3_value_type
      256    _sqlite3_version
               exported name: sqlite3_version
      257    _sqlite3_vfs_find
               exported name: sqlite3_vfs_find
      258    _sqlite3_vfs_register
               exported name: sqlite3_vfs_register
      259    _sqlite3_vfs_unregister
               exported name: sqlite3_vfs_unregister
      260    _sqlite3_vmprintf
               exported name: sqlite3_vmprintf
      261    _sqlite3_vsnprintf
               exported name: sqlite3_vsnprintf
      262    _sqlite3_vtab_config
               exported name: sqlite3_vtab_config
      263    _sqlite3_vtab_on_conflict
               exported name: sqlite3_vtab_on_conflict
      264    _sqlite3_vtshim_init
               exported name: sqlite3_vtshim_init
      265    _sqlite3_wal_autocheckpoint
               exported name: sqlite3_wal_autocheckpoint
      266    _sqlite3_wal_checkpoint
               exported name: sqlite3_wal_checkpoint
      267    _sqlite3_wal_checkpoint_v2
               exported name: sqlite3_wal_checkpoint_v2
      268    _sqlite3_wal_hook
               exported name: sqlite3_wal_hook
      269    _sqlite3_win32_compact_heap
               exported name: sqlite3_win32_compact_heap
      270    _sqlite3_win32_mbcs_to_utf8
               exported name: sqlite3_win32_mbcs_to_utf8
      271    _sqlite3_win32_reset_heap
               exported name: sqlite3_win32_reset_heap
      272    _sqlite3_win32_set_directory
               exported name: sqlite3_win32_set_directory
      273    _sqlite3_win32_sleep
               exported name: sqlite3_win32_sleep
      274    _sqlite3_win32_utf8_to_mbcs
               exported name: sqlite3_win32_utf8_to_mbcs
      275    _sqlite3_win32_write_debug
               exported name: sqlite3_win32_write_debug
